

Microchip Technology PIC18 LITE Macro Assembler V2.00 build -1524193055 
                                                                                               Sat Jan 19 14:59:17 2019

Microchip Technology Omniscient Code Generator v2.00 (Free mode) build 20180527130849
     1  0000                     
     2                           ; Version 2.00
     3                           ; Generated 27/05/2018 GMT
     4                           
     5                           ; 
     6                           ; Copyright © 2018, Microchip Technology Inc. and its subsidiaries ("Microchip")
     7                           ; All rights reserved.
     8                           ; 
     9                           ; This software is developed by Microchip Technology Inc. and its subsidiaries ("Microch
                                 ip").
    10                           ; 
    11                           ; Redistribution and use in source and binary forms, with or without modification, are
    12                           ; permitted provided that the following conditions are met:
    13                           ; 
    14                           ;     1. Redistributions of source code must retain the above copyright notice, this lis
                                 t of
    15                           ;        conditions and the following disclaimer.
    16                           ; 
    17                           ;     2. Redistributions in binary form must reproduce the above copyright notice, this 
                                 list
    18                           ;        of conditions and the following disclaimer in the documentation and/or other
    19                           ;        materials provided with the distribution.
    20                           ; 
    21                           ;     3. Microchip's name may not be used to endorse or promote products derived from th
                                 is
    22                           ;        software without specific prior written permission.
    23                           ; 
    24                           ; THIS SOFTWARE IS PROVIDED BY MICROCHIP "AS IS" AND ANY EXPRESS OR IMPLIED WARRANTIES,

    25                           ; INCLUDING, BUT NOT LIMITED TO, THE IMPLIED WARRANTIES OF MERCHANTABILITY AND FITNESS F
                                 OR
    26                           ; PURPOSE ARE DISCLAIMED.  IN NO EVENT SHALL MICROCHIP BE LIABLE FOR ANY DIRECT, INDIREC
                                 T,
    27                           ; INCIDENTAL, SPECIAL, EXEMPLARY, OR CONSEQUENTIAL DAMAGES (INCLUDING BUT NOT LIMITED TO
                                 
    28                           ; PROCUREMENT OF SUBSTITUTE GOODS OR SERVICES; LOSS OF USE, DATA OR PROFITS; OR BUSINESS
                                 
    29                           ; INTERRUPTION) HOWSOEVER CAUSED AND ON ANY THEORY OF LIABILITY, WHETHER IN CONTRACT, ST
                                 RICT
    30                           ; LIABILITY, OR TORT (INCLUDING NEGLIGENCE OR OTHERWISE) ARISING IN ANY WAY OUT OF THE U
                                 SE OF
    31                           ; THIS SOFTWARE, EVEN IF ADVISED OF THE POSSIBILITY OF SUCH DAMAGE.
    32                           ; 
    33                           
    34                           
    35                           ; 
    36                           ; Code-generator required, PIC18F4520 Definitions
    37                           ; 
    38  0000                     fsr0 equ 0FE9h
    39  0000                     fsr0h equ 0FEAh
    40  0000                     fsr0l equ 0FE9h
    41  0000                     fsr1 equ 0FE1h
    42  0000                     fsr1h equ 0FE2h
    43  0000                     fsr1l equ 0FE1h
    44  0000                     fsr2 equ 0FD9h
    45  0000                     fsr2h equ 0FDAh
    46  0000                     fsr2l equ 0FD9h
    47  0000                     indf0 equ 0FEFh
    48  0000                     indf1 equ 0FE7h
    49  0000                     indf2 equ 0FDFh
    50  0000                     intcon equ 0FF2h
    51  0000                     nvmcon equ 00h
    52  0000                     pcl equ 0FF9h
    53  0000                     pclath equ 0FFAh
    54  0000                     pclatu equ 0FFBh
    55  0000                     plusw0 equ 0FEBh
    56  0000                     plusw1 equ 0FE3h
    57  0000                     plusw2 equ 0FDBh
    58  0000                     postdec0 equ 0FEDh
    59  0000                     postdec1 equ 0FE5h
    60  0000                     postdec2 equ 0FDDh
    61  0000                     postinc0 equ 0FEEh
    62  0000                     postinc1 equ 0FE6h
    63  0000                     postinc2 equ 0FDEh
    64  0000                     preinc0 equ 0FECh
    65  0000                     preinc1 equ 0FE4h
    66  0000                     preinc2 equ 0FDCh
    67  0000                     prod equ 0FF3h
    68  0000                     prodh equ 0FF4h
    69  0000                     prodl equ 0FF3h
    70  0000                     status equ 0FD8h
    71  0000                     tablat equ 0FF5h
    72  0000                     tblptr equ 0FF6h
    73  0000                     tblptrh equ 0FF7h
    74  0000                     tblptrl equ 0FF6h
    75  0000                     tblptru equ 0FF8h
    76  0000                     tosl equ 0FFDh
    77  0000                     wreg equ 0FE8h
    78  0000                     
     2                           opt pagewidth 120
     3  0000                     byte0	macro	val
     4                           	(getbyte(val,0))
     5                           endm
     6  0000                     byte1	macro	val
     7                           	(getbyte(val,1))
     8                           endm
     9  0000                     byte2	macro	val
    10                           	(getbyte(val,2))
    11                           endm
    12  0000                     byte3	macro	val
    13                           	(getbyte(val,3))
    14                           endm
    15  0000                     byte4	macro	val
    16                           	(getbyte(val,4))
    17                           endm
    18  0000                     byte5	macro	val
    19                           	(getbyte(val,5))
    20                           endm
    21  0000                     byte6	macro	val
    22                           	(getbyte(val,6))
    23                           endm
    24  0000                     byte7	macro	val
    25                           	(getbyte(val,7))
    26                           endm
    27  0000                     getword	macro	val,pos
    28                           	(((val) >> (8 * pos)) and 0xffff)
    29                           endm
    30  0000                     word0	macro	val
    31                           	(getword(val,0))
    32                           endm
    33  0000                     word1	macro	val
    34                           	(getword(val,2))
    35                           endm
    36  0000                     word2	macro	val
    37                           	(getword(val,4))
    38                           endm
    39  0000                     word3	macro	val
    40                           	(getword(val,6))
    41                           endm
    42  0000                     gettword	macro	val,pos
    43                           	(((val) >> (8 * pos)) and 0xffffff)
    44                           endm
    45  0000                     tword0	macro	val
    46                           	(gettword(val,0))
    47                           endm
    48  0000                     tword1	macro	val
    49                           	(gettword(val,3))
    50                           endm
    51  0000                     tword2	macro	val
    52                           	(gettword(val,6))
    53                           endm
    54  0000                     getdword	macro	val,pos
    55                           	(((val) >> (8 * pos)) and 0xffffffff)
    56                           endm
    57  0000                     dword0	macro	val
    58                           	(getdword(val,0))
    59                           endm
    60  0000                     dword1	macro	val
    61                           	(getdword(val,4))
    62                           endm
    63  0000                     clrc   macro
    64                           	bcf	status,0
    65                           endm
    66  0000                     setc   macro
    67                           	bsf	status,0
    68                           endm
    69  0000                     clrz   macro
    70                           	bcf	status,2
    71                           endm
    72  0000                     setz   macro
    73                           	bsf	status,2
    74                           endm
    75  0000                     skipnz macro
    76                           	btfsc	status,2
    77                           endm
    78  0000                     skipz  macro
    79                           	btfss	status,2
    80                           endm
    81  0000                     skipnc macro
    82                           	btfsc	status,0
    83                           endm
    84  0000                     skipc  macro
    85                           	btfss	status,0
    86                           endm
    87  0000                     pushw macro
    88                           	movwf postinc1
    89                           endm
    90  0000                     pushf macro arg1
    91                           	movff arg1, postinc1
    92                           endm
    93  0000                     popw macro
    94                           	movf postdec1,f
    95                           	movf indf1,w
    96                           endm
    97  0000                     popf macro arg1
    98                           	movf postdec1,f
    99                           	movff indf1,arg1
   100                           endm
   101  0000                     popfc macro arg1
   102                           	movff plusw1,arg1
   103                           	decfsz fsr1,f
   104                           endm
   105  0000                     	global	__ramtop
   106                           	global	__accesstop
   107                           # 54 "C:\Program Files (x86)\Microchip\xc8\v2.00\pic\include\pic18f4520.h"
   108                           PORTA equ 0F80h ;# 
   109  0000                     # 273 "C:\Program Files (x86)\Microchip\xc8\v2.00\pic\include\pic18f4520.h"
   110                           PORTB equ 0F81h ;# 
   111  0000                     # 452 "C:\Program Files (x86)\Microchip\xc8\v2.00\pic\include\pic18f4520.h"
   112                           PORTC equ 0F82h ;# 
   113  0000                     # 634 "C:\Program Files (x86)\Microchip\xc8\v2.00\pic\include\pic18f4520.h"
   114                           PORTD equ 0F83h ;# 
   115  0000                     # 776 "C:\Program Files (x86)\Microchip\xc8\v2.00\pic\include\pic18f4520.h"
   116                           PORTE equ 0F84h ;# 
   117  0000                     # 979 "C:\Program Files (x86)\Microchip\xc8\v2.00\pic\include\pic18f4520.h"
   118                           LATA equ 0F89h ;# 
   119  0000                     # 1091 "C:\Program Files (x86)\Microchip\xc8\v2.00\pic\include\pic18f4520.h"
   120                           LATB equ 0F8Ah ;# 
   121  0000                     # 1203 "C:\Program Files (x86)\Microchip\xc8\v2.00\pic\include\pic18f4520.h"
   122                           LATC equ 0F8Bh ;# 
   123  0000                     # 1315 "C:\Program Files (x86)\Microchip\xc8\v2.00\pic\include\pic18f4520.h"
   124                           LATD equ 0F8Ch ;# 
   125  0000                     # 1427 "C:\Program Files (x86)\Microchip\xc8\v2.00\pic\include\pic18f4520.h"
   126                           LATE equ 0F8Dh ;# 
   127  0000                     # 1479 "C:\Program Files (x86)\Microchip\xc8\v2.00\pic\include\pic18f4520.h"
   128                           TRISA equ 0F92h ;# 
   129  0000                     # 1484 "C:\Program Files (x86)\Microchip\xc8\v2.00\pic\include\pic18f4520.h"
   130                           DDRA equ 0F92h ;# 
   131  0000                     # 1701 "C:\Program Files (x86)\Microchip\xc8\v2.00\pic\include\pic18f4520.h"
   132                           TRISB equ 0F93h ;# 
   133  0000                     # 1706 "C:\Program Files (x86)\Microchip\xc8\v2.00\pic\include\pic18f4520.h"
   134                           DDRB equ 0F93h ;# 
   135  0000                     # 1923 "C:\Program Files (x86)\Microchip\xc8\v2.00\pic\include\pic18f4520.h"
   136                           TRISC equ 0F94h ;# 
   137  0000                     # 1928 "C:\Program Files (x86)\Microchip\xc8\v2.00\pic\include\pic18f4520.h"
   138                           DDRC equ 0F94h ;# 
   139  0000                     # 2145 "C:\Program Files (x86)\Microchip\xc8\v2.00\pic\include\pic18f4520.h"
   140                           TRISD equ 0F95h ;# 
   141  0000                     # 2150 "C:\Program Files (x86)\Microchip\xc8\v2.00\pic\include\pic18f4520.h"
   142                           DDRD equ 0F95h ;# 
   143  0000                     # 2367 "C:\Program Files (x86)\Microchip\xc8\v2.00\pic\include\pic18f4520.h"
   144                           TRISE equ 0F96h ;# 
   145  0000                     # 2372 "C:\Program Files (x86)\Microchip\xc8\v2.00\pic\include\pic18f4520.h"
   146                           DDRE equ 0F96h ;# 
   147  0000                     # 2531 "C:\Program Files (x86)\Microchip\xc8\v2.00\pic\include\pic18f4520.h"
   148                           OSCTUNE equ 0F9Bh ;# 
   149  0000                     # 2596 "C:\Program Files (x86)\Microchip\xc8\v2.00\pic\include\pic18f4520.h"
   150                           PIE1 equ 0F9Dh ;# 
   151  0000                     # 2673 "C:\Program Files (x86)\Microchip\xc8\v2.00\pic\include\pic18f4520.h"
   152                           PIR1 equ 0F9Eh ;# 
   153  0000                     # 2750 "C:\Program Files (x86)\Microchip\xc8\v2.00\pic\include\pic18f4520.h"
   154                           IPR1 equ 0F9Fh ;# 
   155  0000                     # 2827 "C:\Program Files (x86)\Microchip\xc8\v2.00\pic\include\pic18f4520.h"
   156                           PIE2 equ 0FA0h ;# 
   157  0000                     # 2893 "C:\Program Files (x86)\Microchip\xc8\v2.00\pic\include\pic18f4520.h"
   158                           PIR2 equ 0FA1h ;# 
   159  0000                     # 2959 "C:\Program Files (x86)\Microchip\xc8\v2.00\pic\include\pic18f4520.h"
   160                           IPR2 equ 0FA2h ;# 
   161  0000                     # 3025 "C:\Program Files (x86)\Microchip\xc8\v2.00\pic\include\pic18f4520.h"
   162                           EECON1 equ 0FA6h ;# 
   163  0000                     # 3091 "C:\Program Files (x86)\Microchip\xc8\v2.00\pic\include\pic18f4520.h"
   164                           EECON2 equ 0FA7h ;# 
   165  0000                     # 3098 "C:\Program Files (x86)\Microchip\xc8\v2.00\pic\include\pic18f4520.h"
   166                           EEDATA equ 0FA8h ;# 
   167  0000                     # 3105 "C:\Program Files (x86)\Microchip\xc8\v2.00\pic\include\pic18f4520.h"
   168                           EEADR equ 0FA9h ;# 
   169  0000                     # 3112 "C:\Program Files (x86)\Microchip\xc8\v2.00\pic\include\pic18f4520.h"
   170                           RCSTA equ 0FABh ;# 
   171  0000                     # 3117 "C:\Program Files (x86)\Microchip\xc8\v2.00\pic\include\pic18f4520.h"
   172                           RCSTA1 equ 0FABh ;# 
   173  0000                     # 3322 "C:\Program Files (x86)\Microchip\xc8\v2.00\pic\include\pic18f4520.h"
   174                           TXSTA equ 0FACh ;# 
   175  0000                     # 3327 "C:\Program Files (x86)\Microchip\xc8\v2.00\pic\include\pic18f4520.h"
   176                           TXSTA1 equ 0FACh ;# 
   177  0000                     # 3578 "C:\Program Files (x86)\Microchip\xc8\v2.00\pic\include\pic18f4520.h"
   178                           TXREG equ 0FADh ;# 
   179  0000                     # 3583 "C:\Program Files (x86)\Microchip\xc8\v2.00\pic\include\pic18f4520.h"
   180                           TXREG1 equ 0FADh ;# 
   181  0000                     # 3590 "C:\Program Files (x86)\Microchip\xc8\v2.00\pic\include\pic18f4520.h"
   182                           RCREG equ 0FAEh ;# 
   183  0000                     # 3595 "C:\Program Files (x86)\Microchip\xc8\v2.00\pic\include\pic18f4520.h"
   184                           RCREG1 equ 0FAEh ;# 
   185  0000                     # 3602 "C:\Program Files (x86)\Microchip\xc8\v2.00\pic\include\pic18f4520.h"
   186                           SPBRG equ 0FAFh ;# 
   187  0000                     # 3607 "C:\Program Files (x86)\Microchip\xc8\v2.00\pic\include\pic18f4520.h"
   188                           SPBRG1 equ 0FAFh ;# 
   189  0000                     # 3614 "C:\Program Files (x86)\Microchip\xc8\v2.00\pic\include\pic18f4520.h"
   190                           SPBRGH equ 0FB0h ;# 
   191  0000                     # 3621 "C:\Program Files (x86)\Microchip\xc8\v2.00\pic\include\pic18f4520.h"
   192                           T3CON equ 0FB1h ;# 
   193  0000                     # 3733 "C:\Program Files (x86)\Microchip\xc8\v2.00\pic\include\pic18f4520.h"
   194                           TMR3 equ 0FB2h ;# 
   195  0000                     # 3740 "C:\Program Files (x86)\Microchip\xc8\v2.00\pic\include\pic18f4520.h"
   196                           TMR3L equ 0FB2h ;# 
   197  0000                     # 3747 "C:\Program Files (x86)\Microchip\xc8\v2.00\pic\include\pic18f4520.h"
   198                           TMR3H equ 0FB3h ;# 
   199  0000                     # 3754 "C:\Program Files (x86)\Microchip\xc8\v2.00\pic\include\pic18f4520.h"
   200                           CMCON equ 0FB4h ;# 
   201  0000                     # 3844 "C:\Program Files (x86)\Microchip\xc8\v2.00\pic\include\pic18f4520.h"
   202                           CVRCON equ 0FB5h ;# 
   203  0000                     # 3923 "C:\Program Files (x86)\Microchip\xc8\v2.00\pic\include\pic18f4520.h"
   204                           ECCP1AS equ 0FB6h ;# 
   205  0000                     # 3928 "C:\Program Files (x86)\Microchip\xc8\v2.00\pic\include\pic18f4520.h"
   206                           ECCPAS equ 0FB6h ;# 
   207  0000                     # 4085 "C:\Program Files (x86)\Microchip\xc8\v2.00\pic\include\pic18f4520.h"
   208                           PWM1CON equ 0FB7h ;# 
   209  0000                     # 4090 "C:\Program Files (x86)\Microchip\xc8\v2.00\pic\include\pic18f4520.h"
   210                           ECCP1DEL equ 0FB7h ;# 
   211  0000                     # 4223 "C:\Program Files (x86)\Microchip\xc8\v2.00\pic\include\pic18f4520.h"
   212                           BAUDCON equ 0FB8h ;# 
   213  0000                     # 4228 "C:\Program Files (x86)\Microchip\xc8\v2.00\pic\include\pic18f4520.h"
   214                           BAUDCTL equ 0FB8h ;# 
   215  0000                     # 4403 "C:\Program Files (x86)\Microchip\xc8\v2.00\pic\include\pic18f4520.h"
   216                           CCP2CON equ 0FBAh ;# 
   217  0000                     # 4482 "C:\Program Files (x86)\Microchip\xc8\v2.00\pic\include\pic18f4520.h"
   218                           CCPR2 equ 0FBBh ;# 
   219  0000                     # 4489 "C:\Program Files (x86)\Microchip\xc8\v2.00\pic\include\pic18f4520.h"
   220                           CCPR2L equ 0FBBh ;# 
   221  0000                     # 4496 "C:\Program Files (x86)\Microchip\xc8\v2.00\pic\include\pic18f4520.h"
   222                           CCPR2H equ 0FBCh ;# 
   223  0000                     # 4503 "C:\Program Files (x86)\Microchip\xc8\v2.00\pic\include\pic18f4520.h"
   224                           CCP1CON equ 0FBDh ;# 
   225  0000                     # 4600 "C:\Program Files (x86)\Microchip\xc8\v2.00\pic\include\pic18f4520.h"
   226                           CCPR1 equ 0FBEh ;# 
   227  0000                     # 4607 "C:\Program Files (x86)\Microchip\xc8\v2.00\pic\include\pic18f4520.h"
   228                           CCPR1L equ 0FBEh ;# 
   229  0000                     # 4614 "C:\Program Files (x86)\Microchip\xc8\v2.00\pic\include\pic18f4520.h"
   230                           CCPR1H equ 0FBFh ;# 
   231  0000                     # 4621 "C:\Program Files (x86)\Microchip\xc8\v2.00\pic\include\pic18f4520.h"
   232                           ADCON2 equ 0FC0h ;# 
   233  0000                     # 4692 "C:\Program Files (x86)\Microchip\xc8\v2.00\pic\include\pic18f4520.h"
   234                           ADCON1 equ 0FC1h ;# 
   235  0000                     # 4777 "C:\Program Files (x86)\Microchip\xc8\v2.00\pic\include\pic18f4520.h"
   236                           ADCON0 equ 0FC2h ;# 
   237  0000                     # 4896 "C:\Program Files (x86)\Microchip\xc8\v2.00\pic\include\pic18f4520.h"
   238                           ADRES equ 0FC3h ;# 
   239  0000                     # 4903 "C:\Program Files (x86)\Microchip\xc8\v2.00\pic\include\pic18f4520.h"
   240                           ADRESL equ 0FC3h ;# 
   241  0000                     # 4910 "C:\Program Files (x86)\Microchip\xc8\v2.00\pic\include\pic18f4520.h"
   242                           ADRESH equ 0FC4h ;# 
   243  0000                     # 4917 "C:\Program Files (x86)\Microchip\xc8\v2.00\pic\include\pic18f4520.h"
   244                           SSPCON2 equ 0FC5h ;# 
   245  0000                     # 5012 "C:\Program Files (x86)\Microchip\xc8\v2.00\pic\include\pic18f4520.h"
   246                           SSPCON1 equ 0FC6h ;# 
   247  0000                     # 5082 "C:\Program Files (x86)\Microchip\xc8\v2.00\pic\include\pic18f4520.h"
   248                           SSPSTAT equ 0FC7h ;# 
   249  0000                     # 5303 "C:\Program Files (x86)\Microchip\xc8\v2.00\pic\include\pic18f4520.h"
   250                           SSPADD equ 0FC8h ;# 
   251  0000                     # 5310 "C:\Program Files (x86)\Microchip\xc8\v2.00\pic\include\pic18f4520.h"
   252                           SSPBUF equ 0FC9h ;# 
   253  0000                     # 5317 "C:\Program Files (x86)\Microchip\xc8\v2.00\pic\include\pic18f4520.h"
   254                           T2CON equ 0FCAh ;# 
   255  0000                     # 5415 "C:\Program Files (x86)\Microchip\xc8\v2.00\pic\include\pic18f4520.h"
   256                           PR2 equ 0FCBh ;# 
   257  0000                     # 5420 "C:\Program Files (x86)\Microchip\xc8\v2.00\pic\include\pic18f4520.h"
   258                           MEMCON equ 0FCBh ;# 
   259  0000                     # 5525 "C:\Program Files (x86)\Microchip\xc8\v2.00\pic\include\pic18f4520.h"
   260                           TMR2 equ 0FCCh ;# 
   261  0000                     # 5532 "C:\Program Files (x86)\Microchip\xc8\v2.00\pic\include\pic18f4520.h"
   262                           T1CON equ 0FCDh ;# 
   263  0000                     # 5635 "C:\Program Files (x86)\Microchip\xc8\v2.00\pic\include\pic18f4520.h"
   264                           TMR1 equ 0FCEh ;# 
   265  0000                     # 5642 "C:\Program Files (x86)\Microchip\xc8\v2.00\pic\include\pic18f4520.h"
   266                           TMR1L equ 0FCEh ;# 
   267  0000                     # 5649 "C:\Program Files (x86)\Microchip\xc8\v2.00\pic\include\pic18f4520.h"
   268                           TMR1H equ 0FCFh ;# 
   269  0000                     # 5656 "C:\Program Files (x86)\Microchip\xc8\v2.00\pic\include\pic18f4520.h"
   270                           RCON equ 0FD0h ;# 
   271  0000                     # 5789 "C:\Program Files (x86)\Microchip\xc8\v2.00\pic\include\pic18f4520.h"
   272                           WDTCON equ 0FD1h ;# 
   273  0000                     # 5817 "C:\Program Files (x86)\Microchip\xc8\v2.00\pic\include\pic18f4520.h"
   274                           HLVDCON equ 0FD2h ;# 
   275  0000                     # 5822 "C:\Program Files (x86)\Microchip\xc8\v2.00\pic\include\pic18f4520.h"
   276                           LVDCON equ 0FD2h ;# 
   277  0000                     # 6087 "C:\Program Files (x86)\Microchip\xc8\v2.00\pic\include\pic18f4520.h"
   278                           OSCCON equ 0FD3h ;# 
   279  0000                     # 6170 "C:\Program Files (x86)\Microchip\xc8\v2.00\pic\include\pic18f4520.h"
   280                           T0CON equ 0FD5h ;# 
   281  0000                     # 6253 "C:\Program Files (x86)\Microchip\xc8\v2.00\pic\include\pic18f4520.h"
   282                           TMR0 equ 0FD6h ;# 
   283  0000                     # 6260 "C:\Program Files (x86)\Microchip\xc8\v2.00\pic\include\pic18f4520.h"
   284                           TMR0L equ 0FD6h ;# 
   285  0000                     # 6267 "C:\Program Files (x86)\Microchip\xc8\v2.00\pic\include\pic18f4520.h"
   286                           TMR0H equ 0FD7h ;# 
   287  0000                     # 6274 "C:\Program Files (x86)\Microchip\xc8\v2.00\pic\include\pic18f4520.h"
   288                           STATUS equ 0FD8h ;# 
   289  0000                     # 6345 "C:\Program Files (x86)\Microchip\xc8\v2.00\pic\include\pic18f4520.h"
   290                           FSR2 equ 0FD9h ;# 
   291  0000                     # 6352 "C:\Program Files (x86)\Microchip\xc8\v2.00\pic\include\pic18f4520.h"
   292                           FSR2L equ 0FD9h ;# 
   293  0000                     # 6359 "C:\Program Files (x86)\Microchip\xc8\v2.00\pic\include\pic18f4520.h"
   294                           FSR2H equ 0FDAh ;# 
   295  0000                     # 6366 "C:\Program Files (x86)\Microchip\xc8\v2.00\pic\include\pic18f4520.h"
   296                           PLUSW2 equ 0FDBh ;# 
   297  0000                     # 6373 "C:\Program Files (x86)\Microchip\xc8\v2.00\pic\include\pic18f4520.h"
   298                           PREINC2 equ 0FDCh ;# 
   299  0000                     # 6380 "C:\Program Files (x86)\Microchip\xc8\v2.00\pic\include\pic18f4520.h"
   300                           POSTDEC2 equ 0FDDh ;# 
   301  0000                     # 6387 "C:\Program Files (x86)\Microchip\xc8\v2.00\pic\include\pic18f4520.h"
   302                           POSTINC2 equ 0FDEh ;# 
   303  0000                     # 6394 "C:\Program Files (x86)\Microchip\xc8\v2.00\pic\include\pic18f4520.h"
   304                           INDF2 equ 0FDFh ;# 
   305  0000                     # 6401 "C:\Program Files (x86)\Microchip\xc8\v2.00\pic\include\pic18f4520.h"
   306                           BSR equ 0FE0h ;# 
   307  0000                     # 6408 "C:\Program Files (x86)\Microchip\xc8\v2.00\pic\include\pic18f4520.h"
   308                           FSR1 equ 0FE1h ;# 
   309  0000                     # 6415 "C:\Program Files (x86)\Microchip\xc8\v2.00\pic\include\pic18f4520.h"
   310                           FSR1L equ 0FE1h ;# 
   311  0000                     # 6422 "C:\Program Files (x86)\Microchip\xc8\v2.00\pic\include\pic18f4520.h"
   312                           FSR1H equ 0FE2h ;# 
   313  0000                     # 6429 "C:\Program Files (x86)\Microchip\xc8\v2.00\pic\include\pic18f4520.h"
   314                           PLUSW1 equ 0FE3h ;# 
   315  0000                     # 6436 "C:\Program Files (x86)\Microchip\xc8\v2.00\pic\include\pic18f4520.h"
   316                           PREINC1 equ 0FE4h ;# 
   317  0000                     # 6443 "C:\Program Files (x86)\Microchip\xc8\v2.00\pic\include\pic18f4520.h"
   318                           POSTDEC1 equ 0FE5h ;# 
   319  0000                     # 6450 "C:\Program Files (x86)\Microchip\xc8\v2.00\pic\include\pic18f4520.h"
   320                           POSTINC1 equ 0FE6h ;# 
   321  0000                     # 6457 "C:\Program Files (x86)\Microchip\xc8\v2.00\pic\include\pic18f4520.h"
   322                           INDF1 equ 0FE7h ;# 
   323  0000                     # 6464 "C:\Program Files (x86)\Microchip\xc8\v2.00\pic\include\pic18f4520.h"
   324                           WREG equ 0FE8h ;# 
   325  0000                     # 6476 "C:\Program Files (x86)\Microchip\xc8\v2.00\pic\include\pic18f4520.h"
   326                           FSR0 equ 0FE9h ;# 
   327  0000                     # 6483 "C:\Program Files (x86)\Microchip\xc8\v2.00\pic\include\pic18f4520.h"
   328                           FSR0L equ 0FE9h ;# 
   329  0000                     # 6490 "C:\Program Files (x86)\Microchip\xc8\v2.00\pic\include\pic18f4520.h"
   330                           FSR0H equ 0FEAh ;# 
   331  0000                     # 6497 "C:\Program Files (x86)\Microchip\xc8\v2.00\pic\include\pic18f4520.h"
   332                           PLUSW0 equ 0FEBh ;# 
   333  0000                     # 6504 "C:\Program Files (x86)\Microchip\xc8\v2.00\pic\include\pic18f4520.h"
   334                           PREINC0 equ 0FECh ;# 
   335  0000                     # 6511 "C:\Program Files (x86)\Microchip\xc8\v2.00\pic\include\pic18f4520.h"
   336                           POSTDEC0 equ 0FEDh ;# 
   337  0000                     # 6518 "C:\Program Files (x86)\Microchip\xc8\v2.00\pic\include\pic18f4520.h"
   338                           POSTINC0 equ 0FEEh ;# 
   339  0000                     # 6525 "C:\Program Files (x86)\Microchip\xc8\v2.00\pic\include\pic18f4520.h"
   340                           INDF0 equ 0FEFh ;# 
   341  0000                     # 6532 "C:\Program Files (x86)\Microchip\xc8\v2.00\pic\include\pic18f4520.h"
   342                           INTCON3 equ 0FF0h ;# 
   343  0000                     # 6624 "C:\Program Files (x86)\Microchip\xc8\v2.00\pic\include\pic18f4520.h"
   344                           INTCON2 equ 0FF1h ;# 
   345  0000                     # 6694 "C:\Program Files (x86)\Microchip\xc8\v2.00\pic\include\pic18f4520.h"
   346                           INTCON equ 0FF2h ;# 
   347  0000                     # 6811 "C:\Program Files (x86)\Microchip\xc8\v2.00\pic\include\pic18f4520.h"
   348                           PROD equ 0FF3h ;# 
   349  0000                     # 6818 "C:\Program Files (x86)\Microchip\xc8\v2.00\pic\include\pic18f4520.h"
   350                           PRODL equ 0FF3h ;# 
   351  0000                     # 6825 "C:\Program Files (x86)\Microchip\xc8\v2.00\pic\include\pic18f4520.h"
   352                           PRODH equ 0FF4h ;# 
   353  0000                     # 6832 "C:\Program Files (x86)\Microchip\xc8\v2.00\pic\include\pic18f4520.h"
   354                           TABLAT equ 0FF5h ;# 
   355  0000                     # 6841 "C:\Program Files (x86)\Microchip\xc8\v2.00\pic\include\pic18f4520.h"
   356                           TBLPTR equ 0FF6h ;# 
   357  0000                     # 6848 "C:\Program Files (x86)\Microchip\xc8\v2.00\pic\include\pic18f4520.h"
   358                           TBLPTRL equ 0FF6h ;# 
   359  0000                     # 6855 "C:\Program Files (x86)\Microchip\xc8\v2.00\pic\include\pic18f4520.h"
   360                           TBLPTRH equ 0FF7h ;# 
   361  0000                     # 6862 "C:\Program Files (x86)\Microchip\xc8\v2.00\pic\include\pic18f4520.h"
   362                           TBLPTRU equ 0FF8h ;# 
   363  0000                     # 6871 "C:\Program Files (x86)\Microchip\xc8\v2.00\pic\include\pic18f4520.h"
   364                           PCLAT equ 0FF9h ;# 
   365  0000                     # 6878 "C:\Program Files (x86)\Microchip\xc8\v2.00\pic\include\pic18f4520.h"
   366                           PC equ 0FF9h ;# 
   367  0000                     # 6885 "C:\Program Files (x86)\Microchip\xc8\v2.00\pic\include\pic18f4520.h"
   368                           PCL equ 0FF9h ;# 
   369  0000                     # 6892 "C:\Program Files (x86)\Microchip\xc8\v2.00\pic\include\pic18f4520.h"
   370                           PCLATH equ 0FFAh ;# 
   371  0000                     # 6899 "C:\Program Files (x86)\Microchip\xc8\v2.00\pic\include\pic18f4520.h"
   372                           PCLATU equ 0FFBh ;# 
   373  0000                     # 6906 "C:\Program Files (x86)\Microchip\xc8\v2.00\pic\include\pic18f4520.h"
   374                           STKPTR equ 0FFCh ;# 
   375  0000                     # 6980 "C:\Program Files (x86)\Microchip\xc8\v2.00\pic\include\pic18f4520.h"
   376                           TOS equ 0FFDh ;# 
   377  0000                     # 6987 "C:\Program Files (x86)\Microchip\xc8\v2.00\pic\include\pic18f4520.h"
   378                           TOSL equ 0FFDh ;# 
   379  0000                     # 6994 "C:\Program Files (x86)\Microchip\xc8\v2.00\pic\include\pic18f4520.h"
   380                           TOSH equ 0FFEh ;# 
   381  0000                     # 7001 "C:\Program Files (x86)\Microchip\xc8\v2.00\pic\include\pic18f4520.h"
   382                           TOSU equ 0FFFh ;# 
   383  0000                     # 54 "C:\Program Files (x86)\Microchip\xc8\v2.00\pic\include\pic18f4520.h"
   384                           PORTA equ 0F80h ;# 
   385  0000                     # 273 "C:\Program Files (x86)\Microchip\xc8\v2.00\pic\include\pic18f4520.h"
   386                           PORTB equ 0F81h ;# 
   387  0000                     # 452 "C:\Program Files (x86)\Microchip\xc8\v2.00\pic\include\pic18f4520.h"
   388                           PORTC equ 0F82h ;# 
   389  0000                     # 634 "C:\Program Files (x86)\Microchip\xc8\v2.00\pic\include\pic18f4520.h"
   390                           PORTD equ 0F83h ;# 
   391  0000                     # 776 "C:\Program Files (x86)\Microchip\xc8\v2.00\pic\include\pic18f4520.h"
   392                           PORTE equ 0F84h ;# 
   393  0000                     # 979 "C:\Program Files (x86)\Microchip\xc8\v2.00\pic\include\pic18f4520.h"
   394                           LATA equ 0F89h ;# 
   395  0000                     # 1091 "C:\Program Files (x86)\Microchip\xc8\v2.00\pic\include\pic18f4520.h"
   396                           LATB equ 0F8Ah ;# 
   397  0000                     # 1203 "C:\Program Files (x86)\Microchip\xc8\v2.00\pic\include\pic18f4520.h"
   398                           LATC equ 0F8Bh ;# 
   399  0000                     # 1315 "C:\Program Files (x86)\Microchip\xc8\v2.00\pic\include\pic18f4520.h"
   400                           LATD equ 0F8Ch ;# 
   401  0000                     # 1427 "C:\Program Files (x86)\Microchip\xc8\v2.00\pic\include\pic18f4520.h"
   402                           LATE equ 0F8Dh ;# 
   403  0000                     # 1479 "C:\Program Files (x86)\Microchip\xc8\v2.00\pic\include\pic18f4520.h"
   404                           TRISA equ 0F92h ;# 
   405  0000                     # 1484 "C:\Program Files (x86)\Microchip\xc8\v2.00\pic\include\pic18f4520.h"
   406                           DDRA equ 0F92h ;# 
   407  0000                     # 1701 "C:\Program Files (x86)\Microchip\xc8\v2.00\pic\include\pic18f4520.h"
   408                           TRISB equ 0F93h ;# 
   409  0000                     # 1706 "C:\Program Files (x86)\Microchip\xc8\v2.00\pic\include\pic18f4520.h"
   410                           DDRB equ 0F93h ;# 
   411  0000                     # 1923 "C:\Program Files (x86)\Microchip\xc8\v2.00\pic\include\pic18f4520.h"
   412                           TRISC equ 0F94h ;# 
   413  0000                     # 1928 "C:\Program Files (x86)\Microchip\xc8\v2.00\pic\include\pic18f4520.h"
   414                           DDRC equ 0F94h ;# 
   415  0000                     # 2145 "C:\Program Files (x86)\Microchip\xc8\v2.00\pic\include\pic18f4520.h"
   416                           TRISD equ 0F95h ;# 
   417  0000                     # 2150 "C:\Program Files (x86)\Microchip\xc8\v2.00\pic\include\pic18f4520.h"
   418                           DDRD equ 0F95h ;# 
   419  0000                     # 2367 "C:\Program Files (x86)\Microchip\xc8\v2.00\pic\include\pic18f4520.h"
   420                           TRISE equ 0F96h ;# 
   421  0000                     # 2372 "C:\Program Files (x86)\Microchip\xc8\v2.00\pic\include\pic18f4520.h"
   422                           DDRE equ 0F96h ;# 
   423  0000                     # 2531 "C:\Program Files (x86)\Microchip\xc8\v2.00\pic\include\pic18f4520.h"
   424                           OSCTUNE equ 0F9Bh ;# 
   425  0000                     # 2596 "C:\Program Files (x86)\Microchip\xc8\v2.00\pic\include\pic18f4520.h"
   426                           PIE1 equ 0F9Dh ;# 
   427  0000                     # 2673 "C:\Program Files (x86)\Microchip\xc8\v2.00\pic\include\pic18f4520.h"
   428                           PIR1 equ 0F9Eh ;# 
   429  0000                     # 2750 "C:\Program Files (x86)\Microchip\xc8\v2.00\pic\include\pic18f4520.h"
   430                           IPR1 equ 0F9Fh ;# 
   431  0000                     # 2827 "C:\Program Files (x86)\Microchip\xc8\v2.00\pic\include\pic18f4520.h"
   432                           PIE2 equ 0FA0h ;# 
   433  0000                     # 2893 "C:\Program Files (x86)\Microchip\xc8\v2.00\pic\include\pic18f4520.h"
   434                           PIR2 equ 0FA1h ;# 
   435  0000                     # 2959 "C:\Program Files (x86)\Microchip\xc8\v2.00\pic\include\pic18f4520.h"
   436                           IPR2 equ 0FA2h ;# 
   437  0000                     # 3025 "C:\Program Files (x86)\Microchip\xc8\v2.00\pic\include\pic18f4520.h"
   438                           EECON1 equ 0FA6h ;# 
   439  0000                     # 3091 "C:\Program Files (x86)\Microchip\xc8\v2.00\pic\include\pic18f4520.h"
   440                           EECON2 equ 0FA7h ;# 
   441  0000                     # 3098 "C:\Program Files (x86)\Microchip\xc8\v2.00\pic\include\pic18f4520.h"
   442                           EEDATA equ 0FA8h ;# 
   443  0000                     # 3105 "C:\Program Files (x86)\Microchip\xc8\v2.00\pic\include\pic18f4520.h"
   444                           EEADR equ 0FA9h ;# 
   445  0000                     # 3112 "C:\Program Files (x86)\Microchip\xc8\v2.00\pic\include\pic18f4520.h"
   446                           RCSTA equ 0FABh ;# 
   447  0000                     # 3117 "C:\Program Files (x86)\Microchip\xc8\v2.00\pic\include\pic18f4520.h"
   448                           RCSTA1 equ 0FABh ;# 
   449  0000                     # 3322 "C:\Program Files (x86)\Microchip\xc8\v2.00\pic\include\pic18f4520.h"
   450                           TXSTA equ 0FACh ;# 
   451  0000                     # 3327 "C:\Program Files (x86)\Microchip\xc8\v2.00\pic\include\pic18f4520.h"
   452                           TXSTA1 equ 0FACh ;# 
   453  0000                     # 3578 "C:\Program Files (x86)\Microchip\xc8\v2.00\pic\include\pic18f4520.h"
   454                           TXREG equ 0FADh ;# 
   455  0000                     # 3583 "C:\Program Files (x86)\Microchip\xc8\v2.00\pic\include\pic18f4520.h"
   456                           TXREG1 equ 0FADh ;# 
   457  0000                     # 3590 "C:\Program Files (x86)\Microchip\xc8\v2.00\pic\include\pic18f4520.h"
   458                           RCREG equ 0FAEh ;# 
   459  0000                     # 3595 "C:\Program Files (x86)\Microchip\xc8\v2.00\pic\include\pic18f4520.h"
   460                           RCREG1 equ 0FAEh ;# 
   461  0000                     # 3602 "C:\Program Files (x86)\Microchip\xc8\v2.00\pic\include\pic18f4520.h"
   462                           SPBRG equ 0FAFh ;# 
   463  0000                     # 3607 "C:\Program Files (x86)\Microchip\xc8\v2.00\pic\include\pic18f4520.h"
   464                           SPBRG1 equ 0FAFh ;# 
   465  0000                     # 3614 "C:\Program Files (x86)\Microchip\xc8\v2.00\pic\include\pic18f4520.h"
   466                           SPBRGH equ 0FB0h ;# 
   467  0000                     # 3621 "C:\Program Files (x86)\Microchip\xc8\v2.00\pic\include\pic18f4520.h"
   468                           T3CON equ 0FB1h ;# 
   469  0000                     # 3733 "C:\Program Files (x86)\Microchip\xc8\v2.00\pic\include\pic18f4520.h"
   470                           TMR3 equ 0FB2h ;# 
   471  0000                     # 3740 "C:\Program Files (x86)\Microchip\xc8\v2.00\pic\include\pic18f4520.h"
   472                           TMR3L equ 0FB2h ;# 
   473  0000                     # 3747 "C:\Program Files (x86)\Microchip\xc8\v2.00\pic\include\pic18f4520.h"
   474                           TMR3H equ 0FB3h ;# 
   475  0000                     # 3754 "C:\Program Files (x86)\Microchip\xc8\v2.00\pic\include\pic18f4520.h"
   476                           CMCON equ 0FB4h ;# 
   477  0000                     # 3844 "C:\Program Files (x86)\Microchip\xc8\v2.00\pic\include\pic18f4520.h"
   478                           CVRCON equ 0FB5h ;# 
   479  0000                     # 3923 "C:\Program Files (x86)\Microchip\xc8\v2.00\pic\include\pic18f4520.h"
   480                           ECCP1AS equ 0FB6h ;# 
   481  0000                     # 3928 "C:\Program Files (x86)\Microchip\xc8\v2.00\pic\include\pic18f4520.h"
   482                           ECCPAS equ 0FB6h ;# 
   483  0000                     # 4085 "C:\Program Files (x86)\Microchip\xc8\v2.00\pic\include\pic18f4520.h"
   484                           PWM1CON equ 0FB7h ;# 
   485  0000                     # 4090 "C:\Program Files (x86)\Microchip\xc8\v2.00\pic\include\pic18f4520.h"
   486                           ECCP1DEL equ 0FB7h ;# 
   487  0000                     # 4223 "C:\Program Files (x86)\Microchip\xc8\v2.00\pic\include\pic18f4520.h"
   488                           BAUDCON equ 0FB8h ;# 
   489  0000                     # 4228 "C:\Program Files (x86)\Microchip\xc8\v2.00\pic\include\pic18f4520.h"
   490                           BAUDCTL equ 0FB8h ;# 
   491  0000                     # 4403 "C:\Program Files (x86)\Microchip\xc8\v2.00\pic\include\pic18f4520.h"
   492                           CCP2CON equ 0FBAh ;# 
   493  0000                     # 4482 "C:\Program Files (x86)\Microchip\xc8\v2.00\pic\include\pic18f4520.h"
   494                           CCPR2 equ 0FBBh ;# 
   495  0000                     # 4489 "C:\Program Files (x86)\Microchip\xc8\v2.00\pic\include\pic18f4520.h"
   496                           CCPR2L equ 0FBBh ;# 
   497  0000                     # 4496 "C:\Program Files (x86)\Microchip\xc8\v2.00\pic\include\pic18f4520.h"
   498                           CCPR2H equ 0FBCh ;# 
   499  0000                     # 4503 "C:\Program Files (x86)\Microchip\xc8\v2.00\pic\include\pic18f4520.h"
   500                           CCP1CON equ 0FBDh ;# 
   501  0000                     # 4600 "C:\Program Files (x86)\Microchip\xc8\v2.00\pic\include\pic18f4520.h"
   502                           CCPR1 equ 0FBEh ;# 
   503  0000                     # 4607 "C:\Program Files (x86)\Microchip\xc8\v2.00\pic\include\pic18f4520.h"
   504                           CCPR1L equ 0FBEh ;# 
   505  0000                     # 4614 "C:\Program Files (x86)\Microchip\xc8\v2.00\pic\include\pic18f4520.h"
   506                           CCPR1H equ 0FBFh ;# 
   507  0000                     # 4621 "C:\Program Files (x86)\Microchip\xc8\v2.00\pic\include\pic18f4520.h"
   508                           ADCON2 equ 0FC0h ;# 
   509  0000                     # 4692 "C:\Program Files (x86)\Microchip\xc8\v2.00\pic\include\pic18f4520.h"
   510                           ADCON1 equ 0FC1h ;# 
   511  0000                     # 4777 "C:\Program Files (x86)\Microchip\xc8\v2.00\pic\include\pic18f4520.h"
   512                           ADCON0 equ 0FC2h ;# 
   513  0000                     # 4896 "C:\Program Files (x86)\Microchip\xc8\v2.00\pic\include\pic18f4520.h"
   514                           ADRES equ 0FC3h ;# 
   515  0000                     # 4903 "C:\Program Files (x86)\Microchip\xc8\v2.00\pic\include\pic18f4520.h"
   516                           ADRESL equ 0FC3h ;# 
   517  0000                     # 4910 "C:\Program Files (x86)\Microchip\xc8\v2.00\pic\include\pic18f4520.h"
   518                           ADRESH equ 0FC4h ;# 
   519  0000                     # 4917 "C:\Program Files (x86)\Microchip\xc8\v2.00\pic\include\pic18f4520.h"
   520                           SSPCON2 equ 0FC5h ;# 
   521  0000                     # 5012 "C:\Program Files (x86)\Microchip\xc8\v2.00\pic\include\pic18f4520.h"
   522                           SSPCON1 equ 0FC6h ;# 
   523  0000                     # 5082 "C:\Program Files (x86)\Microchip\xc8\v2.00\pic\include\pic18f4520.h"
   524                           SSPSTAT equ 0FC7h ;# 
   525  0000                     # 5303 "C:\Program Files (x86)\Microchip\xc8\v2.00\pic\include\pic18f4520.h"
   526                           SSPADD equ 0FC8h ;# 
   527  0000                     # 5310 "C:\Program Files (x86)\Microchip\xc8\v2.00\pic\include\pic18f4520.h"
   528                           SSPBUF equ 0FC9h ;# 
   529  0000                     # 5317 "C:\Program Files (x86)\Microchip\xc8\v2.00\pic\include\pic18f4520.h"
   530                           T2CON equ 0FCAh ;# 
   531  0000                     # 5415 "C:\Program Files (x86)\Microchip\xc8\v2.00\pic\include\pic18f4520.h"
   532                           PR2 equ 0FCBh ;# 
   533  0000                     # 5420 "C:\Program Files (x86)\Microchip\xc8\v2.00\pic\include\pic18f4520.h"
   534                           MEMCON equ 0FCBh ;# 
   535  0000                     # 5525 "C:\Program Files (x86)\Microchip\xc8\v2.00\pic\include\pic18f4520.h"
   536                           TMR2 equ 0FCCh ;# 
   537  0000                     # 5532 "C:\Program Files (x86)\Microchip\xc8\v2.00\pic\include\pic18f4520.h"
   538                           T1CON equ 0FCDh ;# 
   539  0000                     # 5635 "C:\Program Files (x86)\Microchip\xc8\v2.00\pic\include\pic18f4520.h"
   540                           TMR1 equ 0FCEh ;# 
   541  0000                     # 5642 "C:\Program Files (x86)\Microchip\xc8\v2.00\pic\include\pic18f4520.h"
   542                           TMR1L equ 0FCEh ;# 
   543  0000                     # 5649 "C:\Program Files (x86)\Microchip\xc8\v2.00\pic\include\pic18f4520.h"
   544                           TMR1H equ 0FCFh ;# 
   545  0000                     # 5656 "C:\Program Files (x86)\Microchip\xc8\v2.00\pic\include\pic18f4520.h"
   546                           RCON equ 0FD0h ;# 
   547  0000                     # 5789 "C:\Program Files (x86)\Microchip\xc8\v2.00\pic\include\pic18f4520.h"
   548                           WDTCON equ 0FD1h ;# 
   549  0000                     # 5817 "C:\Program Files (x86)\Microchip\xc8\v2.00\pic\include\pic18f4520.h"
   550                           HLVDCON equ 0FD2h ;# 
   551  0000                     # 5822 "C:\Program Files (x86)\Microchip\xc8\v2.00\pic\include\pic18f4520.h"
   552                           LVDCON equ 0FD2h ;# 
   553  0000                     # 6087 "C:\Program Files (x86)\Microchip\xc8\v2.00\pic\include\pic18f4520.h"
   554                           OSCCON equ 0FD3h ;# 
   555  0000                     # 6170 "C:\Program Files (x86)\Microchip\xc8\v2.00\pic\include\pic18f4520.h"
   556                           T0CON equ 0FD5h ;# 
   557  0000                     # 6253 "C:\Program Files (x86)\Microchip\xc8\v2.00\pic\include\pic18f4520.h"
   558                           TMR0 equ 0FD6h ;# 
   559  0000                     # 6260 "C:\Program Files (x86)\Microchip\xc8\v2.00\pic\include\pic18f4520.h"
   560                           TMR0L equ 0FD6h ;# 
   561  0000                     # 6267 "C:\Program Files (x86)\Microchip\xc8\v2.00\pic\include\pic18f4520.h"
   562                           TMR0H equ 0FD7h ;# 
   563  0000                     # 6274 "C:\Program Files (x86)\Microchip\xc8\v2.00\pic\include\pic18f4520.h"
   564                           STATUS equ 0FD8h ;# 
   565  0000                     # 6345 "C:\Program Files (x86)\Microchip\xc8\v2.00\pic\include\pic18f4520.h"
   566                           FSR2 equ 0FD9h ;# 
   567  0000                     # 6352 "C:\Program Files (x86)\Microchip\xc8\v2.00\pic\include\pic18f4520.h"
   568                           FSR2L equ 0FD9h ;# 
   569  0000                     # 6359 "C:\Program Files (x86)\Microchip\xc8\v2.00\pic\include\pic18f4520.h"
   570                           FSR2H equ 0FDAh ;# 
   571  0000                     # 6366 "C:\Program Files (x86)\Microchip\xc8\v2.00\pic\include\pic18f4520.h"
   572                           PLUSW2 equ 0FDBh ;# 
   573  0000                     # 6373 "C:\Program Files (x86)\Microchip\xc8\v2.00\pic\include\pic18f4520.h"
   574                           PREINC2 equ 0FDCh ;# 
   575  0000                     # 6380 "C:\Program Files (x86)\Microchip\xc8\v2.00\pic\include\pic18f4520.h"
   576                           POSTDEC2 equ 0FDDh ;# 
   577  0000                     # 6387 "C:\Program Files (x86)\Microchip\xc8\v2.00\pic\include\pic18f4520.h"
   578                           POSTINC2 equ 0FDEh ;# 
   579  0000                     # 6394 "C:\Program Files (x86)\Microchip\xc8\v2.00\pic\include\pic18f4520.h"
   580                           INDF2 equ 0FDFh ;# 
   581  0000                     # 6401 "C:\Program Files (x86)\Microchip\xc8\v2.00\pic\include\pic18f4520.h"
   582                           BSR equ 0FE0h ;# 
   583  0000                     # 6408 "C:\Program Files (x86)\Microchip\xc8\v2.00\pic\include\pic18f4520.h"
   584                           FSR1 equ 0FE1h ;# 
   585  0000                     # 6415 "C:\Program Files (x86)\Microchip\xc8\v2.00\pic\include\pic18f4520.h"
   586                           FSR1L equ 0FE1h ;# 
   587  0000                     # 6422 "C:\Program Files (x86)\Microchip\xc8\v2.00\pic\include\pic18f4520.h"
   588                           FSR1H equ 0FE2h ;# 
   589  0000                     # 6429 "C:\Program Files (x86)\Microchip\xc8\v2.00\pic\include\pic18f4520.h"
   590                           PLUSW1 equ 0FE3h ;# 
   591  0000                     # 6436 "C:\Program Files (x86)\Microchip\xc8\v2.00\pic\include\pic18f4520.h"
   592                           PREINC1 equ 0FE4h ;# 
   593  0000                     # 6443 "C:\Program Files (x86)\Microchip\xc8\v2.00\pic\include\pic18f4520.h"
   594                           POSTDEC1 equ 0FE5h ;# 
   595  0000                     # 6450 "C:\Program Files (x86)\Microchip\xc8\v2.00\pic\include\pic18f4520.h"
   596                           POSTINC1 equ 0FE6h ;# 
   597  0000                     # 6457 "C:\Program Files (x86)\Microchip\xc8\v2.00\pic\include\pic18f4520.h"
   598                           INDF1 equ 0FE7h ;# 
   599  0000                     # 6464 "C:\Program Files (x86)\Microchip\xc8\v2.00\pic\include\pic18f4520.h"
   600                           WREG equ 0FE8h ;# 
   601  0000                     # 6476 "C:\Program Files (x86)\Microchip\xc8\v2.00\pic\include\pic18f4520.h"
   602                           FSR0 equ 0FE9h ;# 
   603  0000                     # 6483 "C:\Program Files (x86)\Microchip\xc8\v2.00\pic\include\pic18f4520.h"
   604                           FSR0L equ 0FE9h ;# 
   605  0000                     # 6490 "C:\Program Files (x86)\Microchip\xc8\v2.00\pic\include\pic18f4520.h"
   606                           FSR0H equ 0FEAh ;# 
   607  0000                     # 6497 "C:\Program Files (x86)\Microchip\xc8\v2.00\pic\include\pic18f4520.h"
   608                           PLUSW0 equ 0FEBh ;# 
   609  0000                     # 6504 "C:\Program Files (x86)\Microchip\xc8\v2.00\pic\include\pic18f4520.h"
   610                           PREINC0 equ 0FECh ;# 
   611  0000                     # 6511 "C:\Program Files (x86)\Microchip\xc8\v2.00\pic\include\pic18f4520.h"
   612                           POSTDEC0 equ 0FEDh ;# 
   613  0000                     # 6518 "C:\Program Files (x86)\Microchip\xc8\v2.00\pic\include\pic18f4520.h"
   614                           POSTINC0 equ 0FEEh ;# 
   615  0000                     # 6525 "C:\Program Files (x86)\Microchip\xc8\v2.00\pic\include\pic18f4520.h"
   616                           INDF0 equ 0FEFh ;# 
   617  0000                     # 6532 "C:\Program Files (x86)\Microchip\xc8\v2.00\pic\include\pic18f4520.h"
   618                           INTCON3 equ 0FF0h ;# 
   619  0000                     # 6624 "C:\Program Files (x86)\Microchip\xc8\v2.00\pic\include\pic18f4520.h"
   620                           INTCON2 equ 0FF1h ;# 
   621  0000                     # 6694 "C:\Program Files (x86)\Microchip\xc8\v2.00\pic\include\pic18f4520.h"
   622                           INTCON equ 0FF2h ;# 
   623  0000                     # 6811 "C:\Program Files (x86)\Microchip\xc8\v2.00\pic\include\pic18f4520.h"
   624                           PROD equ 0FF3h ;# 
   625  0000                     # 6818 "C:\Program Files (x86)\Microchip\xc8\v2.00\pic\include\pic18f4520.h"
   626                           PRODL equ 0FF3h ;# 
   627  0000                     # 6825 "C:\Program Files (x86)\Microchip\xc8\v2.00\pic\include\pic18f4520.h"
   628                           PRODH equ 0FF4h ;# 
   629  0000                     # 6832 "C:\Program Files (x86)\Microchip\xc8\v2.00\pic\include\pic18f4520.h"
   630                           TABLAT equ 0FF5h ;# 
   631  0000                     # 6841 "C:\Program Files (x86)\Microchip\xc8\v2.00\pic\include\pic18f4520.h"
   632                           TBLPTR equ 0FF6h ;# 
   633  0000                     # 6848 "C:\Program Files (x86)\Microchip\xc8\v2.00\pic\include\pic18f4520.h"
   634                           TBLPTRL equ 0FF6h ;# 
   635  0000                     # 6855 "C:\Program Files (x86)\Microchip\xc8\v2.00\pic\include\pic18f4520.h"
   636                           TBLPTRH equ 0FF7h ;# 
   637  0000                     # 6862 "C:\Program Files (x86)\Microchip\xc8\v2.00\pic\include\pic18f4520.h"
   638                           TBLPTRU equ 0FF8h ;# 
   639  0000                     # 6871 "C:\Program Files (x86)\Microchip\xc8\v2.00\pic\include\pic18f4520.h"
   640                           PCLAT equ 0FF9h ;# 
   641  0000                     # 6878 "C:\Program Files (x86)\Microchip\xc8\v2.00\pic\include\pic18f4520.h"
   642                           PC equ 0FF9h ;# 
   643  0000                     # 6885 "C:\Program Files (x86)\Microchip\xc8\v2.00\pic\include\pic18f4520.h"
   644                           PCL equ 0FF9h ;# 
   645  0000                     # 6892 "C:\Program Files (x86)\Microchip\xc8\v2.00\pic\include\pic18f4520.h"
   646                           PCLATH equ 0FFAh ;# 
   647  0000                     # 6899 "C:\Program Files (x86)\Microchip\xc8\v2.00\pic\include\pic18f4520.h"
   648                           PCLATU equ 0FFBh ;# 
   649  0000                     # 6906 "C:\Program Files (x86)\Microchip\xc8\v2.00\pic\include\pic18f4520.h"
   650                           STKPTR equ 0FFCh ;# 
   651  0000                     # 6980 "C:\Program Files (x86)\Microchip\xc8\v2.00\pic\include\pic18f4520.h"
   652                           TOS equ 0FFDh ;# 
   653  0000                     # 6987 "C:\Program Files (x86)\Microchip\xc8\v2.00\pic\include\pic18f4520.h"
   654                           TOSL equ 0FFDh ;# 
   655  0000                     # 6994 "C:\Program Files (x86)\Microchip\xc8\v2.00\pic\include\pic18f4520.h"
   656                           TOSH equ 0FFEh ;# 
   657  0000                     # 7001 "C:\Program Files (x86)\Microchip\xc8\v2.00\pic\include\pic18f4520.h"
   658                           TOSU equ 0FFFh ;# 
   659  0000                     # 54 "C:\Program Files (x86)\Microchip\xc8\v2.00\pic\include\pic18f4520.h"
   660                           PORTA equ 0F80h ;# 
   661  0000                     # 273 "C:\Program Files (x86)\Microchip\xc8\v2.00\pic\include\pic18f4520.h"
   662                           PORTB equ 0F81h ;# 
   663  0000                     # 452 "C:\Program Files (x86)\Microchip\xc8\v2.00\pic\include\pic18f4520.h"
   664                           PORTC equ 0F82h ;# 
   665  0000                     # 634 "C:\Program Files (x86)\Microchip\xc8\v2.00\pic\include\pic18f4520.h"
   666                           PORTD equ 0F83h ;# 
   667  0000                     # 776 "C:\Program Files (x86)\Microchip\xc8\v2.00\pic\include\pic18f4520.h"
   668                           PORTE equ 0F84h ;# 
   669  0000                     # 979 "C:\Program Files (x86)\Microchip\xc8\v2.00\pic\include\pic18f4520.h"
   670                           LATA equ 0F89h ;# 
   671  0000                     # 1091 "C:\Program Files (x86)\Microchip\xc8\v2.00\pic\include\pic18f4520.h"
   672                           LATB equ 0F8Ah ;# 
   673  0000                     # 1203 "C:\Program Files (x86)\Microchip\xc8\v2.00\pic\include\pic18f4520.h"
   674                           LATC equ 0F8Bh ;# 
   675  0000                     # 1315 "C:\Program Files (x86)\Microchip\xc8\v2.00\pic\include\pic18f4520.h"
   676                           LATD equ 0F8Ch ;# 
   677  0000                     # 1427 "C:\Program Files (x86)\Microchip\xc8\v2.00\pic\include\pic18f4520.h"
   678                           LATE equ 0F8Dh ;# 
   679  0000                     # 1479 "C:\Program Files (x86)\Microchip\xc8\v2.00\pic\include\pic18f4520.h"
   680                           TRISA equ 0F92h ;# 
   681  0000                     # 1484 "C:\Program Files (x86)\Microchip\xc8\v2.00\pic\include\pic18f4520.h"
   682                           DDRA equ 0F92h ;# 
   683  0000                     # 1701 "C:\Program Files (x86)\Microchip\xc8\v2.00\pic\include\pic18f4520.h"
   684                           TRISB equ 0F93h ;# 
   685  0000                     # 1706 "C:\Program Files (x86)\Microchip\xc8\v2.00\pic\include\pic18f4520.h"
   686                           DDRB equ 0F93h ;# 
   687  0000                     # 1923 "C:\Program Files (x86)\Microchip\xc8\v2.00\pic\include\pic18f4520.h"
   688                           TRISC equ 0F94h ;# 
   689  0000                     # 1928 "C:\Program Files (x86)\Microchip\xc8\v2.00\pic\include\pic18f4520.h"
   690                           DDRC equ 0F94h ;# 
   691  0000                     # 2145 "C:\Program Files (x86)\Microchip\xc8\v2.00\pic\include\pic18f4520.h"
   692                           TRISD equ 0F95h ;# 
   693  0000                     # 2150 "C:\Program Files (x86)\Microchip\xc8\v2.00\pic\include\pic18f4520.h"
   694                           DDRD equ 0F95h ;# 
   695  0000                     # 2367 "C:\Program Files (x86)\Microchip\xc8\v2.00\pic\include\pic18f4520.h"
   696                           TRISE equ 0F96h ;# 
   697  0000                     # 2372 "C:\Program Files (x86)\Microchip\xc8\v2.00\pic\include\pic18f4520.h"
   698                           DDRE equ 0F96h ;# 
   699  0000                     # 2531 "C:\Program Files (x86)\Microchip\xc8\v2.00\pic\include\pic18f4520.h"
   700                           OSCTUNE equ 0F9Bh ;# 
   701  0000                     # 2596 "C:\Program Files (x86)\Microchip\xc8\v2.00\pic\include\pic18f4520.h"
   702                           PIE1 equ 0F9Dh ;# 
   703  0000                     # 2673 "C:\Program Files (x86)\Microchip\xc8\v2.00\pic\include\pic18f4520.h"
   704                           PIR1 equ 0F9Eh ;# 
   705  0000                     # 2750 "C:\Program Files (x86)\Microchip\xc8\v2.00\pic\include\pic18f4520.h"
   706                           IPR1 equ 0F9Fh ;# 
   707  0000                     # 2827 "C:\Program Files (x86)\Microchip\xc8\v2.00\pic\include\pic18f4520.h"
   708                           PIE2 equ 0FA0h ;# 
   709  0000                     # 2893 "C:\Program Files (x86)\Microchip\xc8\v2.00\pic\include\pic18f4520.h"
   710                           PIR2 equ 0FA1h ;# 
   711  0000                     # 2959 "C:\Program Files (x86)\Microchip\xc8\v2.00\pic\include\pic18f4520.h"
   712                           IPR2 equ 0FA2h ;# 
   713  0000                     # 3025 "C:\Program Files (x86)\Microchip\xc8\v2.00\pic\include\pic18f4520.h"
   714                           EECON1 equ 0FA6h ;# 
   715  0000                     # 3091 "C:\Program Files (x86)\Microchip\xc8\v2.00\pic\include\pic18f4520.h"
   716                           EECON2 equ 0FA7h ;# 
   717  0000                     # 3098 "C:\Program Files (x86)\Microchip\xc8\v2.00\pic\include\pic18f4520.h"
   718                           EEDATA equ 0FA8h ;# 
   719  0000                     # 3105 "C:\Program Files (x86)\Microchip\xc8\v2.00\pic\include\pic18f4520.h"
   720                           EEADR equ 0FA9h ;# 
   721  0000                     # 3112 "C:\Program Files (x86)\Microchip\xc8\v2.00\pic\include\pic18f4520.h"
   722                           RCSTA equ 0FABh ;# 
   723  0000                     # 3117 "C:\Program Files (x86)\Microchip\xc8\v2.00\pic\include\pic18f4520.h"
   724                           RCSTA1 equ 0FABh ;# 
   725  0000                     # 3322 "C:\Program Files (x86)\Microchip\xc8\v2.00\pic\include\pic18f4520.h"
   726                           TXSTA equ 0FACh ;# 
   727  0000                     # 3327 "C:\Program Files (x86)\Microchip\xc8\v2.00\pic\include\pic18f4520.h"
   728                           TXSTA1 equ 0FACh ;# 
   729  0000                     # 3578 "C:\Program Files (x86)\Microchip\xc8\v2.00\pic\include\pic18f4520.h"
   730                           TXREG equ 0FADh ;# 
   731  0000                     # 3583 "C:\Program Files (x86)\Microchip\xc8\v2.00\pic\include\pic18f4520.h"
   732                           TXREG1 equ 0FADh ;# 
   733  0000                     # 3590 "C:\Program Files (x86)\Microchip\xc8\v2.00\pic\include\pic18f4520.h"
   734                           RCREG equ 0FAEh ;# 
   735  0000                     # 3595 "C:\Program Files (x86)\Microchip\xc8\v2.00\pic\include\pic18f4520.h"
   736                           RCREG1 equ 0FAEh ;# 
   737  0000                     # 3602 "C:\Program Files (x86)\Microchip\xc8\v2.00\pic\include\pic18f4520.h"
   738                           SPBRG equ 0FAFh ;# 
   739  0000                     # 3607 "C:\Program Files (x86)\Microchip\xc8\v2.00\pic\include\pic18f4520.h"
   740                           SPBRG1 equ 0FAFh ;# 
   741  0000                     # 3614 "C:\Program Files (x86)\Microchip\xc8\v2.00\pic\include\pic18f4520.h"
   742                           SPBRGH equ 0FB0h ;# 
   743  0000                     # 3621 "C:\Program Files (x86)\Microchip\xc8\v2.00\pic\include\pic18f4520.h"
   744                           T3CON equ 0FB1h ;# 
   745  0000                     # 3733 "C:\Program Files (x86)\Microchip\xc8\v2.00\pic\include\pic18f4520.h"
   746                           TMR3 equ 0FB2h ;# 
   747  0000                     # 3740 "C:\Program Files (x86)\Microchip\xc8\v2.00\pic\include\pic18f4520.h"
   748                           TMR3L equ 0FB2h ;# 
   749  0000                     # 3747 "C:\Program Files (x86)\Microchip\xc8\v2.00\pic\include\pic18f4520.h"
   750                           TMR3H equ 0FB3h ;# 
   751  0000                     # 3754 "C:\Program Files (x86)\Microchip\xc8\v2.00\pic\include\pic18f4520.h"
   752                           CMCON equ 0FB4h ;# 
   753  0000                     # 3844 "C:\Program Files (x86)\Microchip\xc8\v2.00\pic\include\pic18f4520.h"
   754                           CVRCON equ 0FB5h ;# 
   755  0000                     # 3923 "C:\Program Files (x86)\Microchip\xc8\v2.00\pic\include\pic18f4520.h"
   756                           ECCP1AS equ 0FB6h ;# 
   757  0000                     # 3928 "C:\Program Files (x86)\Microchip\xc8\v2.00\pic\include\pic18f4520.h"
   758                           ECCPAS equ 0FB6h ;# 
   759  0000                     # 4085 "C:\Program Files (x86)\Microchip\xc8\v2.00\pic\include\pic18f4520.h"
   760                           PWM1CON equ 0FB7h ;# 
   761  0000                     # 4090 "C:\Program Files (x86)\Microchip\xc8\v2.00\pic\include\pic18f4520.h"
   762                           ECCP1DEL equ 0FB7h ;# 
   763  0000                     # 4223 "C:\Program Files (x86)\Microchip\xc8\v2.00\pic\include\pic18f4520.h"
   764                           BAUDCON equ 0FB8h ;# 
   765  0000                     # 4228 "C:\Program Files (x86)\Microchip\xc8\v2.00\pic\include\pic18f4520.h"
   766                           BAUDCTL equ 0FB8h ;# 
   767  0000                     # 4403 "C:\Program Files (x86)\Microchip\xc8\v2.00\pic\include\pic18f4520.h"
   768                           CCP2CON equ 0FBAh ;# 
   769  0000                     # 4482 "C:\Program Files (x86)\Microchip\xc8\v2.00\pic\include\pic18f4520.h"
   770                           CCPR2 equ 0FBBh ;# 
   771  0000                     # 4489 "C:\Program Files (x86)\Microchip\xc8\v2.00\pic\include\pic18f4520.h"
   772                           CCPR2L equ 0FBBh ;# 
   773  0000                     # 4496 "C:\Program Files (x86)\Microchip\xc8\v2.00\pic\include\pic18f4520.h"
   774                           CCPR2H equ 0FBCh ;# 
   775  0000                     # 4503 "C:\Program Files (x86)\Microchip\xc8\v2.00\pic\include\pic18f4520.h"
   776                           CCP1CON equ 0FBDh ;# 
   777  0000                     # 4600 "C:\Program Files (x86)\Microchip\xc8\v2.00\pic\include\pic18f4520.h"
   778                           CCPR1 equ 0FBEh ;# 
   779  0000                     # 4607 "C:\Program Files (x86)\Microchip\xc8\v2.00\pic\include\pic18f4520.h"
   780                           CCPR1L equ 0FBEh ;# 
   781  0000                     # 4614 "C:\Program Files (x86)\Microchip\xc8\v2.00\pic\include\pic18f4520.h"
   782                           CCPR1H equ 0FBFh ;# 
   783  0000                     # 4621 "C:\Program Files (x86)\Microchip\xc8\v2.00\pic\include\pic18f4520.h"
   784                           ADCON2 equ 0FC0h ;# 
   785  0000                     # 4692 "C:\Program Files (x86)\Microchip\xc8\v2.00\pic\include\pic18f4520.h"
   786                           ADCON1 equ 0FC1h ;# 
   787  0000                     # 4777 "C:\Program Files (x86)\Microchip\xc8\v2.00\pic\include\pic18f4520.h"
   788                           ADCON0 equ 0FC2h ;# 
   789  0000                     # 4896 "C:\Program Files (x86)\Microchip\xc8\v2.00\pic\include\pic18f4520.h"
   790                           ADRES equ 0FC3h ;# 
   791  0000                     # 4903 "C:\Program Files (x86)\Microchip\xc8\v2.00\pic\include\pic18f4520.h"
   792                           ADRESL equ 0FC3h ;# 
   793  0000                     # 4910 "C:\Program Files (x86)\Microchip\xc8\v2.00\pic\include\pic18f4520.h"
   794                           ADRESH equ 0FC4h ;# 
   795  0000                     # 4917 "C:\Program Files (x86)\Microchip\xc8\v2.00\pic\include\pic18f4520.h"
   796                           SSPCON2 equ 0FC5h ;# 
   797  0000                     # 5012 "C:\Program Files (x86)\Microchip\xc8\v2.00\pic\include\pic18f4520.h"
   798                           SSPCON1 equ 0FC6h ;# 
   799  0000                     # 5082 "C:\Program Files (x86)\Microchip\xc8\v2.00\pic\include\pic18f4520.h"
   800                           SSPSTAT equ 0FC7h ;# 
   801  0000                     # 5303 "C:\Program Files (x86)\Microchip\xc8\v2.00\pic\include\pic18f4520.h"
   802                           SSPADD equ 0FC8h ;# 
   803  0000                     # 5310 "C:\Program Files (x86)\Microchip\xc8\v2.00\pic\include\pic18f4520.h"
   804                           SSPBUF equ 0FC9h ;# 
   805  0000                     # 5317 "C:\Program Files (x86)\Microchip\xc8\v2.00\pic\include\pic18f4520.h"
   806                           T2CON equ 0FCAh ;# 
   807  0000                     # 5415 "C:\Program Files (x86)\Microchip\xc8\v2.00\pic\include\pic18f4520.h"
   808                           PR2 equ 0FCBh ;# 
   809  0000                     # 5420 "C:\Program Files (x86)\Microchip\xc8\v2.00\pic\include\pic18f4520.h"
   810                           MEMCON equ 0FCBh ;# 
   811  0000                     # 5525 "C:\Program Files (x86)\Microchip\xc8\v2.00\pic\include\pic18f4520.h"
   812                           TMR2 equ 0FCCh ;# 
   813  0000                     # 5532 "C:\Program Files (x86)\Microchip\xc8\v2.00\pic\include\pic18f4520.h"
   814                           T1CON equ 0FCDh ;# 
   815  0000                     # 5635 "C:\Program Files (x86)\Microchip\xc8\v2.00\pic\include\pic18f4520.h"
   816                           TMR1 equ 0FCEh ;# 
   817  0000                     # 5642 "C:\Program Files (x86)\Microchip\xc8\v2.00\pic\include\pic18f4520.h"
   818                           TMR1L equ 0FCEh ;# 
   819  0000                     # 5649 "C:\Program Files (x86)\Microchip\xc8\v2.00\pic\include\pic18f4520.h"
   820                           TMR1H equ 0FCFh ;# 
   821  0000                     # 5656 "C:\Program Files (x86)\Microchip\xc8\v2.00\pic\include\pic18f4520.h"
   822                           RCON equ 0FD0h ;# 
   823  0000                     # 5789 "C:\Program Files (x86)\Microchip\xc8\v2.00\pic\include\pic18f4520.h"
   824                           WDTCON equ 0FD1h ;# 
   825  0000                     # 5817 "C:\Program Files (x86)\Microchip\xc8\v2.00\pic\include\pic18f4520.h"
   826                           HLVDCON equ 0FD2h ;# 
   827  0000                     # 5822 "C:\Program Files (x86)\Microchip\xc8\v2.00\pic\include\pic18f4520.h"
   828                           LVDCON equ 0FD2h ;# 
   829  0000                     # 6087 "C:\Program Files (x86)\Microchip\xc8\v2.00\pic\include\pic18f4520.h"
   830                           OSCCON equ 0FD3h ;# 
   831  0000                     # 6170 "C:\Program Files (x86)\Microchip\xc8\v2.00\pic\include\pic18f4520.h"
   832                           T0CON equ 0FD5h ;# 
   833  0000                     # 6253 "C:\Program Files (x86)\Microchip\xc8\v2.00\pic\include\pic18f4520.h"
   834                           TMR0 equ 0FD6h ;# 
   835  0000                     # 6260 "C:\Program Files (x86)\Microchip\xc8\v2.00\pic\include\pic18f4520.h"
   836                           TMR0L equ 0FD6h ;# 
   837  0000                     # 6267 "C:\Program Files (x86)\Microchip\xc8\v2.00\pic\include\pic18f4520.h"
   838                           TMR0H equ 0FD7h ;# 
   839  0000                     # 6274 "C:\Program Files (x86)\Microchip\xc8\v2.00\pic\include\pic18f4520.h"
   840                           STATUS equ 0FD8h ;# 
   841  0000                     # 6345 "C:\Program Files (x86)\Microchip\xc8\v2.00\pic\include\pic18f4520.h"
   842                           FSR2 equ 0FD9h ;# 
   843  0000                     # 6352 "C:\Program Files (x86)\Microchip\xc8\v2.00\pic\include\pic18f4520.h"
   844                           FSR2L equ 0FD9h ;# 
   845  0000                     # 6359 "C:\Program Files (x86)\Microchip\xc8\v2.00\pic\include\pic18f4520.h"
   846                           FSR2H equ 0FDAh ;# 
   847  0000                     # 6366 "C:\Program Files (x86)\Microchip\xc8\v2.00\pic\include\pic18f4520.h"
   848                           PLUSW2 equ 0FDBh ;# 
   849  0000                     # 6373 "C:\Program Files (x86)\Microchip\xc8\v2.00\pic\include\pic18f4520.h"
   850                           PREINC2 equ 0FDCh ;# 
   851  0000                     # 6380 "C:\Program Files (x86)\Microchip\xc8\v2.00\pic\include\pic18f4520.h"
   852                           POSTDEC2 equ 0FDDh ;# 
   853  0000                     # 6387 "C:\Program Files (x86)\Microchip\xc8\v2.00\pic\include\pic18f4520.h"
   854                           POSTINC2 equ 0FDEh ;# 
   855  0000                     # 6394 "C:\Program Files (x86)\Microchip\xc8\v2.00\pic\include\pic18f4520.h"
   856                           INDF2 equ 0FDFh ;# 
   857  0000                     # 6401 "C:\Program Files (x86)\Microchip\xc8\v2.00\pic\include\pic18f4520.h"
   858                           BSR equ 0FE0h ;# 
   859  0000                     # 6408 "C:\Program Files (x86)\Microchip\xc8\v2.00\pic\include\pic18f4520.h"
   860                           FSR1 equ 0FE1h ;# 
   861  0000                     # 6415 "C:\Program Files (x86)\Microchip\xc8\v2.00\pic\include\pic18f4520.h"
   862                           FSR1L equ 0FE1h ;# 
   863  0000                     # 6422 "C:\Program Files (x86)\Microchip\xc8\v2.00\pic\include\pic18f4520.h"
   864                           FSR1H equ 0FE2h ;# 
   865  0000                     # 6429 "C:\Program Files (x86)\Microchip\xc8\v2.00\pic\include\pic18f4520.h"
   866                           PLUSW1 equ 0FE3h ;# 
   867  0000                     # 6436 "C:\Program Files (x86)\Microchip\xc8\v2.00\pic\include\pic18f4520.h"
   868                           PREINC1 equ 0FE4h ;# 
   869  0000                     # 6443 "C:\Program Files (x86)\Microchip\xc8\v2.00\pic\include\pic18f4520.h"
   870                           POSTDEC1 equ 0FE5h ;# 
   871  0000                     # 6450 "C:\Program Files (x86)\Microchip\xc8\v2.00\pic\include\pic18f4520.h"
   872                           POSTINC1 equ 0FE6h ;# 
   873  0000                     # 6457 "C:\Program Files (x86)\Microchip\xc8\v2.00\pic\include\pic18f4520.h"
   874                           INDF1 equ 0FE7h ;# 
   875  0000                     # 6464 "C:\Program Files (x86)\Microchip\xc8\v2.00\pic\include\pic18f4520.h"
   876                           WREG equ 0FE8h ;# 
   877  0000                     # 6476 "C:\Program Files (x86)\Microchip\xc8\v2.00\pic\include\pic18f4520.h"
   878                           FSR0 equ 0FE9h ;# 
   879  0000                     # 6483 "C:\Program Files (x86)\Microchip\xc8\v2.00\pic\include\pic18f4520.h"
   880                           FSR0L equ 0FE9h ;# 
   881  0000                     # 6490 "C:\Program Files (x86)\Microchip\xc8\v2.00\pic\include\pic18f4520.h"
   882                           FSR0H equ 0FEAh ;# 
   883  0000                     # 6497 "C:\Program Files (x86)\Microchip\xc8\v2.00\pic\include\pic18f4520.h"
   884                           PLUSW0 equ 0FEBh ;# 
   885  0000                     # 6504 "C:\Program Files (x86)\Microchip\xc8\v2.00\pic\include\pic18f4520.h"
   886                           PREINC0 equ 0FECh ;# 
   887  0000                     # 6511 "C:\Program Files (x86)\Microchip\xc8\v2.00\pic\include\pic18f4520.h"
   888                           POSTDEC0 equ 0FEDh ;# 
   889  0000                     # 6518 "C:\Program Files (x86)\Microchip\xc8\v2.00\pic\include\pic18f4520.h"
   890                           POSTINC0 equ 0FEEh ;# 
   891  0000                     # 6525 "C:\Program Files (x86)\Microchip\xc8\v2.00\pic\include\pic18f4520.h"
   892                           INDF0 equ 0FEFh ;# 
   893  0000                     # 6532 "C:\Program Files (x86)\Microchip\xc8\v2.00\pic\include\pic18f4520.h"
   894                           INTCON3 equ 0FF0h ;# 
   895  0000                     # 6624 "C:\Program Files (x86)\Microchip\xc8\v2.00\pic\include\pic18f4520.h"
   896                           INTCON2 equ 0FF1h ;# 
   897  0000                     # 6694 "C:\Program Files (x86)\Microchip\xc8\v2.00\pic\include\pic18f4520.h"
   898                           INTCON equ 0FF2h ;# 
   899  0000                     # 6811 "C:\Program Files (x86)\Microchip\xc8\v2.00\pic\include\pic18f4520.h"
   900                           PROD equ 0FF3h ;# 
   901  0000                     # 6818 "C:\Program Files (x86)\Microchip\xc8\v2.00\pic\include\pic18f4520.h"
   902                           PRODL equ 0FF3h ;# 
   903  0000                     # 6825 "C:\Program Files (x86)\Microchip\xc8\v2.00\pic\include\pic18f4520.h"
   904                           PRODH equ 0FF4h ;# 
   905  0000                     # 6832 "C:\Program Files (x86)\Microchip\xc8\v2.00\pic\include\pic18f4520.h"
   906                           TABLAT equ 0FF5h ;# 
   907  0000                     # 6841 "C:\Program Files (x86)\Microchip\xc8\v2.00\pic\include\pic18f4520.h"
   908                           TBLPTR equ 0FF6h ;# 
   909  0000                     # 6848 "C:\Program Files (x86)\Microchip\xc8\v2.00\pic\include\pic18f4520.h"
   910                           TBLPTRL equ 0FF6h ;# 
   911  0000                     # 6855 "C:\Program Files (x86)\Microchip\xc8\v2.00\pic\include\pic18f4520.h"
   912                           TBLPTRH equ 0FF7h ;# 
   913  0000                     # 6862 "C:\Program Files (x86)\Microchip\xc8\v2.00\pic\include\pic18f4520.h"
   914                           TBLPTRU equ 0FF8h ;# 
   915  0000                     # 6871 "C:\Program Files (x86)\Microchip\xc8\v2.00\pic\include\pic18f4520.h"
   916                           PCLAT equ 0FF9h ;# 
   917  0000                     # 6878 "C:\Program Files (x86)\Microchip\xc8\v2.00\pic\include\pic18f4520.h"
   918                           PC equ 0FF9h ;# 
   919  0000                     # 6885 "C:\Program Files (x86)\Microchip\xc8\v2.00\pic\include\pic18f4520.h"
   920                           PCL equ 0FF9h ;# 
   921  0000                     # 6892 "C:\Program Files (x86)\Microchip\xc8\v2.00\pic\include\pic18f4520.h"
   922                           PCLATH equ 0FFAh ;# 
   923  0000                     # 6899 "C:\Program Files (x86)\Microchip\xc8\v2.00\pic\include\pic18f4520.h"
   924                           PCLATU equ 0FFBh ;# 
   925  0000                     # 6906 "C:\Program Files (x86)\Microchip\xc8\v2.00\pic\include\pic18f4520.h"
   926                           STKPTR equ 0FFCh ;# 
   927  0000                     # 6980 "C:\Program Files (x86)\Microchip\xc8\v2.00\pic\include\pic18f4520.h"
   928                           TOS equ 0FFDh ;# 
   929  0000                     # 6987 "C:\Program Files (x86)\Microchip\xc8\v2.00\pic\include\pic18f4520.h"
   930                           TOSL equ 0FFDh ;# 
   931  0000                     # 6994 "C:\Program Files (x86)\Microchip\xc8\v2.00\pic\include\pic18f4520.h"
   932                           TOSH equ 0FFEh ;# 
   933  0000                     # 7001 "C:\Program Files (x86)\Microchip\xc8\v2.00\pic\include\pic18f4520.h"
   934                           TOSU equ 0FFFh ;# 
   935  0000                     	FNCALL	_main,_Frequency_Count
   936                           	FNCALL	_main,_MapRGB
   937                           	FNCALL	_main,_OSCILLATOR_Initialize
   938                           	FNCALL	_main,_Timer_Init
   939                           	FNCALL	_main,_USART_Init
   940                           	FNCALL	_main,_USART_SendString
   941                           	FNCALL	_main,_USART_TxChar
   942                           	FNCALL	_main,_buzz
   943                           	FNCALL	_main,_memset
   944                           	FNCALL	_main,_sprintf
   945                           	FNCALL	_sprintf,_vfprintf
   946                           	FNCALL	_vfprintf,_vfpfcnvrt
   947                           	FNCALL	_vfpfcnvrt,_dtoa
   948                           	FNCALL	_vfpfcnvrt,_fputc
   949                           	FNCALL	_dtoa,___aodiv
   950                           	FNCALL	_dtoa,___aomod
   951                           	FNCALL	_dtoa,_abs
   952                           	FNCALL	_dtoa,_pad
   953                           	FNCALL	_pad,_fputc
   954                           	FNCALL	_pad,_fputs
   955                           	FNCALL	_pad,_strlen
   956                           	FNCALL	_fputs,_fputc
   957                           	FNCALL	_fputc,_putch
   958                           	FNCALL	_buzz,_MSdelay
   959                           	FNCALL	_buzz,_init_buzzer
   960                           	FNCALL	_USART_SendString,_USART_TxChar
   961                           	FNCALL	_USART_Init,___fladd
   962                           	FNCALL	_USART_Init,___fldiv
   963                           	FNCALL	_USART_Init,___fltol
   964                           	FNCALL	_USART_Init,___xxtofl
   965                           	FNCALL	_MapRGB,___fldiv
   966                           	FNCALL	_MapRGB,___flmul
   967                           	FNCALL	_MapRGB,___fltol
   968                           	FNCALL	_MapRGB,___xxtofl
   969                           	FNCALL	_Frequency_Count,_MSdelay
   970                           	FNCALL	_Frequency_Count,___lmul
   971                           	FNROOT	_main
   972                           	FNCALL	intlevel2,_Hi_ISR
   973                           	global	intlevel2
   974                           	FNROOT	intlevel2
   975                           	global	_nout
   976                           	global	_width
   977                           	global	_prec
   978                           	global	_flags
   979                           	global	_B
   980                           	global	_G
   981                           	global	_overflow_count
   982                           	global	_half_cyc
   983                           	global	_dbuf
   984                           	global	_R
   985                           psect	nvBANK0,class=BANK0,space=1,noexec,lowdata
   986                           global __pnvBANK0
   987                           __pnvBANK0:
   988  0000B0                     	global	_R
   989                           _R:
   990  0000B0                            ds      2
   991  0000B0                     	global	_TMR0
   992                           _TMR0	set	0xFD6
   993  0000                     	global	_TMR1
   994                           _TMR1	set	0xFCE
   995  0000                     	global	_CCPR2
   996                           _CCPR2	set	0xFBB
   997  0000                     	global	_RCREG
   998                           _RCREG	set	0xFAE
   999  0000                     	global	_TXREG
  1000                           _TXREG	set	0xFAD
  1001  0000                     	global	_RCSTA
  1002                           _RCSTA	set	0xFAB
  1003  0000                     	global	_TXSTA
  1004                           _TXSTA	set	0xFAC
  1005  0000                     	global	_SPBRG
  1006                           _SPBRG	set	0xFAF
  1007  0000                     	global	_T0CONbits
  1008                           _T0CONbits	set	0xFD5
  1009  0000                     	global	_RCON
  1010                           _RCON	set	0xFD0
  1011  0000                     	global	_T0CON
  1012                           _T0CON	set	0xFD5
  1013  0000                     	global	_TRISAbits
  1014                           _TRISAbits	set	0xF92
  1015  0000                     	global	_INTCONbits
  1016                           _INTCONbits	set	0xFF2
  1017  0000                     	global	_LATD
  1018                           _LATD	set	0xF8C
  1019  0000                     	global	_TRISDbits
  1020                           _TRISDbits	set	0xF95
  1021  0000                     	global	_OSCCON
  1022                           _OSCCON	set	0xFD3
  1023  0000                     	global	_PIE2bits
  1024                           _PIE2bits	set	0xFA0
  1025  0000                     	global	_PIR2bits
  1026                           _PIR2bits	set	0xFA1
  1027  0000                     	global	_IPR2bits
  1028                           _IPR2bits	set	0xFA2
  1029  0000                     	global	_CCP2CON
  1030                           _CCP2CON	set	0xFBA
  1031  0000                     	global	_T1CON
  1032                           _T1CON	set	0xFCD
  1033  0000                     	global	_T3CON
  1034                           _T3CON	set	0xFB1
  1035  0000                     	global	_TRISCbits
  1036                           _TRISCbits	set	0xF94
  1037  0000                     	global	_RCIF
  1038                           _RCIF	set	0x7CF5
  1039  0000                     	global	_TXIF
  1040                           _TXIF	set	0x7CF4
  1041  0000                     	global	_TRISC7
  1042                           _TRISC7	set	0x7CA7
  1043  0000                     	global	_TRISC6
  1044                           _TRISC6	set	0x7CA6
  1045  0000                     	global	_IRCF0
  1046                           _IRCF0	set	0x7E9C
  1047  0000                     	global	_IRCF1
  1048                           _IRCF1	set	0x7E9D
  1049  0000                     	global	_IRCF2
  1050                           _IRCF2	set	0x7E9E
  1051  0000                     	global	_TMR0IE
  1052                           _TMR0IE	set	0x7F95
  1053  0000                     	global	_TMR0IF
  1054                           _TMR0IF	set	0x7F92
  1055  0000                     psect	smallconst,class=SMALLCONST,space=0,reloc=2,noexec
  1056                           global __psmallconst
  1057                           __psmallconst:
  1058  000600                     	db	0
  1059  000600  00                 	
  1060                           STR_9:
  1061  000601                     	db	77	;'M'
  1062  000601  4D                 	db	97	;'a'
  1063  000602  61                 	db	103	;'g'
  1064  000603  67                 	db	101	;'e'
  1065  000604  65                 	db	110	;'n'
  1066  000605  6E                 	db	116	;'t'
  1067  000606  74                 	db	97	;'a'
  1068  000607  61                 	db	0
  1069  000608  00                 	
  1070                           STR_10:
  1071  000609                     	db	89	;'Y'
  1072  000609  59                 	db	101	;'e'
  1073  00060A  65                 	db	108	;'l'
  1074  00060B  6C                 	db	108	;'l'
  1075  00060C  6C                 	db	111	;'o'
  1076  00060D  6F                 	db	119	;'w'
  1077  00060E  77                 	db	0
  1078  00060F  00                 	
  1079                           STR_1:
  1080  000610                     	db	32
  1081  000610  20                 	db	37
  1082  000611  25                 	db	100	;'d'
  1083  000612  64                 	db	32
  1084  000613  20                 	db	32
  1085  000614  20                 	db	32
  1086  000615  20                 	db	0
  1087  000616  00                 	
  1088                           STR_11:
  1089  000617                     	db	87	;'W'
  1090  000617  57                 	db	104	;'h'
  1091  000618  68                 	db	105	;'i'
  1092  000619  69                 	db	116	;'t'
  1093  00061A  74                 	db	101	;'e'
  1094  00061B  65                 	db	0
  1095  00061C  00                 	
  1096                           STR_4:
  1097  00061D                     	db	66	;'B'
  1098  00061D  42                 	db	108	;'l'
  1099  00061E  6C                 	db	97	;'a'
  1100  00061F  61                 	db	99	;'c'
  1101  000620  63                 	db	107	;'k'
  1102  000621  6B                 	db	0
  1103  000622  00                 	
  1104                           STR_2:
  1105  000623                     	db	32
  1106  000623  20                 	db	37
  1107  000624  25                 	db	100	;'d'
  1108  000625  64                 	db	32
  1109  000626  20                 	db	32
  1110  000627  20                 	db	0
  1111  000628  00                 	
  1112                           STR_6:
  1113  000629                     	db	76	;'L'
  1114  000629  4C                 	db	105	;'i'
  1115  00062A  69                 	db	109	;'m'
  1116  00062B  6D                 	db	101	;'e'
  1117  00062C  65                 	db	0
  1118  00062D  00                 	
  1119                           STR_5:
  1120  00062E                     	db	66	;'B'
  1121  00062E  42                 	db	108	;'l'
  1122  00062F  6C                 	db	117	;'u'
  1123  000630  75                 	db	101	;'e'
  1124  000631  65                 	db	0
  1125  000632  00                 	
  1126                           STR_7:
  1127  000633                     	db	67	;'C'
  1128  000633  43                 	db	121	;'y'
  1129  000634  79                 	db	97	;'a'
  1130  000635  61                 	db	110	;'n'
  1131  000636  6E                 	db	0
  1132  000637  00                 	
  1133                           STR_8:
  1134  000638                     	db	82	;'R'
  1135  000638  52                 	db	101	;'e'
  1136  000639  65                 	db	100	;'d'
  1137  00063A  64                 	db	0
  1138  00063B  00                 STR_3	equ	STR_1+1
  1139  0000                     ; #config settings
  1140                           global __CFG_OSC$INTIO67
  1141                           __CFG_OSC$INTIO67 equ 0x0
  1142  0000                     global __CFG_FCMEN$OFF
  1143                           __CFG_FCMEN$OFF equ 0x0
  1144  0000                     global __CFG_IESO$OFF
  1145                           __CFG_IESO$OFF equ 0x0
  1146  0000                     global __CFG_PWRT$OFF
  1147                           __CFG_PWRT$OFF equ 0x0
  1148  0000                     global __CFG_BOREN$SBORDIS
  1149                           __CFG_BOREN$SBORDIS equ 0x0
  1150  0000                     global __CFG_BORV$3
  1151                           __CFG_BORV$3 equ 0x0
  1152  0000                     global __CFG_WDT$OFF
  1153                           __CFG_WDT$OFF equ 0x0
  1154  0000                     global __CFG_WDTPS$32768
  1155                           __CFG_WDTPS$32768 equ 0x0
  1156  0000                     global __CFG_CCP2MX$PORTC
  1157                           __CFG_CCP2MX$PORTC equ 0x0
  1158  0000                     global __CFG_PBADEN$ON
  1159                           __CFG_PBADEN$ON equ 0x0
  1160  0000                     global __CFG_LPT1OSC$OFF
  1161                           __CFG_LPT1OSC$OFF equ 0x0
  1162  0000                     global __CFG_MCLRE$ON
  1163                           __CFG_MCLRE$ON equ 0x0
  1164  0000                     global __CFG_STVREN$ON
  1165                           __CFG_STVREN$ON equ 0x0
  1166  0000                     global __CFG_LVP$OFF
  1167                           __CFG_LVP$OFF equ 0x0
  1168  0000                     global __CFG_XINST$OFF
  1169                           __CFG_XINST$OFF equ 0x0
  1170  0000                     global __CFG_CP0$OFF
  1171                           __CFG_CP0$OFF equ 0x0
  1172  0000                     global __CFG_CP1$OFF
  1173                           __CFG_CP1$OFF equ 0x0
  1174  0000                     global __CFG_CP2$OFF
  1175                           __CFG_CP2$OFF equ 0x0
  1176  0000                     global __CFG_CP3$OFF
  1177                           __CFG_CP3$OFF equ 0x0
  1178  0000                     global __CFG_CPB$OFF
  1179                           __CFG_CPB$OFF equ 0x0
  1180  0000                     global __CFG_CPD$OFF
  1181                           __CFG_CPD$OFF equ 0x0
  1182  0000                     global __CFG_WRT0$OFF
  1183                           __CFG_WRT0$OFF equ 0x0
  1184  0000                     global __CFG_WRT1$OFF
  1185                           __CFG_WRT1$OFF equ 0x0
  1186  0000                     global __CFG_WRT2$OFF
  1187                           __CFG_WRT2$OFF equ 0x0
  1188  0000                     global __CFG_WRT3$OFF
  1189                           __CFG_WRT3$OFF equ 0x0
  1190  0000                     global __CFG_WRTC$OFF
  1191                           __CFG_WRTC$OFF equ 0x0
  1192  0000                     global __CFG_WRTB$OFF
  1193                           __CFG_WRTB$OFF equ 0x0
  1194  0000                     global __CFG_WRTD$OFF
  1195                           __CFG_WRTD$OFF equ 0x0
  1196  0000                     global __CFG_EBTR0$OFF
  1197                           __CFG_EBTR0$OFF equ 0x0
  1198  0000                     global __CFG_EBTR1$OFF
  1199                           __CFG_EBTR1$OFF equ 0x0
  1200  0000                     global __CFG_EBTR2$OFF
  1201                           __CFG_EBTR2$OFF equ 0x0
  1202  0000                     global __CFG_EBTR3$OFF
  1203                           __CFG_EBTR3$OFF equ 0x0
  1204  0000                     global __CFG_EBTRB$OFF
  1205                           __CFG_EBTRB$OFF equ 0x0
  1206  0000                     	file	"C:\Users\user\AppData\Local\Temp\sb6g."
  1207                           	line	#
  1208                           psect	cinit,class=CODE,delta=1,reloc=2
  1209                           global __pcinit
  1210                           __pcinit:
  1211  002FF2                     global start_initialization
  1212                           start_initialization:
  1213  002FF2                     
  1214                           global __initialization
  1215                           __initialization:
  1216  002FF2                     psect	bssBANK0,class=BANK0,space=1,noexec,lowdata
  1217                           global __pbssBANK0
  1218                           __pbssBANK0:
  1219  000080                     _nout:
  1220  000080                            ds      2
  1221  000080                     _width:
  1222  000082                            ds      2
  1223  000082                     _prec:
  1224  000084                            ds      2
  1225  000084                     _flags:
  1226  000086                            ds      2
  1227  000086                     	global	_B
  1228                           _B:
  1229  000088                            ds      2
  1230  000088                     	global	_G
  1231                           _G:
  1232  00008A                            ds      2
  1233  00008A                     	global	_overflow_count
  1234                           _overflow_count:
  1235  00008C                            ds      2
  1236  00008C                     	global	_half_cyc
  1237                           _half_cyc:
  1238  00008E                            ds      2
  1239  00008E                     _dbuf:
  1240  000090                            ds      32
  1241  000090                     	file	"C:\Users\user\AppData\Local\Temp\sb6g."
  1242                           	line	#
  1243                           psect	cinit
  1244                           ; Clear objects allocated to BANK0 (48 bytes)
  1245                           	global __pbssBANK0
  1246                           lfsr	0,__pbssBANK0
  1247  002FF2  EE00  F080         movlw	48
  1248  002FF6  0E30               clear_0:
  1249  002FF8                     clrf	postinc0,c
  1250  002FF8  6AEE               decf	wreg
  1251  002FFA  06E8               bnz	clear_0
  1252  002FFC  E1FD               psect cinit,class=CODE,delta=1
  1253                           global end_of_initialization,__end_of__initialization
  1254                           
  1255                           ;End of C runtime variable initialization code
  1256                           
  1257                           end_of_initialization:
  1258  002FFE                     __end_of__initialization:
  1259  002FFE                     	bcf int$flags,0,c ;clear compiler interrupt flag (level 1)
  1260  002FFE  907E               	bcf int$flags,1,c ;clear compiler interrupt flag (level 2)
  1261  003000  927E               	GLOBAL	__Lmediumconst
  1262                           	movlw	low highword(__Lmediumconst)
  1263  003002  0E00               	movwf	tblptru
  1264  003004  6EF8               movlb 0
  1265  003006  0100               goto _main	;jump to C main() function
  1266  003008  EF3C  F00E         psect	cstackCOMRAM,class=COMRAM,space=1,noexec
  1267                           global __pcstackCOMRAM
  1268                           __pcstackCOMRAM:
  1269  000001                     ?_init_buzzer:	; 1 bytes @ 0x0
  1270  000001                     ??_init_buzzer:	; 1 bytes @ 0x0
  1271  000001                     ?_MSdelay:	; 1 bytes @ 0x0
  1272  000001                     ?_Timer_Init:	; 1 bytes @ 0x0
  1273  000001                     ??_Timer_Init:	; 1 bytes @ 0x0
  1274  000001                     ?_OSCILLATOR_Initialize:	; 1 bytes @ 0x0
  1275  000001                     ??_OSCILLATOR_Initialize:	; 1 bytes @ 0x0
  1276  000001                     ?_USART_TxChar:	; 1 bytes @ 0x0
  1277  000001                     ??_USART_TxChar:	; 1 bytes @ 0x0
  1278  000001                     ?_putch:	; 1 bytes @ 0x0
  1279  000001                     ??_putch:	; 1 bytes @ 0x0
  1280  000001                     ?_main:	; 1 bytes @ 0x0
  1281  000001                     ?_Hi_ISR:	; 1 bytes @ 0x0
  1282  000001                     ??_Hi_ISR:	; 1 bytes @ 0x0
  1283  000001                     ?_memset:	; 2 bytes @ 0x0
  1284  000001                     ?_fputc:	; 2 bytes @ 0x0
  1285  000001                     	global	?_strlen
  1286                           ?_strlen:	; 2 bytes @ 0x0
  1287  000001                     	global	?___lmul
  1288                           ?___lmul:	; 4 bytes @ 0x0
  1289  000001                     	global	?___xxtofl
  1290                           ?___xxtofl:	; 4 bytes @ 0x0
  1291  000001                     	global	?___aodiv
  1292                           ?___aodiv:	; 8 bytes @ 0x0
  1293  000001                     	global	?___aomod
  1294                           ?___aomod:	; 8 bytes @ 0x0
  1295  000001                     	global	USART_TxChar@out
  1296                           USART_TxChar@out:	; 1 bytes @ 0x0
  1297  000001                     putch@c:	; 1 bytes @ 0x0
  1298  000001                     	global	MSdelay@val
  1299                           MSdelay@val:	; 2 bytes @ 0x0
  1300  000001                     	global	memset@dest
  1301                           memset@dest:	; 2 bytes @ 0x0
  1302  000001                     	global	fputc@c
  1303                           fputc@c:	; 2 bytes @ 0x0
  1304  000001                     	global	strlen@s
  1305                           strlen@s:	; 2 bytes @ 0x0
  1306  000001                     	global	___lmul@multiplier
  1307                           ___lmul@multiplier:	; 4 bytes @ 0x0
  1308  000001                     	global	___xxtofl@val
  1309                           ___xxtofl@val:	; 4 bytes @ 0x0
  1310  000001                     	global	___aodiv@dividend
  1311                           ___aodiv@dividend:	; 8 bytes @ 0x0
  1312  000001                     	global	___aomod@dividend
  1313                           ___aomod@dividend:	; 8 bytes @ 0x0
  1314  000001                     	ds   1
  1315  000001                     ?_USART_SendString:	; 1 bytes @ 0x1
  1316  000002                     	global	USART_SendString@out
  1317                           USART_SendString@out:	; 2 bytes @ 0x1
  1318  000002                     	ds   1
  1319  000002                     ??_MSdelay:	; 1 bytes @ 0x2
  1320  000003                     ??_strlen:	; 1 bytes @ 0x2
  1321  000003                     	global	MSdelay@i
  1322                           MSdelay@i:	; 2 bytes @ 0x2
  1323  000003                     	global	memset@c
  1324                           memset@c:	; 2 bytes @ 0x2
  1325  000003                     	global	fputc@fp
  1326                           fputc@fp:	; 2 bytes @ 0x2
  1327  000003                     	ds   1
  1328  000003                     ??_USART_SendString:	; 1 bytes @ 0x3
  1329  000004                     	ds   1
  1330  000004                     ??_fputc:	; 1 bytes @ 0x4
  1331  000005                     ??___xxtofl:	; 1 bytes @ 0x4
  1332  000005                     	global	MSdelay@j
  1333                           MSdelay@j:	; 2 bytes @ 0x4
  1334  000005                     	global	memset@n
  1335                           memset@n:	; 2 bytes @ 0x4
  1336  000005                     	global	strlen@a
  1337                           strlen@a:	; 2 bytes @ 0x4
  1338  000005                     	global	___lmul@multiplicand
  1339                           ___lmul@multiplicand:	; 4 bytes @ 0x4
  1340  000005                     	ds   2
  1341  000005                     ??_memset:	; 1 bytes @ 0x6
  1342  000007                     ?_buzz:	; 1 bytes @ 0x6
  1343  000007                     	global	buzz@red
  1344                           buzz@red:	; 2 bytes @ 0x6
  1345  000007                     	ds   2
  1346  000007                     ??___lmul:	; 1 bytes @ 0x8
  1347  000009                     	global	___xxtofl@sign
  1348                           ___xxtofl@sign:	; 1 bytes @ 0x8
  1349  000009                     	global	buzz@green
  1350                           buzz@green:	; 2 bytes @ 0x8
  1351  000009                     	global	___lmul@product
  1352                           ___lmul@product:	; 4 bytes @ 0x8
  1353  000009                     	global	___aodiv@divisor
  1354                           ___aodiv@divisor:	; 8 bytes @ 0x8
  1355  000009                     	global	___aomod@divisor
  1356                           ___aomod@divisor:	; 8 bytes @ 0x8
  1357  000009                     	ds   1
  1358  000009                     ?_fputs:	; 2 bytes @ 0x9
  1359  00000A                     	global	___xxtofl@exp
  1360                           ___xxtofl@exp:	; 1 bytes @ 0x9
  1361  00000A                     	global	fputs@s
  1362                           fputs@s:	; 2 bytes @ 0x9
  1363  00000A                     	ds   1
  1364  00000A                     	global	buzz@blue
  1365                           buzz@blue:	; 2 bytes @ 0xA
  1366  00000B                     	global	memset@k
  1367                           memset@k:	; 2 bytes @ 0xA
  1368  00000B                     	global	___xxtofl@arg
  1369                           ___xxtofl@arg:	; 4 bytes @ 0xA
  1370  00000B                     	ds   1
  1371  00000B                     	global	fputs@fp
  1372                           fputs@fp:	; 2 bytes @ 0xB
  1373  00000C                     	ds   1
  1374  00000C                     ??_buzz:	; 1 bytes @ 0xC
  1375  00000D                     	global	?_Frequency_Count
  1376                           ?_Frequency_Count:	; 4 bytes @ 0xC
  1377  00000D                     	global	memset@s
  1378                           memset@s:	; 2 bytes @ 0xC
  1379  00000D                     	ds   1
  1380  00000D                     ??_fputs:	; 1 bytes @ 0xD
  1381  00000E                     	global	fputs@c
  1382                           fputs@c:	; 1 bytes @ 0xD
  1383  00000E                     	ds   1
  1384  00000E                     	global	?___fldiv
  1385                           ?___fldiv:	; 4 bytes @ 0xE
  1386  00000F                     	global	fputs@i
  1387                           fputs@i:	; 2 bytes @ 0xE
  1388  00000F                     	global	___fldiv@b
  1389                           ___fldiv@b:	; 4 bytes @ 0xE
  1390  00000F                     	ds   2
  1391  00000F                     ??_Frequency_Count:	; 1 bytes @ 0x10
  1392  000011                     ??___aodiv:	; 1 bytes @ 0x10
  1393  000011                     ??___aomod:	; 1 bytes @ 0x10
  1394  000011                     	global	?_pad
  1395                           ?_pad:	; 2 bytes @ 0x10
  1396  000011                     	global	___aodiv@counter
  1397                           ___aodiv@counter:	; 1 bytes @ 0x10
  1398  000011                     	global	___aomod@counter
  1399                           ___aomod@counter:	; 1 bytes @ 0x10
  1400  000011                     	global	pad@fp
  1401                           pad@fp:	; 2 bytes @ 0x10
  1402  000011                     	ds   1
  1403  000011                     	global	___aodiv@sign
  1404                           ___aodiv@sign:	; 1 bytes @ 0x11
  1405  000012                     	global	___aomod@sign
  1406                           ___aomod@sign:	; 1 bytes @ 0x11
  1407  000012                     	ds   1
  1408  000012                     	global	?_abs
  1409                           ?_abs:	; 2 bytes @ 0x12
  1410  000013                     	global	pad@buf
  1411                           pad@buf:	; 2 bytes @ 0x12
  1412  000013                     	global	abs@a
  1413                           abs@a:	; 2 bytes @ 0x12
  1414  000013                     	global	___fldiv@a
  1415                           ___fldiv@a:	; 4 bytes @ 0x12
  1416  000013                     	global	___aodiv@quotient
  1417                           ___aodiv@quotient:	; 8 bytes @ 0x12
  1418  000013                     	ds   2
  1419  000013                     ??_abs:	; 1 bytes @ 0x14
  1420  000015                     	global	pad@p
  1421                           pad@p:	; 2 bytes @ 0x14
  1422  000015                     	global	Frequency_Count@count
  1423                           Frequency_Count@count:	; 4 bytes @ 0x14
  1424  000015                     	ds   2
  1425  000015                     ??___fldiv:	; 1 bytes @ 0x16
  1426  000017                     ??_pad:	; 1 bytes @ 0x16
  1427  000017                     	ds   1
  1428  000017                     	global	pad@i
  1429                           pad@i:	; 2 bytes @ 0x17
  1430  000018                     	ds   2
  1431  000018                     	global	pad@w
  1432                           pad@w:	; 2 bytes @ 0x19
  1433  00001A                     	ds   1
  1434  00001A                     	global	___fldiv@rem
  1435                           ___fldiv@rem:	; 4 bytes @ 0x1A
  1436  00001B                     	ds   1
  1437  00001B                     	global	?_dtoa
  1438                           ?_dtoa:	; 2 bytes @ 0x1B
  1439  00001C                     	global	dtoa@fp
  1440                           dtoa@fp:	; 2 bytes @ 0x1B
  1441  00001C                     	ds   2
  1442  00001C                     	global	dtoa@d
  1443                           dtoa@d:	; 8 bytes @ 0x1D
  1444  00001E                     	ds   1
  1445  00001E                     	global	___fldiv@sign
  1446                           ___fldiv@sign:	; 1 bytes @ 0x1E
  1447  00001F                     	ds   1
  1448  00001F                     	global	___fldiv@new_exp
  1449                           ___fldiv@new_exp:	; 2 bytes @ 0x1F
  1450  000020                     	ds   2
  1451  000020                     	global	___fldiv@grs
  1452                           ___fldiv@grs:	; 4 bytes @ 0x21
  1453  000022                     	ds   4
  1454  000022                     ??_dtoa:	; 1 bytes @ 0x25
  1455  000026                     	global	___fldiv@bexp
  1456                           ___fldiv@bexp:	; 1 bytes @ 0x25
  1457  000026                     	ds   1
  1458  000026                     	global	___fldiv@aexp
  1459                           ___fldiv@aexp:	; 1 bytes @ 0x26
  1460  000027                     	ds   1
  1461  000027                     	global	?___fladd
  1462                           ?___fladd:	; 4 bytes @ 0x27
  1463  000028                     	global	?___flmul
  1464                           ?___flmul:	; 4 bytes @ 0x27
  1465  000028                     	global	___fladd@b
  1466                           ___fladd@b:	; 4 bytes @ 0x27
  1467  000028                     	global	___flmul@b
  1468                           ___flmul@b:	; 4 bytes @ 0x27
  1469  000028                     	ds   4
  1470  000028                     	global	___fladd@a
  1471                           ___fladd@a:	; 4 bytes @ 0x2B
  1472  00002C                     	global	___flmul@a
  1473                           ___flmul@a:	; 4 bytes @ 0x2B
  1474  00002C                     	ds   2
  1475  00002C                     	global	_dtoa$588
  1476                           _dtoa$588:	; 2 bytes @ 0x2D
  1477  00002E                     	ds   2
  1478  00002E                     ??___fladd:	; 1 bytes @ 0x2F
  1479  000030                     ??___flmul:	; 1 bytes @ 0x2F
  1480  000030                     	global	dtoa@p
  1481                           dtoa@p:	; 2 bytes @ 0x2F
  1482  000030                     	ds   2
  1483  000030                     	global	dtoa@w
  1484                           dtoa@w:	; 2 bytes @ 0x31
  1485  000032                     	ds   2
  1486  000032                     	global	___flmul@sign
  1487                           ___flmul@sign:	; 1 bytes @ 0x33
  1488  000034                     	global	dtoa@s
  1489                           dtoa@s:	; 2 bytes @ 0x33
  1490  000034                     	ds   1
  1491  000034                     	global	___flmul@grs
  1492                           ___flmul@grs:	; 4 bytes @ 0x34
  1493  000035                     	ds   1
  1494  000035                     	global	dtoa@n
  1495                           dtoa@n:	; 8 bytes @ 0x35
  1496  000036                     	ds   2
  1497  000036                     	global	___fladd@signs
  1498                           ___fladd@signs:	; 1 bytes @ 0x37
  1499  000038                     	ds   1
  1500  000038                     	global	___fladd@aexp
  1501                           ___fladd@aexp:	; 1 bytes @ 0x38
  1502  000039                     	global	___flmul@aexp
  1503                           ___flmul@aexp:	; 1 bytes @ 0x38
  1504  000039                     	ds   1
  1505  000039                     	global	___fladd@bexp
  1506                           ___fladd@bexp:	; 1 bytes @ 0x39
  1507  00003A                     	global	___flmul@bexp
  1508                           ___flmul@bexp:	; 1 bytes @ 0x39
  1509  00003A                     	ds   1
  1510  00003A                     	global	___fladd@grs
  1511                           ___fladd@grs:	; 1 bytes @ 0x3A
  1512  00003B                     	global	___flmul@prod
  1513                           ___flmul@prod:	; 4 bytes @ 0x3A
  1514  00003B                     	ds   3
  1515  00003B                     	global	dtoa@i
  1516                           dtoa@i:	; 2 bytes @ 0x3D
  1517  00003E                     	ds   1
  1518  00003E                     	global	___flmul@temp
  1519                           ___flmul@temp:	; 2 bytes @ 0x3E
  1520  00003F                     	ds   1
  1521  00003F                     	global	?_vfpfcnvrt
  1522                           ?_vfpfcnvrt:	; 2 bytes @ 0x3F
  1523  000040                     	global	vfpfcnvrt@fp
  1524                           vfpfcnvrt@fp:	; 2 bytes @ 0x3F
  1525  000040                     	ds   1
  1526  000040                     	global	?___fltol
  1527                           ?___fltol:	; 4 bytes @ 0x40
  1528  000041                     	global	___fltol@f1
  1529                           ___fltol@f1:	; 4 bytes @ 0x40
  1530  000041                     	ds   1
  1531  000041                     	global	vfpfcnvrt@fmt
  1532                           vfpfcnvrt@fmt:	; 2 bytes @ 0x41
  1533  000042                     	ds   2
  1534  000042                     	global	vfpfcnvrt@ap
  1535                           vfpfcnvrt@ap:	; 2 bytes @ 0x43
  1536  000044                     	ds   1
  1537  000044                     ??___fltol:	; 1 bytes @ 0x44
  1538  000045                     	ds   1
  1539  000045                     ??_vfpfcnvrt:	; 1 bytes @ 0x45
  1540  000046                     	ds   2
  1541  000046                     	global	vfpfcnvrt@ll
  1542                           vfpfcnvrt@ll:	; 8 bytes @ 0x47
  1543  000048                     	ds   1
  1544  000048                     	global	___fltol@sign1
  1545                           ___fltol@sign1:	; 1 bytes @ 0x48
  1546  000049                     	ds   1
  1547  000049                     	global	___fltol@exp1
  1548                           ___fltol@exp1:	; 1 bytes @ 0x49
  1549  00004A                     	ds   1
  1550  00004A                     ?_USART_Init:	; 1 bytes @ 0x4A
  1551  00004B                     	global	?_MapRGB
  1552                           ?_MapRGB:	; 2 bytes @ 0x4A
  1553  00004B                     	global	MapRGB@min
  1554                           MapRGB@min:	; 4 bytes @ 0x4A
  1555  00004B                     	global	USART_Init@baud_rate
  1556                           USART_Init@baud_rate:	; 4 bytes @ 0x4A
  1557  00004B                     	ds   4
  1558  00004B                     ??_USART_Init:	; 1 bytes @ 0x4E
  1559  00004F                     	global	MapRGB@max
  1560                           MapRGB@max:	; 4 bytes @ 0x4E
  1561  00004F                     	global	USART_Init@temp
  1562                           USART_Init@temp:	; 4 bytes @ 0x4E
  1563  00004F                     	ds   1
  1564  00004F                     	global	?_vfprintf
  1565                           ?_vfprintf:	; 2 bytes @ 0x4F
  1566  000050                     	global	vfprintf@fp
  1567                           vfprintf@fp:	; 2 bytes @ 0x4F
  1568  000050                     	ds   2
  1569  000050                     	global	vfprintf@fmt
  1570                           vfprintf@fmt:	; 2 bytes @ 0x51
  1571  000052                     	ds   1
  1572  000052                     	global	MapRGB@count
  1573                           MapRGB@count:	; 4 bytes @ 0x52
  1574  000053                     	ds   1
  1575  000053                     	global	vfprintf@ap
  1576                           vfprintf@ap:	; 2 bytes @ 0x53
  1577  000054                     	ds   2
  1578  000054                     ??_vfprintf:	; 1 bytes @ 0x55
  1579  000056                     	global	vfprintf@cfmt
  1580                           vfprintf@cfmt:	; 2 bytes @ 0x55
  1581  000056                     	ds   1
  1582  000056                     ??_MapRGB:	; 1 bytes @ 0x56
  1583  000057                     	ds   1
  1584  000057                     	global	?_sprintf
  1585                           ?_sprintf:	; 2 bytes @ 0x57
  1586  000058                     	global	sprintf@s
  1587                           sprintf@s:	; 2 bytes @ 0x57
  1588  000058                     	ds   2
  1589  000058                     	global	sprintf@fmt
  1590                           sprintf@fmt:	; 2 bytes @ 0x59
  1591  00005A                     	ds   4
  1592  00005A                     ??_sprintf:	; 1 bytes @ 0x5D
  1593  00005E                     	global	sprintf@ret
  1594                           sprintf@ret:	; 2 bytes @ 0x5D
  1595  00005E                     	ds   1
  1596  00005E                     	global	MapRGB@val
  1597                           MapRGB@val:	; 2 bytes @ 0x5E
  1598  00005F                     	ds   1
  1599  00005F                     	global	sprintf@ap
  1600                           sprintf@ap:	; 2 bytes @ 0x5F
  1601  000060                     	ds   2
  1602  000060                     	global	sprintf@f
  1603                           sprintf@f:	; 6 bytes @ 0x61
  1604  000062                     	ds   6
  1605  000062                     ??_main:	; 1 bytes @ 0x67
  1606  000068                     	global	main@value
  1607                           main@value:	; 10 bytes @ 0x67
  1608  000068                     	ds   10
  1609  000068                     	global	main@r
  1610                           main@r:	; 4 bytes @ 0x71
  1611  000072                     	ds   4
  1612  000072                     	global	main@g
  1613                           main@g:	; 4 bytes @ 0x75
  1614  000076                     	ds   4
  1615  000076                     	global	main@b
  1616                           main@b:	; 4 bytes @ 0x79
  1617  00007A                     	ds   4
  1618  00007A                     ;!
  1619                           ;!Data Sizes:
  1620                           ;!    Strings     59
  1621                           ;!    Constant    0
  1622                           ;!    Data        0
  1623                           ;!    BSS         48
  1624                           ;!    Persistent  2
  1625                           ;!    Stack       0
  1626                           ;!
  1627                           ;!Auto Spaces:
  1628                           ;!    Space          Size  Autos    Used
  1629                           ;!    COMRAM          126    125     125
  1630                           ;!    BANK0           128      0      50
  1631                           ;!    BANK1           256      0       0
  1632                           ;!    BANK2           256      0       0
  1633                           ;!    BANK3           256      0       0
  1634                           ;!    BANK4           256      0       0
  1635                           ;!    BANK5           256      0       0
  1636                           
  1637                           ;!
  1638                           ;!Pointer List with Targets:
  1639                           ;!
  1640                           ;!    strlen@s	PTR const unsigned char  size(2) Largest target is 32
  1641                           ;!		 -> dbuf(BANK0[32]), 
  1642                           ;!
  1643                           ;!    strlen@a	PTR const unsigned char  size(2) Largest target is 32
  1644                           ;!		 -> dbuf(BANK0[32]), 
  1645                           ;!
  1646                           ;!    sprintf@fmt	PTR const unsigned char  size(2) Largest target is 7
  1647                           ;!		 -> STR_3(CODE[6]), STR_2(CODE[6]), STR_1(CODE[7]), 
  1648                           ;!
  1649                           ;!    sprintf@s	PTR unsigned char  size(2) Largest target is 10
  1650                           ;!		 -> main@value(COMRAM[10]), 
  1651                           ;!
  1652                           ;!    sprintf@ap	PTR void [1] size(2) Largest target is 2
  1653                           ;!		 -> ?_sprintf(COMRAM[2]), 
  1654                           ;!
  1655                           ;!    f.buffer	PTR unsigned char  size(2) Largest target is 10
  1656                           ;!		 -> main@value(COMRAM[10]), 
  1657                           ;!
  1658                           ;!    fputs@s	PTR const unsigned char  size(2) Largest target is 32
  1659                           ;!		 -> dbuf(BANK0[32]), 
  1660                           ;!
  1661                           ;!    fputs@fp	PTR struct _IO_FILE size(2) Largest target is 7
  1662                           ;!		 -> sprintf@f(COMRAM[6]), 
  1663                           ;!
  1664                           ;!    S1056_IO_FILE$buffer	PTR unsigned char  size(2) Largest target is 10
  1665                           ;!		 -> main@value(COMRAM[10]), 
  1666                           ;!
  1667                           ;!    fputc@fp.buffer	PTR unsigned char  size(2) Largest target is 10
  1668                           ;!		 -> main@value(COMRAM[10]), 
  1669                           ;!
  1670                           ;!    fputc@fp	PTR struct _IO_FILE size(2) Largest target is 7
  1671                           ;!		 -> sprintf@f(COMRAM[6]), 
  1672                           ;!
  1673                           ;!    memset@dest	PTR void  size(2) Largest target is 10
  1674                           ;!		 -> main@value(COMRAM[10]), 
  1675                           ;!
  1676                           ;!    memset@s	PTR unsigned char  size(2) Largest target is 10
  1677                           ;!		 -> main@value(COMRAM[10]), 
  1678                           ;!
  1679                           ;!    vfprintf@ap	PTR PTR void  size(2) Largest target is 2
  1680                           ;!		 -> sprintf@ap(COMRAM[2]), 
  1681                           ;!
  1682                           ;!    vfprintf@fp	PTR struct _IO_FILE size(2) Largest target is 7
  1683                           ;!		 -> sprintf@f(COMRAM[6]), 
  1684                           ;!
  1685                           ;!    vfprintf@fmt	PTR const unsigned char  size(2) Largest target is 7
  1686                           ;!		 -> STR_3(CODE[6]), STR_2(CODE[6]), STR_1(CODE[7]), 
  1687                           ;!
  1688                           ;!    vfprintf@cfmt	PTR unsigned char  size(2) Largest target is 7
  1689                           ;!		 -> STR_3(CODE[6]), STR_2(CODE[6]), STR_1(CODE[7]), 
  1690                           ;!
  1691                           ;!    vfpfcnvrt@fp	PTR struct _IO_FILE size(2) Largest target is 7
  1692                           ;!		 -> sprintf@f(COMRAM[6]), 
  1693                           ;!
  1694                           ;!    vfpfcnvrt@ap	PTR PTR void  size(2) Largest target is 2
  1695                           ;!		 -> sprintf@ap(COMRAM[2]), 
  1696                           ;!
  1697                           ;!    vfpfcnvrt@fmt	PTR PTR unsigned char  size(2) Largest target is 2
  1698                           ;!		 -> vfprintf@cfmt(COMRAM[2]), 
  1699                           ;!
  1700                           ;!    dtoa@fp	PTR struct _IO_FILE size(2) Largest target is 7
  1701                           ;!		 -> sprintf@f(COMRAM[6]), 
  1702                           ;!
  1703                           ;!    pad@fp	PTR struct _IO_FILE size(2) Largest target is 7
  1704                           ;!		 -> sprintf@f(COMRAM[6]), 
  1705                           ;!
  1706                           ;!    pad@buf	PTR unsigned char  size(2) Largest target is 32
  1707                           ;!		 -> dbuf(BANK0[32]), 
  1708                           ;!
  1709                           ;!    USART_SendString@out	PTR const unsigned char  size(2) Largest target is 10
  1710                           ;!		 -> STR_11(CODE[6]), STR_10(CODE[7]), STR_9(CODE[8]), STR_8(CODE[4]), 
  1711                           ;!		 -> STR_7(CODE[5]), STR_6(CODE[5]), STR_5(CODE[5]), STR_4(CODE[6]), 
  1712                           ;!		 -> main@value(COMRAM[10]), 
  1713                           ;!
  1714                           ;!    sp__memset	PTR void  size(2) Largest target is 10
  1715                           ;!		 -> main@value(COMRAM[10]), 
  1716                           ;!
  1717                           
  1718                           
  1719                           ;!
  1720                           ;!Critical Paths under _main in COMRAM
  1721                           ;!
  1722                           ;!    _main->_sprintf
  1723                           ;!    _sprintf->_vfprintf
  1724                           ;!    _vfprintf->_vfpfcnvrt
  1725                           ;!    _vfpfcnvrt->_dtoa
  1726                           ;!    _dtoa->_pad
  1727                           ;!    _pad->_fputs
  1728                           ;!    _fputs->_fputc
  1729                           ;!    _abs->___aomod
  1730                           ;!    _buzz->_MSdelay
  1731                           ;!    _USART_SendString->_USART_TxChar
  1732                           ;!    _USART_Init->___fltol
  1733                           ;!    ___fladd->___fldiv
  1734                           ;!    _MapRGB->___fltol
  1735                           ;!    ___fltol->___flmul
  1736                           ;!    ___flmul->___fldiv
  1737                           ;!    ___fldiv->___xxtofl
  1738                           ;!    _Frequency_Count->___lmul
  1739                           ;!
  1740                           ;!Critical Paths under _Hi_ISR in COMRAM
  1741                           ;!
  1742                           ;!    None.
  1743                           ;!
  1744                           ;!Critical Paths under _main in BANK0
  1745                           ;!
  1746                           ;!    None.
  1747                           ;!
  1748                           ;!Critical Paths under _Hi_ISR in BANK0
  1749                           ;!
  1750                           ;!    None.
  1751                           ;!
  1752                           ;!Critical Paths under _main in BANK1
  1753                           ;!
  1754                           ;!    None.
  1755                           ;!
  1756                           ;!Critical Paths under _Hi_ISR in BANK1
  1757                           ;!
  1758                           ;!    None.
  1759                           ;!
  1760                           ;!Critical Paths under _main in BANK2
  1761                           ;!
  1762                           ;!    None.
  1763                           ;!
  1764                           ;!Critical Paths under _Hi_ISR in BANK2
  1765                           ;!
  1766                           ;!    None.
  1767                           ;!
  1768                           ;!Critical Paths under _main in BANK3
  1769                           ;!
  1770                           ;!    None.
  1771                           ;!
  1772                           ;!Critical Paths under _Hi_ISR in BANK3
  1773                           ;!
  1774                           ;!    None.
  1775                           ;!
  1776                           ;!Critical Paths under _main in BANK4
  1777                           ;!
  1778                           ;!    None.
  1779                           ;!
  1780                           ;!Critical Paths under _Hi_ISR in BANK4
  1781                           ;!
  1782                           ;!    None.
  1783                           ;!
  1784                           ;!Critical Paths under _main in BANK5
  1785                           ;!
  1786                           ;!    None.
  1787                           ;!
  1788                           ;!Critical Paths under _Hi_ISR in BANK5
  1789                           ;!
  1790                           ;!    None.
  1791                           
  1792 ;;
  1793 ;;Main: autosize = 0, tempsize = 0, incstack = 0, save=0
  1794 ;;
  1795                           
  1796                           ;!
  1797                           ;!Call Graph Tables:
  1798                           ;!
  1799                           ;! ---------------------------------------------------------------------------------
  1800                           ;! (Depth) Function   	        Calls       Base Space   Used Autos Params    Refs
  1801                           ;! ---------------------------------------------------------------------------------
  1802                           ;! (0) _main                                                26    26      0   21231
  1803                           ;!                                            103 COMRAM    22    22      0
  1804                           ;!                    _Frequency_Count
  1805                           ;!                             _MapRGB
  1806                           ;!              _OSCILLATOR_Initialize
  1807                           ;!                         _Timer_Init
  1808                           ;!                         _USART_Init
  1809                           ;!                   _USART_SendString
  1810                           ;!                       _USART_TxChar
  1811                           ;!                               _buzz
  1812                           ;!                             _memset
  1813                           ;!                            _sprintf
  1814                           ;! ---------------------------------------------------------------------------------
  1815                           ;! (1) _sprintf                                             16    10      6    6760
  1816                           ;!                                             87 COMRAM    16    10      6
  1817                           ;!                           _vfprintf
  1818                           ;! ---------------------------------------------------------------------------------
  1819                           ;! (2) _vfprintf                                             8     2      6    6105
  1820                           ;!                                             79 COMRAM     8     2      6
  1821                           ;!                          _vfpfcnvrt
  1822                           ;! ---------------------------------------------------------------------------------
  1823                           ;! (3) _vfpfcnvrt                                           42    36      6    5751
  1824                           ;!                                             63 COMRAM    16    10      6
  1825                           ;!                               _dtoa
  1826                           ;!                              _fputc
  1827                           ;! ---------------------------------------------------------------------------------
  1828                           ;! (4) _dtoa                                                36    26     10    4358
  1829                           ;!                                             27 COMRAM    36    26     10
  1830                           ;!                            ___aodiv
  1831                           ;!                            ___aomod
  1832                           ;!                                _abs
  1833                           ;!                                _pad
  1834                           ;! ---------------------------------------------------------------------------------
  1835                           ;! (5) _pad                                                 11     5      6    2709
  1836                           ;!                                             16 COMRAM    11     5      6
  1837                           ;!                              _fputc
  1838                           ;!                              _fputs
  1839                           ;!                             _strlen
  1840                           ;! ---------------------------------------------------------------------------------
  1841                           ;! (6) _strlen                                               6     4      2     166
  1842                           ;!                                              0 COMRAM     6     4      2
  1843                           ;! ---------------------------------------------------------------------------------
  1844                           ;! (6) _fputs                                                7     3      4    1235
  1845                           ;!                                              9 COMRAM     7     3      4
  1846                           ;!                              _fputc
  1847                           ;! ---------------------------------------------------------------------------------
  1848                           ;! (4) _fputc                                                9     5      4     834
  1849                           ;!                                              0 COMRAM     9     5      4
  1850                           ;!                              _putch
  1851                           ;! ---------------------------------------------------------------------------------
  1852                           ;! (5) _putch                                                1     1      0       0
  1853                           ;! ---------------------------------------------------------------------------------
  1854                           ;! (5) _abs                                                  4     2      2     142
  1855                           ;!                                             18 COMRAM     4     2      2
  1856                           ;!                            ___aomod (ARG)
  1857                           ;! ---------------------------------------------------------------------------------
  1858                           ;! (5) ___aomod                                             18     2     16     448
  1859                           ;!                                              0 COMRAM    18     2     16
  1860                           ;! ---------------------------------------------------------------------------------
  1861                           ;! (5) ___aodiv                                             26    10     16     452
  1862                           ;!                                              0 COMRAM    26    10     16
  1863                           ;! ---------------------------------------------------------------------------------
  1864                           ;! (1) _memset                                              14     8      6     947
  1865                           ;!                                              0 COMRAM    14     8      6
  1866                           ;! ---------------------------------------------------------------------------------
  1867                           ;! (1) _buzz                                                 6     0      6    1604
  1868                           ;!                                              6 COMRAM     6     0      6
  1869                           ;!                            _MSdelay
  1870                           ;!                        _init_buzzer
  1871                           ;! ---------------------------------------------------------------------------------
  1872                           ;! (2) _init_buzzer                                          0     0      0       0
  1873                           ;! ---------------------------------------------------------------------------------
  1874                           ;! (1) _USART_SendString                                     2     0      2     903
  1875                           ;!                                              1 COMRAM     2     0      2
  1876                           ;!                       _USART_TxChar
  1877                           ;! ---------------------------------------------------------------------------------
  1878                           ;! (1) _USART_TxChar                                         1     1      0      22
  1879                           ;!                                              0 COMRAM     1     1      0
  1880                           ;! ---------------------------------------------------------------------------------
  1881                           ;! (1) _USART_Init                                           8     4      4    4991
  1882                           ;!                                             74 COMRAM     8     4      4
  1883                           ;!                            ___fladd
  1884                           ;!                            ___fldiv
  1885                           ;!                            ___fltol
  1886                           ;!                           ___xxtofl
  1887                           ;! ---------------------------------------------------------------------------------
  1888                           ;! (2) ___fladd                                             20    12      8    2388
  1889                           ;!                                             39 COMRAM    20    12      8
  1890                           ;!                            ___fldiv (ARG)
  1891                           ;!                           ___xxtofl (ARG)
  1892                           ;! ---------------------------------------------------------------------------------
  1893                           ;! (1) _Timer_Init                                           0     0      0       0
  1894                           ;! ---------------------------------------------------------------------------------
  1895                           ;! (1) _OSCILLATOR_Initialize                                0     0      0       0
  1896                           ;! ---------------------------------------------------------------------------------
  1897                           ;! (1) _MapRGB                                              22    10     12    5021
  1898                           ;!                                             74 COMRAM    22    10     12
  1899                           ;!                            ___fldiv
  1900                           ;!                            ___flmul
  1901                           ;!                            ___fltol
  1902                           ;!                           ___xxtofl
  1903                           ;! ---------------------------------------------------------------------------------
  1904                           ;! (2) ___xxtofl                                            14    10      4     550
  1905                           ;!                                              0 COMRAM    14    10      4
  1906                           ;! ---------------------------------------------------------------------------------
  1907                           ;! (2) ___fltol                                             10     6      4     381
  1908                           ;!                                             64 COMRAM    10     6      4
  1909                           ;!                            ___fldiv (ARG)
  1910                           ;!                            ___flmul (ARG)
  1911                           ;!                           ___xxtofl (ARG)
  1912                           ;! ---------------------------------------------------------------------------------
  1913                           ;! (2) ___flmul                                             25    17      8    1744
  1914                           ;!                                             39 COMRAM    25    17      8
  1915                           ;!                            ___fldiv (ARG)
  1916                           ;!                           ___xxtofl (ARG)
  1917                           ;! ---------------------------------------------------------------------------------
  1918                           ;! (2) ___fldiv                                             25    17      8    1551
  1919                           ;!                                             14 COMRAM    25    17      8
  1920                           ;!                           ___xxtofl (ARG)
  1921                           ;! ---------------------------------------------------------------------------------
  1922                           ;! (1) _Frequency_Count                                     12     8      4     736
  1923                           ;!                                             12 COMRAM    12     8      4
  1924                           ;!                            _MSdelay
  1925                           ;!                             ___lmul
  1926                           ;! ---------------------------------------------------------------------------------
  1927                           ;! (2) ___lmul                                              12     4      8     370
  1928                           ;!                                              0 COMRAM    12     4      8
  1929                           ;! ---------------------------------------------------------------------------------
  1930                           ;! (2) _MSdelay                                              6     4      2     320
  1931                           ;!                                              0 COMRAM     6     4      2
  1932                           ;! ---------------------------------------------------------------------------------
  1933                           ;! Estimated maximum stack depth 6
  1934                           ;! ---------------------------------------------------------------------------------
  1935                           ;! (Depth) Function   	        Calls       Base Space   Used Autos Params    Refs
  1936                           ;! ---------------------------------------------------------------------------------
  1937                           ;! (9) _Hi_ISR                                               0     0      0       0
  1938                           ;! ---------------------------------------------------------------------------------
  1939                           ;! Estimated maximum stack depth 9
  1940                           ;! ---------------------------------------------------------------------------------
  1941                           ;!
  1942                           ;! Call Graph Graphs:
  1943                           ;!
  1944                           ;! _main (ROOT)
  1945                           ;!   _Frequency_Count
  1946                           ;!     _MSdelay
  1947                           ;!     ___lmul
  1948                           ;!   _MapRGB
  1949                           ;!     ___fldiv
  1950                           ;!       ___xxtofl (ARG)
  1951                           ;!     ___flmul
  1952                           ;!       ___fldiv (ARG)
  1953                           ;!         ___xxtofl (ARG)
  1954                           ;!       ___xxtofl (ARG)
  1955                           ;!     ___fltol
  1956                           ;!       ___fldiv (ARG)
  1957                           ;!         ___xxtofl (ARG)
  1958                           ;!       ___flmul (ARG)
  1959                           ;!         ___fldiv (ARG)
  1960                           ;!           ___xxtofl (ARG)
  1961                           ;!         ___xxtofl (ARG)
  1962                           ;!       ___xxtofl (ARG)
  1963                           ;!     ___xxtofl
  1964                           ;!   _OSCILLATOR_Initialize
  1965                           ;!   _Timer_Init
  1966                           ;!   _USART_Init
  1967                           ;!     ___fladd
  1968                           ;!       ___fldiv (ARG)
  1969                           ;!         ___xxtofl (ARG)
  1970                           ;!       ___xxtofl (ARG)
  1971                           ;!     ___fldiv
  1972                           ;!       ___xxtofl (ARG)
  1973                           ;!     ___fltol
  1974                           ;!       ___fldiv (ARG)
  1975                           ;!         ___xxtofl (ARG)
  1976                           ;!       ___flmul (ARG)
  1977                           ;!         ___fldiv (ARG)
  1978                           ;!           ___xxtofl (ARG)
  1979                           ;!         ___xxtofl (ARG)
  1980                           ;!       ___xxtofl (ARG)
  1981                           ;!     ___xxtofl
  1982                           ;!   _USART_SendString
  1983                           ;!     _USART_TxChar
  1984                           ;!   _USART_TxChar
  1985                           ;!   _buzz
  1986                           ;!     _MSdelay
  1987                           ;!     _init_buzzer
  1988                           ;!   _memset
  1989                           ;!   _sprintf
  1990                           ;!     _vfprintf
  1991                           ;!       _vfpfcnvrt
  1992                           ;!         _dtoa
  1993                           ;!           ___aodiv
  1994                           ;!           ___aomod
  1995                           ;!           _abs
  1996                           ;!             ___aomod (ARG)
  1997                           ;!           _pad
  1998                           ;!             _fputc
  1999                           ;!               _putch
  2000                           ;!             _fputs
  2001                           ;!               _fputc
  2002                           ;!                 _putch
  2003                           ;!             _strlen
  2004                           ;!         _fputc
  2005                           ;!           _putch
  2006                           ;!
  2007                           ;! _Hi_ISR (ROOT)
  2008                           ;!
  2009                           
  2010                           ;! Address spaces:
  2011                           
  2012                           ;!Name               Size   Autos  Total    Cost      Usage
  2013                           ;!BIGRAM             5FF      0       0      17        0.0%
  2014                           ;!EEDATA             100      0       0       0        0.0%
  2015                           ;!BITBANK5           100      0       0      16        0.0%
  2016                           ;!BANK5              100      0       0      14        0.0%
  2017                           ;!BITBANK4           100      0       0      12        0.0%
  2018                           ;!BANK4              100      0       0      13        0.0%
  2019                           ;!BITBANK3           100      0       0      10        0.0%
  2020                           ;!BANK3              100      0       0      11        0.0%
  2021                           ;!BITBANK2           100      0       0       8        0.0%
  2022                           ;!BANK2              100      0       0       9        0.0%
  2023                           ;!BITBANK1           100      0       0       6        0.0%
  2024                           ;!BANK1              100      0       0       7        0.0%
  2025                           ;!BITBANK0            80      0       0       4        0.0%
  2026                           ;!BANK0               80      0      32       5       39.1%
  2027                           ;!BITCOMRAM           7E      0       0       0        0.0%
  2028                           ;!COMRAM              7E     7D      7D       1       99.2%
  2029                           ;!BITSFR               0      0       0     200        0.0%
  2030                           ;!SFR                  0      0       0     200        0.0%
  2031                           ;!STACK                0      0       0       2        0.0%
  2032                           ;!NULL                 0      0       0       0        0.0%
  2033                           ;!ABS                  0      0      AF      15        0.0%
  2034                           ;!DATA                 0      0      AF       3        0.0%
  2035                           ;!CODE                 0      0       0       0        0.0%
  2036                           
  2037                           	global	_main
  2038                           
  2039 ;; *************** function _main *****************
  2040 ;; Defined at:
  2041 ;;		line 17 in file "main.c"
  2042 ;; Parameters:    Size  Location     Type
  2043 ;;		None
  2044 ;; Auto vars:     Size  Location     Type
  2045 ;;  value          10  103[COMRAM] unsigned char [10]
  2046 ;;  b               4  121[COMRAM] unsigned long 
  2047 ;;  g               4  117[COMRAM] unsigned long 
  2048 ;;  r               4  113[COMRAM] unsigned long 
  2049 ;;  clear           4    0        unsigned long 
  2050 ;; Return value:  Size  Location     Type
  2051 ;;                  1    wreg      void 
  2052 ;; Registers used:
  2053 ;;		wreg, fsr1l, fsr1h, fsr2l, fsr2h, status,2, status,0, tblptrl, tblptrh, tblptru, prodl, prodh, cstack
  2054 ;; Tracked objects:
  2055 ;;		On entry : 0/0
  2056 ;;		On exit  : 0/0
  2057 ;;		Unchanged: 0/0
  2058 ;; Data sizes:     COMRAM   BANK0   BANK1   BANK2   BANK3   BANK4   BANK5
  2059 ;;      Params:         0       0       0       0       0       0       0
  2060 ;;      Locals:        22       0       0       0       0       0       0
  2061 ;;      Temps:          0       0       0       0       0       0       0
  2062 ;;      Totals:        22       0       0       0       0       0       0
  2063 ;;Total ram usage:       22 bytes
  2064 ;; Hardware stack levels required when called:    9
  2065 ;; This function calls:
  2066 ;;		_Frequency_Count
  2067 ;;		_MapRGB
  2068 ;;		_OSCILLATOR_Initialize
  2069 ;;		_Timer_Init
  2070 ;;		_USART_Init
  2071 ;;		_USART_SendString
  2072 ;;		_USART_TxChar
  2073 ;;		_buzz
  2074 ;;		_memset
  2075 ;;		_sprintf
  2076 ;; This function is called by:
  2077 ;;		Startup code after reset
  2078 ;; This function uses a non-reentrant model
  2079 ;;
  2080                           psect	text0,class=CODE,space=0,reloc=2,group=0
  2081                           	file	"main.c"
  2082                           	line	17
  2083                           global __ptext0
  2084                           __ptext0:
  2085  001C78                     psect	text0
  2086                           	file	"main.c"
  2087                           	line	17
  2088                           	global	__size_of_main
  2089                           	__size_of_main	equ	__end_of_main-_main
  2090  0000                     	
  2091                           _main:
  2092  001C78                     ;incstack = 0
  2093                           	opt	stack 22
  2094                           	line	21
  2095                           	
  2096                           l3256:
  2097  001C78                     ;main.c: 18:     unsigned long r,g,b,clear;;main.c: 20:     unsigned char value[10];;mai
                                 n.c: 21:     OSCCON = 0x72;
  2098                           	movlw	low(072h)
  2099  001C78  0E72               	movwf	((c:4051)),c	;volatile
  2100  001C7A  6ED3               	line	22
  2101                           	
  2102                           l3258:
  2103  001C7C                     ;main.c: 22:     Timer_Init();
  2104                           	call	_Timer_Init	;wreg free
  2105  001C7C  EC06  F018         	line	23
  2106                           	
  2107                           l3260:
  2108  001C80                     ;main.c: 23:     OSCILLATOR_Initialize();
  2109                           	call	_OSCILLATOR_Initialize	;wreg free
  2110  001C80  EC0E  F018         	line	24
  2111                           	
  2112                           l3262:
  2113  001C84                     ;main.c: 24:     TRISDbits.TRISD0=0;
  2114                           	bcf	((c:3989)),c,0	;volatile
  2115  001C84  9095               	line	25
  2116                           	
  2117                           l3264:
  2118  001C86                     ;main.c: 25:     TRISDbits.TRISD1=0;
  2119                           	bcf	((c:3989)),c,1	;volatile
  2120  001C86  9295               	line	26
  2121                           	
  2122                           l3266:
  2123  001C88                     ;main.c: 26:     USART_Init(9600);
  2124                           	movlw	low(02580h)
  2125  001C88  0E80               	movwf	((c:USART_Init@baud_rate)),c
  2126  001C8A  6E4B               	movlw	high(02580h)
  2127  001C8C  0E25               	movwf	((c:USART_Init@baud_rate+1)),c
  2128  001C8E  6E4C               	movlw	low highword(02580h)
  2129  001C90  0E00               	movwf	((c:USART_Init@baud_rate+2)),c
  2130  001C92  6E4D               	movlw	high highword(02580h)
  2131  001C94  0E00               	movwf	((c:USART_Init@baud_rate+3)),c
  2132  001C96  6E4E               	call	_USART_Init	;wreg free
  2133  001C98  ECF6  F015         	goto	l3268
  2134  001C9C  EF50  F00E         	line	28
  2135                           ;main.c: 28:     while(1)
  2136                           	
  2137                           l122:
  2138  001CA0                     	line	30
  2139                           	
  2140                           l3268:
  2141  001CA0                     ;main.c: 29:      {;main.c: 30:         LATD = 0x00;
  2142                           	movlw	low(0)
  2143  001CA0  0E00               	movwf	((c:3980)),c	;volatile
  2144  001CA2  6E8C               	line	31
  2145                           ;main.c: 31:         r = Frequency_Count();
  2146                           	call	_Frequency_Count	;wreg free
  2147  001CA4  ECA9  F015         	movff	0+?_Frequency_Count,(c:main@r)
  2148  001CA8  C00D  F072         	movff	1+?_Frequency_Count,(c:main@r+1)
  2149  001CAC  C00E  F073         	movff	2+?_Frequency_Count,(c:main@r+2)
  2150  001CB0  C00F  F074         	movff	3+?_Frequency_Count,(c:main@r+3)
  2151  001CB4  C010  F075         	
  2152                           	line	32
  2153                           	
  2154                           l3270:
  2155  001CB8                     ;main.c: 32:         R = MapRGB(6000,100000,r);
  2156                           	movlw	low(01770h)
  2157  001CB8  0E70               	movwf	((c:MapRGB@min)),c
  2158  001CBA  6E4B               	movlw	high(01770h)
  2159  001CBC  0E17               	movwf	((c:MapRGB@min+1)),c
  2160  001CBE  6E4C               	movlw	low highword(01770h)
  2161  001CC0  0E00               	movwf	((c:MapRGB@min+2)),c
  2162  001CC2  6E4D               	movlw	high highword(01770h)
  2163  001CC4  0E00               	movwf	((c:MapRGB@min+3)),c
  2164  001CC6  6E4E               	movlw	low(0186A0h)
  2165  001CC8  0EA0               	movwf	((c:MapRGB@max)),c
  2166  001CCA  6E4F               	movlw	high(0186A0h)
  2167  001CCC  0E86               	movwf	((c:MapRGB@max+1)),c
  2168  001CCE  6E50               	movlw	low highword(0186A0h)
  2169  001CD0  0E01               	movwf	((c:MapRGB@max+2)),c
  2170  001CD2  6E51               	movlw	high highword(0186A0h)
  2171  001CD4  0E00               	movwf	((c:MapRGB@max+3)),c
  2172  001CD6  6E52               	movff	(c:main@r),(c:MapRGB@count)
  2173  001CD8  C072  F053         	movff	(c:main@r+1),(c:MapRGB@count+1)
  2174  001CDC  C073  F054         	movff	(c:main@r+2),(c:MapRGB@count+2)
  2175  001CE0  C074  F055         	movff	(c:main@r+3),(c:MapRGB@count+3)
  2176  001CE4  C075  F056         	call	_MapRGB	;wreg free
  2177  001CE8  EC56  F014         	movff	0+?_MapRGB,(_R)
  2178  001CEC  C04B  F0B0         	movff	1+?_MapRGB,(_R+1)
  2179  001CF0  C04C  F0B1         	line	33
  2180                           	
  2181                           l3272:
  2182  001CF4                     ;main.c: 33:         if(R>255)
  2183                           	movlb	0	; () banked
  2184  001CF4  0100               		decf	((_R+1))&0ffh,w
  2185  001CF6  05B1               	btfss	status,0
  2186  001CF8  A0D8               	goto	u4221
  2187  001CFA  EF81  F00E         	goto	u4220
  2188  001CFE  EF83  F00E         
  2189                           u4221:
  2190  001D02                     	goto	l3276
  2191  001D02  EF88  F00E         u4220:
  2192  001D06                     	line	34
  2193                           	
  2194                           l3274:; BSR set to: 0
  2195  001D06                     
  2196                           ;main.c: 34:             R = 255;
  2197                           	movlw	high(0FFh)
  2198  001D06  0E00               	movwf	((_R+1))&0ffh
  2199  001D08  6FB1               	setf	((_R))&0ffh
  2200  001D0A  69B0               	goto	l3276
  2201  001D0C  EF88  F00E         	
  2202                           l123:; BSR set to: 0
  2203  001D10                     
  2204                           	line	35
  2205                           	
  2206                           l3276:; BSR set to: 0
  2207  001D10                     
  2208                           ;main.c: 35:         sprintf(value," %d   ",R);
  2209                           		movlw	low(main@value)
  2210  001D10  0E68               	movwf	((c:sprintf@s)),c
  2211  001D12  6E58               	movlw	high(main@value)
  2212  001D14  0E00               	movwf	((c:sprintf@s+1)),c
  2213  001D16  6E59               
  2214                           		movlw	low(STR_1)
  2215  001D18  0E10               	movwf	((c:sprintf@fmt)),c
  2216  001D1A  6E5A               	movlw	high(STR_1)
  2217  001D1C  0E06               	movwf	((c:sprintf@fmt+1)),c
  2218  001D1E  6E5B               
  2219                           	movff	(_R),0+((c:?_sprintf)+04h)
  2220  001D20  C0B0  F05C         	movff	(_R+1),1+((c:?_sprintf)+04h)
  2221  001D24  C0B1  F05D         	call	_sprintf	;wreg free
  2222  001D28  EC19  F017         	line	36
  2223                           	
  2224                           l3278:
  2225  001D2C                     ;main.c: 36:         USART_SendString(value);
  2226                           		movlw	low(main@value)
  2227  001D2C  0E68               	movwf	((c:USART_SendString@out)),c
  2228  001D2E  6E02               	movlw	high(main@value)
  2229  001D30  0E00               	movwf	((c:USART_SendString@out+1)),c
  2230  001D32  6E03               
  2231                           	call	_USART_SendString	;wreg free
  2232  001D34  ECE6  F016         	line	38
  2233                           	
  2234                           l3280:
  2235  001D38                     ;main.c: 38:         LATD = 0x03;
  2236                           	movlw	low(03h)
  2237  001D38  0E03               	movwf	((c:3980)),c	;volatile
  2238  001D3A  6E8C               	line	39
  2239                           	
  2240                           l3282:
  2241  001D3C                     ;main.c: 39:         g = Frequency_Count();
  2242                           	call	_Frequency_Count	;wreg free
  2243  001D3C  ECA9  F015         	movff	0+?_Frequency_Count,(c:main@g)
  2244  001D40  C00D  F076         	movff	1+?_Frequency_Count,(c:main@g+1)
  2245  001D44  C00E  F077         	movff	2+?_Frequency_Count,(c:main@g+2)
  2246  001D48  C00F  F078         	movff	3+?_Frequency_Count,(c:main@g+3)
  2247  001D4C  C010  F079         	
  2248                           	line	40
  2249                           	
  2250                           l3284:
  2251  001D50                     ;main.c: 40:         G = MapRGB(5000,60000,g);
  2252                           	movlw	low(01388h)
  2253  001D50  0E88               	movwf	((c:MapRGB@min)),c
  2254  001D52  6E4B               	movlw	high(01388h)
  2255  001D54  0E13               	movwf	((c:MapRGB@min+1)),c
  2256  001D56  6E4C               	movlw	low highword(01388h)
  2257  001D58  0E00               	movwf	((c:MapRGB@min+2)),c
  2258  001D5A  6E4D               	movlw	high highword(01388h)
  2259  001D5C  0E00               	movwf	((c:MapRGB@min+3)),c
  2260  001D5E  6E4E               	movlw	low(0EA60h)
  2261  001D60  0E60               	movwf	((c:MapRGB@max)),c
  2262  001D62  6E4F               	movlw	high(0EA60h)
  2263  001D64  0EEA               	movwf	((c:MapRGB@max+1)),c
  2264  001D66  6E50               	movlw	low highword(0EA60h)
  2265  001D68  0E00               	movwf	((c:MapRGB@max+2)),c
  2266  001D6A  6E51               	movlw	high highword(0EA60h)
  2267  001D6C  0E00               	movwf	((c:MapRGB@max+3)),c
  2268  001D6E  6E52               	movff	(c:main@g),(c:MapRGB@count)
  2269  001D70  C076  F053         	movff	(c:main@g+1),(c:MapRGB@count+1)
  2270  001D74  C077  F054         	movff	(c:main@g+2),(c:MapRGB@count+2)
  2271  001D78  C078  F055         	movff	(c:main@g+3),(c:MapRGB@count+3)
  2272  001D7C  C079  F056         	call	_MapRGB	;wreg free
  2273  001D80  EC56  F014         	movff	0+?_MapRGB,(_G)
  2274  001D84  C04B  F08A         	movff	1+?_MapRGB,(_G+1)
  2275  001D88  C04C  F08B         	line	41
  2276                           	
  2277                           l3286:
  2278  001D8C                     ;main.c: 41:         if(G>255)
  2279                           	movlb	0	; () banked
  2280  001D8C  0100               		decf	((_G+1))&0ffh,w
  2281  001D8E  058B               	btfss	status,0
  2282  001D90  A0D8               	goto	u4231
  2283  001D92  EFCD  F00E         	goto	u4230
  2284  001D96  EFCF  F00E         
  2285                           u4231:
  2286  001D9A                     	goto	l3290
  2287  001D9A  EFD4  F00E         u4230:
  2288  001D9E                     	line	42
  2289                           	
  2290                           l3288:; BSR set to: 0
  2291  001D9E                     
  2292                           ;main.c: 42:             G = 255;
  2293                           	movlw	high(0FFh)
  2294  001D9E  0E00               	movwf	((_G+1))&0ffh
  2295  001DA0  6F8B               	setf	((_G))&0ffh
  2296  001DA2  698A               	goto	l3290
  2297  001DA4  EFD4  F00E         	
  2298                           l124:; BSR set to: 0
  2299  001DA8                     
  2300                           	line	43
  2301                           	
  2302                           l3290:; BSR set to: 0
  2303  001DA8                     
  2304                           ;main.c: 43:         sprintf(value," %d  ",G);
  2305                           		movlw	low(main@value)
  2306  001DA8  0E68               	movwf	((c:sprintf@s)),c
  2307  001DAA  6E58               	movlw	high(main@value)
  2308  001DAC  0E00               	movwf	((c:sprintf@s+1)),c
  2309  001DAE  6E59               
  2310                           		movlw	low(STR_2)
  2311  001DB0  0E23               	movwf	((c:sprintf@fmt)),c
  2312  001DB2  6E5A               	movlw	high(STR_2)
  2313  001DB4  0E06               	movwf	((c:sprintf@fmt+1)),c
  2314  001DB6  6E5B               
  2315                           	movff	(_G),0+((c:?_sprintf)+04h)
  2316  001DB8  C08A  F05C         	movff	(_G+1),1+((c:?_sprintf)+04h)
  2317  001DBC  C08B  F05D         	call	_sprintf	;wreg free
  2318  001DC0  EC19  F017         	line	44
  2319                           	
  2320                           l3292:
  2321  001DC4                     ;main.c: 44:         USART_SendString(value);
  2322                           		movlw	low(main@value)
  2323  001DC4  0E68               	movwf	((c:USART_SendString@out)),c
  2324  001DC6  6E02               	movlw	high(main@value)
  2325  001DC8  0E00               	movwf	((c:USART_SendString@out+1)),c
  2326  001DCA  6E03               
  2327                           	call	_USART_SendString	;wreg free
  2328  001DCC  ECE6  F016         	line	46
  2329                           	
  2330                           l3294:
  2331  001DD0                     ;main.c: 46:         LATD = 0x01;
  2332                           	movlw	low(01h)
  2333  001DD0  0E01               	movwf	((c:3980)),c	;volatile
  2334  001DD2  6E8C               	line	47
  2335                           	
  2336                           l3296:
  2337  001DD4                     ;main.c: 47:         b = Frequency_Count();
  2338                           	call	_Frequency_Count	;wreg free
  2339  001DD4  ECA9  F015         	movff	0+?_Frequency_Count,(c:main@b)
  2340  001DD8  C00D  F07A         	movff	1+?_Frequency_Count,(c:main@b+1)
  2341  001DDC  C00E  F07B         	movff	2+?_Frequency_Count,(c:main@b+2)
  2342  001DE0  C00F  F07C         	movff	3+?_Frequency_Count,(c:main@b+3)
  2343  001DE4  C010  F07D         	
  2344                           	line	48
  2345                           	
  2346                           l3298:
  2347  001DE8                     ;main.c: 48:         B = MapRGB(6000,95000,b);
  2348                           	movlw	low(01770h)
  2349  001DE8  0E70               	movwf	((c:MapRGB@min)),c
  2350  001DEA  6E4B               	movlw	high(01770h)
  2351  001DEC  0E17               	movwf	((c:MapRGB@min+1)),c
  2352  001DEE  6E4C               	movlw	low highword(01770h)
  2353  001DF0  0E00               	movwf	((c:MapRGB@min+2)),c
  2354  001DF2  6E4D               	movlw	high highword(01770h)
  2355  001DF4  0E00               	movwf	((c:MapRGB@min+3)),c
  2356  001DF6  6E4E               	movlw	low(017318h)
  2357  001DF8  0E18               	movwf	((c:MapRGB@max)),c
  2358  001DFA  6E4F               	movlw	high(017318h)
  2359  001DFC  0E73               	movwf	((c:MapRGB@max+1)),c
  2360  001DFE  6E50               	movlw	low highword(017318h)
  2361  001E00  0E01               	movwf	((c:MapRGB@max+2)),c
  2362  001E02  6E51               	movlw	high highword(017318h)
  2363  001E04  0E00               	movwf	((c:MapRGB@max+3)),c
  2364  001E06  6E52               	movff	(c:main@b),(c:MapRGB@count)
  2365  001E08  C07A  F053         	movff	(c:main@b+1),(c:MapRGB@count+1)
  2366  001E0C  C07B  F054         	movff	(c:main@b+2),(c:MapRGB@count+2)
  2367  001E10  C07C  F055         	movff	(c:main@b+3),(c:MapRGB@count+3)
  2368  001E14  C07D  F056         	call	_MapRGB	;wreg free
  2369  001E18  EC56  F014         	movff	0+?_MapRGB,(_B)
  2370  001E1C  C04B  F088         	movff	1+?_MapRGB,(_B+1)
  2371  001E20  C04C  F089         	line	49
  2372                           	
  2373                           l3300:
  2374  001E24                     ;main.c: 49:         if(B>255)
  2375                           	movlb	0	; () banked
  2376  001E24  0100               		decf	((_B+1))&0ffh,w
  2377  001E26  0589               	btfss	status,0
  2378  001E28  A0D8               	goto	u4241
  2379  001E2A  EF19  F00F         	goto	u4240
  2380  001E2E  EF1B  F00F         
  2381                           u4241:
  2382  001E32                     	goto	l3304
  2383  001E32  EF20  F00F         u4240:
  2384  001E36                     	line	50
  2385                           	
  2386                           l3302:; BSR set to: 0
  2387  001E36                     
  2388                           ;main.c: 50:             B = 255;
  2389                           	movlw	high(0FFh)
  2390  001E36  0E00               	movwf	((_B+1))&0ffh
  2391  001E38  6F89               	setf	((_B))&0ffh
  2392  001E3A  6988               	goto	l3304
  2393  001E3C  EF20  F00F         	
  2394                           l125:; BSR set to: 0
  2395  001E40                     
  2396                           	line	51
  2397                           	
  2398                           l3304:; BSR set to: 0
  2399  001E40                     
  2400                           ;main.c: 51:         sprintf(value,"%d   ",B);
  2401                           		movlw	low(main@value)
  2402  001E40  0E68               	movwf	((c:sprintf@s)),c
  2403  001E42  6E58               	movlw	high(main@value)
  2404  001E44  0E00               	movwf	((c:sprintf@s+1)),c
  2405  001E46  6E59               
  2406                           		movlw	low(STR_3)
  2407  001E48  0E11               	movwf	((c:sprintf@fmt)),c
  2408  001E4A  6E5A               	movlw	high(STR_3)
  2409  001E4C  0E06               	movwf	((c:sprintf@fmt+1)),c
  2410  001E4E  6E5B               
  2411                           	movff	(_B),0+((c:?_sprintf)+04h)
  2412  001E50  C088  F05C         	movff	(_B+1),1+((c:?_sprintf)+04h)
  2413  001E54  C089  F05D         	call	_sprintf	;wreg free
  2414  001E58  EC19  F017         	line	52
  2415                           	
  2416                           l3306:
  2417  001E5C                     ;main.c: 52:         USART_SendString(value);
  2418                           		movlw	low(main@value)
  2419  001E5C  0E68               	movwf	((c:USART_SendString@out)),c
  2420  001E5E  6E02               	movlw	high(main@value)
  2421  001E60  0E00               	movwf	((c:USART_SendString@out+1)),c
  2422  001E62  6E03               
  2423                           	call	_USART_SendString	;wreg free
  2424  001E64  ECE6  F016         	line	53
  2425                           	
  2426                           l3308:
  2427  001E68                     ;main.c: 53:         USART_TxChar(0x0A);
  2428                           	movlw	(0Ah)&0ffh
  2429  001E68  0E0A               	
  2430                           	call	_USART_TxChar
  2431  001E6A  ECEA  F017         	line	54
  2432                           	
  2433                           l3310:
  2434  001E6E                     ;main.c: 54:         USART_TxChar(0x0D);
  2435                           	movlw	(0Dh)&0ffh
  2436  001E6E  0E0D               	
  2437                           	call	_USART_TxChar
  2438  001E70  ECEA  F017         	line	55
  2439                           	
  2440                           l3312:
  2441  001E74                     ;main.c: 55:         buzz(R,G,B);
  2442                           	movff	(_R),(c:buzz@red)
  2443  001E74  C0B0  F007         	movff	(_R+1),(c:buzz@red+1)
  2444  001E78  C0B1  F008         	movff	(_G),(c:buzz@green)
  2445  001E7C  C08A  F009         	movff	(_G+1),(c:buzz@green+1)
  2446  001E80  C08B  F00A         	movff	(_B),(c:buzz@blue)
  2447  001E84  C088  F00B         	movff	(_B+1),(c:buzz@blue+1)
  2448  001E88  C089  F00C         	call	_buzz	;wreg free
  2449  001E8C  ECE1  F005         	line	58
  2450                           	
  2451                           l3314:
  2452  001E90                     ;main.c: 58:         memset(value,0,10);
  2453                           		movlw	low(main@value)
  2454  001E90  0E68               	movwf	((c:memset@dest)),c
  2455  001E92  6E01               	movlw	high(main@value)
  2456  001E94  0E00               	movwf	((c:memset@dest+1)),c
  2457  001E96  6E02               
  2458                           	movlw	high(0)
  2459  001E98  0E00               	movwf	((c:memset@c+1)),c
  2460  001E9A  6E04               	movlw	low(0)
  2461  001E9C  0E00               	movwf	((c:memset@c)),c
  2462  001E9E  6E03               	movlw	high(0Ah)
  2463  001EA0  0E00               	movwf	((c:memset@n+1)),c
  2464  001EA2  6E06               	movlw	low(0Ah)
  2465  001EA4  0E0A               	movwf	((c:memset@n)),c
  2466  001EA6  6E05               	call	_memset	;wreg free
  2467  001EA8  EC30  F011         	goto	l3268
  2468  001EAC  EF50  F00E         	line	60
  2469                           ;main.c: 60:      }
  2470                           	
  2471                           l126:
  2472  001EB0                     	goto	l3268
  2473  001EB0  EF50  F00E         	
  2474                           l127:
  2475  001EB4                     	line	62
  2476                           ;main.c: 61:     return;
  2477                           	
  2478                           l128:
  2479  001EB4                     	global	start
  2480                           	goto	start
  2481  001EB4  EF07  F000         	opt stack 0
  2482                           GLOBAL	__end_of_main
  2483                           	__end_of_main:
  2484  001EB8                     	signat	_main,89
  2485                           	global	_sprintf
  2486                           
  2487 ;; *************** function _sprintf *****************
  2488 ;; Defined at:
  2489 ;;		line 9 in file "C:\Program Files (x86)\Microchip\xc8\v2.00\pic\sources\c99\common\nf_sprintf.c"
  2490 ;; Parameters:    Size  Location     Type
  2491 ;;  s               2   87[COMRAM] PTR unsigned char 
  2492 ;;		 -> main@value(10), 
  2493 ;;  fmt             2   89[COMRAM] PTR const unsigned char 
  2494 ;;		 -> STR_3(6), STR_2(6), STR_1(7), 
  2495 ;; Auto vars:     Size  Location     Type
  2496 ;;  f               6   97[COMRAM] struct _IO_FILE
  2497 ;;  ap              2   95[COMRAM] PTR void [1]
  2498 ;;		 -> ?_sprintf(2), 
  2499 ;;  ret             2   93[COMRAM] int 
  2500 ;; Return value:  Size  Location     Type
  2501 ;;                  2   87[COMRAM] int 
  2502 ;; Registers used:
  2503 ;;		wreg, fsr1l, fsr1h, fsr2l, fsr2h, status,2, status,0, tblptrl, tblptrh, tblptru, cstack
  2504 ;; Tracked objects:
  2505 ;;		On entry : 0/0
  2506 ;;		On exit  : 0/0
  2507 ;;		Unchanged: 0/0
  2508 ;; Data sizes:     COMRAM   BANK0   BANK1   BANK2   BANK3   BANK4   BANK5
  2509 ;;      Params:         6       0       0       0       0       0       0
  2510 ;;      Locals:        10       0       0       0       0       0       0
  2511 ;;      Temps:          0       0       0       0       0       0       0
  2512 ;;      Totals:        16       0       0       0       0       0       0
  2513 ;;Total ram usage:       16 bytes
  2514 ;; Hardware stack levels used:    1
  2515 ;; Hardware stack levels required when called:    8
  2516 ;; This function calls:
  2517 ;;		_vfprintf
  2518 ;; This function is called by:
  2519 ;;		_main
  2520 ;; This function uses a non-reentrant model
  2521 ;;
  2522                           psect	text1,class=CODE,space=0,reloc=2,group=2
  2523                           	file	"C:\Program Files (x86)\Microchip\xc8\v2.00\pic\sources\c99\common\nf_sprintf.c"
  2524                           	line	9
  2525                           global __ptext1
  2526                           __ptext1:
  2527  002E32                     psect	text1
  2528                           	file	"C:\Program Files (x86)\Microchip\xc8\v2.00\pic\sources\c99\common\nf_sprintf.c"
  2529                           	line	9
  2530                           	global	__size_of_sprintf
  2531                           	__size_of_sprintf	equ	__end_of_sprintf-_sprintf
  2532  0000                     	
  2533                           _sprintf:
  2534  002E32                     ;incstack = 0
  2535                           	opt	stack 22
  2536                           	line	15
  2537                           	
  2538                           l3204:
  2539  002E32                     		movlw	low(?_sprintf+04h)
  2540  002E32  0E5C               	movwf	((c:sprintf@ap)),c
  2541  002E34  6E60               	movlw	high(?_sprintf+04h)
  2542  002E36  0E00               	movwf	((c:sprintf@ap+1)),c
  2543  002E38  6E61               
  2544                           	line	16
  2545                           		movff	(c:sprintf@s),(c:sprintf@f)
  2546  002E3A  C058  F062         	movff	(c:sprintf@s+1),(c:sprintf@f+1)
  2547  002E3E  C059  F063         
  2548                           	line	17
  2549                           	
  2550                           l3206:
  2551  002E42                     	movlw	high(0)
  2552  002E42  0E00               	movwf	(1+((c:sprintf@f)+02h)),c
  2553  002E44  6E65               	movlw	low(0)
  2554  002E46  0E00               	movwf	(0+((c:sprintf@f)+02h)),c
  2555  002E48  6E64               	line	18
  2556                           	
  2557                           l3208:
  2558  002E4A                     	movlw	high(0)
  2559  002E4A  0E00               	movwf	(1+((c:sprintf@f)+04h)),c
  2560  002E4C  6E67               	movlw	low(0)
  2561  002E4E  0E00               	movwf	(0+((c:sprintf@f)+04h)),c
  2562  002E50  6E66               	line	19
  2563                           	
  2564                           l3210:
  2565  002E52                     		movlw	low(sprintf@f)
  2566  002E52  0E62               	movwf	((c:vfprintf@fp)),c
  2567  002E54  6E50               	movlw	high(sprintf@f)
  2568  002E56  0E00               	movwf	((c:vfprintf@fp+1)),c
  2569  002E58  6E51               
  2570                           		movff	(c:sprintf@fmt),(c:vfprintf@fmt)
  2571  002E5A  C05A  F052         	movff	(c:sprintf@fmt+1),(c:vfprintf@fmt+1)
  2572  002E5E  C05B  F053         
  2573                           		movlw	low(sprintf@ap)
  2574  002E62  0E60               	movwf	((c:vfprintf@ap)),c
  2575  002E64  6E54               	movlw	high(sprintf@ap)
  2576  002E66  0E00               	movwf	((c:vfprintf@ap+1)),c
  2577  002E68  6E55               
  2578                           	call	_vfprintf	;wreg free
  2579  002E6A  ECB3  F016         	movff	0+?_vfprintf,(c:sprintf@ret)
  2580  002E6E  C050  F05E         	movff	1+?_vfprintf,(c:sprintf@ret+1)
  2581  002E72  C051  F05F         	line	20
  2582                           	
  2583                           l3212:
  2584  002E76                     	movf	(0+((c:sprintf@f)+02h)),c,w
  2585  002E76  5064               	addwf	((c:sprintf@s)),c,w
  2586  002E78  2458               	movwf	c:fsr2l
  2587  002E7A  6ED9               	movf	(1+((c:sprintf@f)+02h)),c,w
  2588  002E7C  5065               	addwfc	((c:sprintf@s+1)),c,w
  2589  002E7E  2059               	movwf	1+c:fsr2l
  2590  002E80  6EDA               	movlw	low(0)
  2591  002E82  0E00               	movwf	indf2
  2592  002E84  6EDF               	goto	l993
  2593  002E86  EF45  F017         	line	22
  2594                           	
  2595                           l3214:
  2596  002E8A                     	line	23
  2597                           ;	Return value of _sprintf is never used
  2598                           	
  2599                           l993:
  2600  002E8A                     	return	;funcret
  2601  002E8A  0012               	opt stack 0
  2602                           GLOBAL	__end_of_sprintf
  2603                           	__end_of_sprintf:
  2604  002E8C                     	signat	_sprintf,4698
  2605                           	global	_vfprintf
  2606                           
  2607 ;; *************** function _vfprintf *****************
  2608 ;; Defined at:
  2609 ;;		line 1368 in file "C:\Program Files (x86)\Microchip\xc8\v2.00\pic\sources\c99\common\doprnt.c"
  2610 ;; Parameters:    Size  Location     Type
  2611 ;;  fp              2   79[COMRAM] PTR struct _IO_FILE
  2612 ;;		 -> sprintf@f(6), 
  2613 ;;  fmt             2   81[COMRAM] PTR const unsigned char 
  2614 ;;		 -> STR_3(6), STR_2(6), STR_1(7), 
  2615 ;;  ap              2   83[COMRAM] PTR PTR void 
  2616 ;;		 -> sprintf@ap(2), 
  2617 ;; Auto vars:     Size  Location     Type
  2618 ;;  cfmt            2   85[COMRAM] PTR unsigned char 
  2619 ;;		 -> STR_3(6), STR_2(6), STR_1(7), 
  2620 ;; Return value:  Size  Location     Type
  2621 ;;                  2   79[COMRAM] int 
  2622 ;; Registers used:
  2623 ;;		wreg, fsr1l, fsr1h, fsr2l, fsr2h, status,2, status,0, tblptrl, tblptrh, tblptru, cstack
  2624 ;; Tracked objects:
  2625 ;;		On entry : 0/0
  2626 ;;		On exit  : 0/0
  2627 ;;		Unchanged: 0/0
  2628 ;; Data sizes:     COMRAM   BANK0   BANK1   BANK2   BANK3   BANK4   BANK5
  2629 ;;      Params:         6       0       0       0       0       0       0
  2630 ;;      Locals:         2       0       0       0       0       0       0
  2631 ;;      Temps:          0       0       0       0       0       0       0
  2632 ;;      Totals:         8       0       0       0       0       0       0
  2633 ;;Total ram usage:        8 bytes
  2634 ;; Hardware stack levels used:    1
  2635 ;; Hardware stack levels required when called:    7
  2636 ;; This function calls:
  2637 ;;		_vfpfcnvrt
  2638 ;; This function is called by:
  2639 ;;		_sprintf
  2640 ;; This function uses a non-reentrant model
  2641 ;;
  2642                           psect	text2,class=CODE,space=0,reloc=2,group=0
  2643                           	file	"C:\Program Files (x86)\Microchip\xc8\v2.00\pic\sources\c99\common\doprnt.c"
  2644                           	line	1368
  2645                           global __ptext2
  2646                           __ptext2:
  2647  002D66                     psect	text2
  2648                           	file	"C:\Program Files (x86)\Microchip\xc8\v2.00\pic\sources\c99\common\doprnt.c"
  2649                           	line	1368
  2650                           	global	__size_of_vfprintf
  2651                           	__size_of_vfprintf	equ	__end_of_vfprintf-_vfprintf
  2652  0000                     	
  2653                           _vfprintf:
  2654  002D66                     ;incstack = 0
  2655                           	opt	stack 22
  2656                           	line	1373
  2657                           	
  2658                           l2456:
  2659  002D66                     ;C:\Program Files (x86)\Microchip\xc8\v2.00\pic\sources\c99\common\doprnt.c: 1368: int v
                                 fprintf(FILE *fp, const char *fmt, va_list ap);C:\Program Files (x86)\Microchip\xc8\v2.0
                                 0\pic\sources\c99\common\doprnt.c: 1369: {;C:\Program Files (x86)\Microchip\xc8\v2.00\pi
                                 c\sources\c99\common\doprnt.c: 1371:     char *cfmt;;C:\Program Files (x86)\Microchip\xc
                                 8\v2.00\pic\sources\c99\common\doprnt.c: 1373:     cfmt = (char *)fmt;
  2660                           		movff	(c:vfprintf@fmt),(c:vfprintf@cfmt)
  2661  002D66  C052  F056         	movff	(c:vfprintf@fmt+1),(c:vfprintf@cfmt+1)
  2662  002D6A  C053  F057         
  2663                           	line	1374
  2664                           	
  2665                           l2458:
  2666  002D6E                     ;C:\Program Files (x86)\Microchip\xc8\v2.00\pic\sources\c99\common\doprnt.c: 1374:     n
                                 out = 0;
  2667                           	movlw	high(0)
  2668  002D6E  0E00               	movlb	0	; () banked
  2669  002D70  0100               	movwf	((_nout+1))&0ffh
  2670  002D72  6F81               	movlw	low(0)
  2671  002D74  0E00               	movwf	((_nout))&0ffh
  2672  002D76  6F80               	line	1375
  2673                           ;C:\Program Files (x86)\Microchip\xc8\v2.00\pic\sources\c99\common\doprnt.c: 1375:     w
                                 hile (*cfmt) {
  2674                           	goto	l2462
  2675  002D78  EFD3  F016         	
  2676                           l273:; BSR set to: 0
  2677  002D7C                     
  2678                           	line	1376
  2679                           	
  2680                           l2460:; BSR set to: 0
  2681  002D7C                     
  2682                           ;C:\Program Files (x86)\Microchip\xc8\v2.00\pic\sources\c99\common\doprnt.c: 1376:      
                                    nout += vfpfcnvrt(fp, &cfmt, ap);
  2683                           		movff	(c:vfprintf@fp),(c:vfpfcnvrt@fp)
  2684  002D7C  C050  F040         	movff	(c:vfprintf@fp+1),(c:vfpfcnvrt@fp+1)
  2685  002D80  C051  F041         
  2686                           		movlw	low(vfprintf@cfmt)
  2687  002D84  0E56               	movwf	((c:vfpfcnvrt@fmt)),c
  2688  002D86  6E42               	movlw	high(vfprintf@cfmt)
  2689  002D88  0E00               	movwf	((c:vfpfcnvrt@fmt+1)),c
  2690  002D8A  6E43               
  2691                           		movff	(c:vfprintf@ap),(c:vfpfcnvrt@ap)
  2692  002D8C  C054  F044         	movff	(c:vfprintf@ap+1),(c:vfpfcnvrt@ap+1)
  2693  002D90  C055  F045         
  2694                           	call	_vfpfcnvrt	;wreg free
  2695  002D94  EC4A  F010         	movf	(0+?_vfpfcnvrt),c,w
  2696  002D98  5040               	movlb	0	; () banked
  2697  002D9A  0100               	addwf	((_nout))&0ffh
  2698  002D9C  2780               	movf	(1+?_vfpfcnvrt),c,w
  2699  002D9E  5041               	addwfc	((_nout+1))&0ffh
  2700  002DA0  2381               
  2701                           	goto	l2462
  2702  002DA2  EFD3  F016         	line	1377
  2703                           ;C:\Program Files (x86)\Microchip\xc8\v2.00\pic\sources\c99\common\doprnt.c: 1377:     }
                                 
  2704                           	
  2705                           l272:; BSR set to: 0
  2706  002DA6                     
  2707                           	line	1375
  2708                           	
  2709                           l2462:; BSR set to: 0
  2710  002DA6                     
  2711                           ;C:\Program Files (x86)\Microchip\xc8\v2.00\pic\sources\c99\common\doprnt.c: 1375:     w
                                 hile (*cfmt) {
  2712                           	movff	(c:vfprintf@cfmt),tblptrl
  2713  002DA6  C056  FFF6         	movff	(c:vfprintf@cfmt+1),tblptrh
  2714  002DAA  C057  FFF7         	if	0	;tblptru may be non-zero
  2715  002DAE                     	clrf	tblptru
  2717  002DAE                     	if	0	;tblptru may be non-zero
  2718  002DAE                     	global __mediumconst
  2719                           movlw	low highword(__mediumconst)
  2722  002DAE                     	tblrd	*
  2723  002DAE  0008               	
  2724                           	movf	tablat,w
  2725  002DB0  50F5               	iorlw	0
  2726  002DB2  0900               	btfss	status,2
  2727  002DB4  A4D8               	goto	u2651
  2728  002DB6  EFDF  F016         	goto	u2650
  2729  002DBA  EFE1  F016         u2651:
  2730  002DBE                     	goto	l2460
  2731  002DBE  EFBE  F016         u2650:
  2732  002DC2                     	
  2733                           l274:; BSR set to: 0
  2734  002DC2                     
  2735                           	line	1378
  2736                           ;C:\Program Files (x86)\Microchip\xc8\v2.00\pic\sources\c99\common\doprnt.c: 1378:     r
                                 eturn nout;
  2737                           	movff	(_nout),(c:?_vfprintf)
  2738  002DC2  C080  F050         	movff	(_nout+1),(c:?_vfprintf+1)
  2739  002DC6  C081  F051         	line	1382
  2740                           	
  2741                           l275:; BSR set to: 0
  2742  002DCA                     
  2743                           	return	;funcret
  2744  002DCA  0012               	opt stack 0
  2745                           GLOBAL	__end_of_vfprintf
  2746                           	__end_of_vfprintf:
  2747  002DCC                     	signat	_vfprintf,12410
  2748                           	global	_vfpfcnvrt
  2749                           
  2750 ;; *************** function _vfpfcnvrt *****************
  2751 ;; Defined at:
  2752 ;;		line 670 in file "C:\Program Files (x86)\Microchip\xc8\v2.00\pic\sources\c99\common\doprnt.c"
  2753 ;; Parameters:    Size  Location     Type
  2754 ;;  fp              2   63[COMRAM] PTR struct _IO_FILE
  2755 ;;		 -> sprintf@f(6), 
  2756 ;;  fmt             2   65[COMRAM] PTR PTR unsigned char 
  2757 ;;		 -> vfprintf@cfmt(2), 
  2758 ;;  ap              2   67[COMRAM] PTR PTR void 
  2759 ;;		 -> sprintf@ap(2), 
  2760 ;; Auto vars:     Size  Location     Type
  2761 ;;  ll              8   71[COMRAM] long long 
  2762 ;;  llu             8    0        unsigned long long 
  2763 ;;  f               4    0        unsigned long long 
  2764 ;;  vp              3    0        PTR void 
  2765 ;;  ct              3    0        unsigned char [3]
  2766 ;;  cp              3    0        PTR unsigned char 
  2767 ;;  i               2    0        int 
  2768 ;;  done            2    0        int 
  2769 ;;  c               1    0        unsigned char 
  2770 ;; Return value:  Size  Location     Type
  2771 ;;                  2   63[COMRAM] int 
  2772 ;; Registers used:
  2773 ;;		wreg, fsr1l, fsr1h, fsr2l, fsr2h, status,2, status,0, tblptrl, tblptrh, tblptru, cstack
  2774 ;; Tracked objects:
  2775 ;;		On entry : 0/0
  2776 ;;		On exit  : 0/0
  2777 ;;		Unchanged: 0/0
  2778 ;; Data sizes:     COMRAM   BANK0   BANK1   BANK2   BANK3   BANK4   BANK5
  2779 ;;      Params:         6       0       0       0       0       0       0
  2780 ;;      Locals:         8       0       0       0       0       0       0
  2781 ;;      Temps:          2       0       0       0       0       0       0
  2782 ;;      Totals:        16       0       0       0       0       0       0
  2783 ;;Total ram usage:       16 bytes
  2784 ;; Hardware stack levels used:    1
  2785 ;; Hardware stack levels required when called:    6
  2786 ;; This function calls:
  2787 ;;		_dtoa
  2788 ;;		_fputc
  2789 ;; This function is called by:
  2790 ;;		_vfprintf
  2791 ;; This function uses a non-reentrant model
  2792 ;;
  2793                           psect	text3,class=CODE,space=0,reloc=2,group=0
  2794                           	line	670
  2795                           global __ptext3
  2796                           __ptext3:
  2797  002094                     psect	text3
  2798                           	file	"C:\Program Files (x86)\Microchip\xc8\v2.00\pic\sources\c99\common\doprnt.c"
  2799                           	line	670
  2800                           	global	__size_of_vfpfcnvrt
  2801                           	__size_of_vfpfcnvrt	equ	__end_of_vfpfcnvrt-_vfpfcnvrt
  2802  0000                     	
  2803                           _vfpfcnvrt:; BSR set to: 0
  2804  002094                     
  2805                           ;incstack = 0
  2806                           	opt	stack 22
  2807                           	line	680
  2808                           	
  2809                           l2384:
  2810  002094                     ;C:\Program Files (x86)\Microchip\xc8\v2.00\pic\sources\c99\common\doprnt.c: 670: static
                                  int vfpfcnvrt(FILE *fp, char *fmt[], va_list ap);C:\Program Files (x86)\Microchip\xc8\v
                                 2.00\pic\sources\c99\common\doprnt.c: 671: {;C:\Program Files (x86)\Microchip\xc8\v2.00\
                                 pic\sources\c99\common\doprnt.c: 672:     char c, *cp, ct[3];;C:\Program Files (x86)\Mic
                                 rochip\xc8\v2.00\pic\sources\c99\common\doprnt.c: 673:     int done, i;;C:\Program Files
                                  (x86)\Microchip\xc8\v2.00\pic\sources\c99\common\doprnt.c: 674:     long long ll;
  2811                           	movff	(c:vfpfcnvrt@fmt),fsr2l
  2812  002094  C042  FFD9         	movff	(c:vfpfcnvrt@fmt+1),fsr2h
  2813  002098  C043  FFDA         	movff	postinc2,tblptrl
  2814  00209C  CFDE FFF6          	movff	postdec2,tblptrh
  2815  0020A0  CFDD FFF7          	if	0	;tblptru may be non-zero
  2816  0020A4                     	clrf	tblptru
  2818  0020A4                     	if	0	;tblptru may be non-zero
  2819  0020A4                     	global __mediumconst
  2820                           movlw	low highword(__mediumconst)
  2823  0020A4                     	tblrd	*
  2824  0020A4  0008               	
  2825                           	movf	tablat,w
  2826  0020A6  50F5               	xorlw	025h
  2827  0020A8  0A25               	btfss	status,2
  2828  0020AA  A4D8               	goto	u2571
  2829  0020AC  EF5A  F010         	goto	u2570
  2830  0020B0  EF5C  F010         u2571:
  2831  0020B4                     	goto	l2418
  2832  0020B4  EF10  F011         u2570:
  2833  0020B8                     	line	681
  2834                           	
  2835                           l2386:
  2836  0020B8                     ;C:\Program Files (x86)\Microchip\xc8\v2.00\pic\sources\c99\common\doprnt.c: 681:       
                                   ++*fmt;
  2837                           	movff	(c:vfpfcnvrt@fmt),fsr2l
  2838  0020B8  C042  FFD9         	movff	(c:vfpfcnvrt@fmt+1),fsr2h
  2839  0020BC  C043  FFDA         	incf	postinc2
  2840  0020C0  2ADE               	movlw	0
  2841  0020C2  0E00               	addwfc	postdec2
  2842  0020C4  22DD               	line	683
  2843                           	
  2844                           l2388:
  2845  0020C6                     ;C:\Program Files (x86)\Microchip\xc8\v2.00\pic\sources\c99\common\doprnt.c: 683:       
                                   flags = width = 0;
  2846                           	movlw	high(0)
  2847  0020C6  0E00               	movlb	0	; () banked
  2848  0020C8  0100               	movwf	((_width+1))&0ffh
  2849  0020CA  6F83               	movlw	low(0)
  2850  0020CC  0E00               	movwf	((_width))&0ffh
  2851  0020CE  6F82               	movff	(_width),(_flags)
  2852  0020D0  C082  F086         	movff	(_width+1),(_flags+1)
  2853  0020D4  C083  F087         	line	684
  2854                           	
  2855                           l2390:; BSR set to: 0
  2856  0020D8                     
  2857                           ;C:\Program Files (x86)\Microchip\xc8\v2.00\pic\sources\c99\common\doprnt.c: 684:       
                                   prec = -1;
  2858                           	setf	((_prec))&0ffh
  2859  0020D8  6984               	setf	((_prec+1))&0ffh
  2860  0020DA  6985               	line	825
  2861                           	
  2862                           l2392:; BSR set to: 0
  2863  0020DC                     
  2864                           ;C:\Program Files (x86)\Microchip\xc8\v2.00\pic\sources\c99\common\doprnt.c: 825:       
                                   if ((*fmt[0] == 'd') || (*fmt[0] == 'i')) {
  2865                           	movff	(c:vfpfcnvrt@fmt),fsr2l
  2866  0020DC  C042  FFD9         	movff	(c:vfpfcnvrt@fmt+1),fsr2h
  2867  0020E0  C043  FFDA         	movff	postinc2,tblptrl
  2868  0020E4  CFDE FFF6          	movff	postdec2,tblptrh
  2869  0020E8  CFDD FFF7          	if	0	;tblptru may be non-zero
  2870  0020EC                     	clrf	tblptru
  2872  0020EC                     	if	0	;tblptru may be non-zero
  2873  0020EC                     	global __mediumconst
  2874                           movlw	low highword(__mediumconst)
  2877  0020EC                     	tblrd	*
  2878  0020EC  0008               	
  2879                           	movf	tablat,w
  2880  0020EE  50F5               	xorlw	064h
  2881  0020F0  0A64               	btfsc	status,2
  2882  0020F2  B4D8               	goto	u2581
  2883  0020F4  EF7E  F010         	goto	u2580
  2884  0020F8  EF80  F010         u2581:
  2885  0020FC                     	goto	l2396
  2886  0020FC  EF94  F010         u2580:
  2887  002100                     	
  2888                           l2394:; BSR set to: 0
  2889  002100                     
  2890                           	movff	(c:vfpfcnvrt@fmt),fsr2l
  2891  002100  C042  FFD9         	movff	(c:vfpfcnvrt@fmt+1),fsr2h
  2892  002104  C043  FFDA         	movff	postinc2,tblptrl
  2893  002108  CFDE FFF6          	movff	postdec2,tblptrh
  2894  00210C  CFDD FFF7          	if	0	;tblptru may be non-zero
  2895  002110                     	clrf	tblptru
  2897  002110                     	if	0	;tblptru may be non-zero
  2898  002110                     	global __mediumconst
  2899                           movlw	low highword(__mediumconst)
  2902  002110                     	tblrd	*
  2903  002110  0008               	
  2904                           	movf	tablat,w
  2905  002112  50F5               	xorlw	069h
  2906  002114  0A69               	btfss	status,2
  2907  002116  A4D8               	goto	u2591
  2908  002118  EF90  F010         	goto	u2590
  2909  00211C  EF92  F010         u2591:
  2910  002120                     	goto	l2402
  2911  002120  EFD6  F010         u2590:
  2912  002124                     	goto	l2396
  2913  002124  EF94  F010         	
  2914                           l267:; BSR set to: 0
  2915  002128                     
  2916                           	line	827
  2917                           	
  2918                           l2396:; BSR set to: 0
  2919  002128                     
  2920                           ;C:\Program Files (x86)\Microchip\xc8\v2.00\pic\sources\c99\common\doprnt.c: 827:       
                                       ++*fmt;
  2921                           	movff	(c:vfpfcnvrt@fmt),fsr2l
  2922  002128  C042  FFD9         	movff	(c:vfpfcnvrt@fmt+1),fsr2h
  2923  00212C  C043  FFDA         	incf	postinc2
  2924  002130  2ADE               	movlw	0
  2925  002132  0E00               	addwfc	postdec2
  2926  002134  22DD               	line	828
  2927                           ;C:\Program Files (x86)\Microchip\xc8\v2.00\pic\sources\c99\common\doprnt.c: 828:       
                                       ll = (long long)(*(int *)__va_arg(*(int **)ap, (int)0));
  2928                           	movff	(c:vfpfcnvrt@ap),fsr2l
  2929  002136  C044  FFD9         	movff	(c:vfpfcnvrt@ap+1),fsr2h
  2930  00213A  C045  FFDA         	movff	indf2,??_vfpfcnvrt+0+0
  2931  00213E  CFDF F046          	movlw	low(02h)
  2932  002142  0E02               	addwf	postinc2
  2933  002144  26DE               	movff	indf2,??_vfpfcnvrt+0+0+1
  2934  002146  CFDF F047          	movlw	high(02h)
  2935  00214A  0E00               	addwfc	postdec2
  2936  00214C  22DD               	movff	??_vfpfcnvrt+0+0,fsr2l
  2937  00214E  C046  FFD9         	movff	??_vfpfcnvrt+0+1,fsr2h
  2938  002152  C047  FFDA         	movff	postinc2,(c:vfpfcnvrt@ll)
  2939  002156  CFDE F048          	movff	postdec2,(c:vfpfcnvrt@ll+1)
  2940  00215A  CFDD F049          	movlw	0
  2941  00215E  0E00               	btfsc	((c:vfpfcnvrt@ll+1)),c,7
  2942  002160  BE49               	movlw	-1
  2943  002162  0EFF               	movwf	((c:vfpfcnvrt@ll+2)),c
  2944  002164  6E4A               	movwf	((c:vfpfcnvrt@ll+3)),c
  2945  002166  6E4B               	movwf	((c:vfpfcnvrt@ll+4)),c
  2946  002168  6E4C               	movwf	((c:vfpfcnvrt@ll+5)),c
  2947  00216A  6E4D               	movwf	((c:vfpfcnvrt@ll+6)),c
  2948  00216C  6E4E               	movwf	((c:vfpfcnvrt@ll+7)),c
  2949  00216E  6E4F               	line	830
  2950                           	
  2951                           l2398:; BSR set to: 0
  2952  002170                     
  2953                           ;C:\Program Files (x86)\Microchip\xc8\v2.00\pic\sources\c99\common\doprnt.c: 830:       
                                       return dtoa(fp, ll);
  2954                           		movff	(c:vfpfcnvrt@fp),(c:dtoa@fp)
  2955  002170  C040  F01C         	movff	(c:vfpfcnvrt@fp+1),(c:dtoa@fp+1)
  2956  002174  C041  F01D         
  2957                           	movff	(c:vfpfcnvrt@ll),(c:dtoa@d)
  2958  002178  C048  F01E         	movff	(c:vfpfcnvrt@ll+1),(c:dtoa@d+1)
  2959  00217C  C049  F01F         	movff	(c:vfpfcnvrt@ll+2),(c:dtoa@d+2)
  2960  002180  C04A  F020         	movff	(c:vfpfcnvrt@ll+3),(c:dtoa@d+3)
  2961  002184  C04B  F021         	movff	(c:vfpfcnvrt@ll+4),(c:dtoa@d+4)
  2962  002188  C04C  F022         	movff	(c:vfpfcnvrt@ll+5),(c:dtoa@d+5)
  2963  00218C  C04D  F023         	movff	(c:vfpfcnvrt@ll+6),(c:dtoa@d+6)
  2964  002190  C04E  F024         	movff	(c:vfpfcnvrt@ll+7),(c:dtoa@d+7)
  2965  002194  C04F  F025         	call	_dtoa	;wreg free
  2966  002198  ECAD  F00C         	movff	0+?_dtoa,(c:?_vfpfcnvrt)
  2967  00219C  C01C  F040         	movff	1+?_dtoa,(c:?_vfpfcnvrt+1)
  2968  0021A0  C01D  F041         	goto	l268
  2969  0021A4  EF2F  F011         	
  2970                           l2400:
  2971  0021A8                     	goto	l268
  2972  0021A8  EF2F  F011         	line	831
  2973                           ;C:\Program Files (x86)\Microchip\xc8\v2.00\pic\sources\c99\common\doprnt.c: 831:       
                                   }
  2974                           	
  2975                           l265:
  2976  0021AC                     	line	1350
  2977                           	
  2978                           l2402:
  2979  0021AC                     ;C:\Program Files (x86)\Microchip\xc8\v2.00\pic\sources\c99\common\doprnt.c: 1350:      
                                    if ((*fmt)[0] == '%') {
  2980                           	movff	(c:vfpfcnvrt@fmt),fsr2l
  2981  0021AC  C042  FFD9         	movff	(c:vfpfcnvrt@fmt+1),fsr2h
  2982  0021B0  C043  FFDA         	movff	postinc2,tblptrl
  2983  0021B4  CFDE FFF6          	movff	postdec2,tblptrh
  2984  0021B8  CFDD FFF7          	if	0	;tblptru may be non-zero
  2985  0021BC                     	clrf	tblptru
  2987  0021BC                     	if	0	;tblptru may be non-zero
  2988  0021BC                     	global __mediumconst
  2989                           movlw	low highword(__mediumconst)
  2992  0021BC                     	tblrd	*
  2993  0021BC  0008               	
  2994                           	movf	tablat,w
  2995  0021BE  50F5               	xorlw	025h
  2996  0021C0  0A25               	btfss	status,2
  2997  0021C2  A4D8               	goto	u2601
  2998  0021C4  EFE6  F010         	goto	u2600
  2999  0021C8  EFE8  F010         u2601:
  3000  0021CC                     	goto	l2412
  3001  0021CC  EF01  F011         u2600:
  3002  0021D0                     	line	1351
  3003                           	
  3004                           l2404:
  3005  0021D0                     ;C:\Program Files (x86)\Microchip\xc8\v2.00\pic\sources\c99\common\doprnt.c: 1351:      
                                        ++*fmt;
  3006                           	movff	(c:vfpfcnvrt@fmt),fsr2l
  3007  0021D0  C042  FFD9         	movff	(c:vfpfcnvrt@fmt+1),fsr2h
  3008  0021D4  C043  FFDA         	incf	postinc2
  3009  0021D8  2ADE               	movlw	0
  3010  0021DA  0E00               	addwfc	postdec2
  3011  0021DC  22DD               	line	1352
  3012                           	
  3013                           l2406:
  3014  0021DE                     ;C:\Program Files (x86)\Microchip\xc8\v2.00\pic\sources\c99\common\doprnt.c: 1352:      
                                        fputc((int)'%', fp);
  3015                           	movlw	high(025h)
  3016  0021DE  0E00               	movwf	((c:fputc@c+1)),c
  3017  0021E0  6E02               	movlw	low(025h)
  3018  0021E2  0E25               	movwf	((c:fputc@c)),c
  3019  0021E4  6E01               		movff	(c:vfpfcnvrt@fp),(c:fputc@fp)
  3020  0021E6  C040  F003         	movff	(c:vfpfcnvrt@fp+1),(c:fputc@fp+1)
  3021  0021EA  C041  F004         
  3022                           	call	_fputc	;wreg free
  3023  0021EE  ECCF  F014         	line	1353
  3024                           	
  3025                           l2408:
  3026  0021F2                     ;C:\Program Files (x86)\Microchip\xc8\v2.00\pic\sources\c99\common\doprnt.c: 1353:      
                                        return 1;
  3027                           	movlw	high(01h)
  3028  0021F2  0E00               	movwf	((c:?_vfpfcnvrt+1)),c
  3029  0021F4  6E41               	movlw	low(01h)
  3030  0021F6  0E01               	movwf	((c:?_vfpfcnvrt)),c
  3031  0021F8  6E40               	goto	l268
  3032  0021FA  EF2F  F011         	
  3033                           l2410:
  3034  0021FE                     	goto	l268
  3035  0021FE  EF2F  F011         	line	1354
  3036                           ;C:\Program Files (x86)\Microchip\xc8\v2.00\pic\sources\c99\common\doprnt.c: 1354:      
                                    }
  3037                           	
  3038                           l269:
  3039  002202                     	line	1357
  3040                           	
  3041                           l2412:
  3042  002202                     ;C:\Program Files (x86)\Microchip\xc8\v2.00\pic\sources\c99\common\doprnt.c: 1357:      
                                    ++*fmt;
  3043                           	movff	(c:vfpfcnvrt@fmt),fsr2l
  3044  002202  C042  FFD9         	movff	(c:vfpfcnvrt@fmt+1),fsr2h
  3045  002206  C043  FFDA         	incf	postinc2
  3046  00220A  2ADE               	movlw	0
  3047  00220C  0E00               	addwfc	postdec2
  3048  00220E  22DD               	line	1358
  3049                           	
  3050                           l2414:
  3051  002210                     ;C:\Program Files (x86)\Microchip\xc8\v2.00\pic\sources\c99\common\doprnt.c: 1358:      
                                    return 0;
  3052                           	movlw	high(0)
  3053  002210  0E00               	movwf	((c:?_vfpfcnvrt+1)),c
  3054  002212  6E41               	movlw	low(0)
  3055  002214  0E00               	movwf	((c:?_vfpfcnvrt)),c
  3056  002216  6E40               	goto	l268
  3057  002218  EF2F  F011         	
  3058                           l2416:
  3059  00221C                     	goto	l268
  3060  00221C  EF2F  F011         	line	1359
  3061                           ;C:\Program Files (x86)\Microchip\xc8\v2.00\pic\sources\c99\common\doprnt.c: 1359:     }
                                 
  3062                           	
  3063                           l264:
  3064  002220                     	line	1362
  3065                           	
  3066                           l2418:
  3067  002220                     ;C:\Program Files (x86)\Microchip\xc8\v2.00\pic\sources\c99\common\doprnt.c: 1362:     f
                                 putc((int)(*fmt)[0], fp);
  3068                           	movff	(c:vfpfcnvrt@fmt),fsr2l
  3069  002220  C042  FFD9         	movff	(c:vfpfcnvrt@fmt+1),fsr2h
  3070  002224  C043  FFDA         	movff	postinc2,tblptrl
  3071  002228  CFDE FFF6          	movff	postdec2,tblptrh
  3072  00222C  CFDD FFF7          	if	0	;tblptru may be non-zero
  3073  002230                     	clrf	tblptru
  3075  002230                     	if	0	;tblptru may be non-zero
  3076  002230                     	global __mediumconst
  3077                           movlw	low highword(__mediumconst)
  3080  002230                     	tblrd	*
  3081  002230  0008               	
  3082                           	movf	tablat,w
  3083  002232  50F5               
  3084                           	movwf	((c:fputc@c)),c
  3085  002234  6E01               	clrf	((c:fputc@c+1)),c
  3086  002236  6A02               		movff	(c:vfpfcnvrt@fp),(c:fputc@fp)
  3087  002238  C040  F003         	movff	(c:vfpfcnvrt@fp+1),(c:fputc@fp+1)
  3088  00223C  C041  F004         
  3089                           	call	_fputc	;wreg free
  3090  002240  ECCF  F014         	line	1363
  3091                           	
  3092                           l2420:
  3093  002244                     ;C:\Program Files (x86)\Microchip\xc8\v2.00\pic\sources\c99\common\doprnt.c: 1363:     +
                                 +*fmt;
  3094                           	movff	(c:vfpfcnvrt@fmt),fsr2l
  3095  002244  C042  FFD9         	movff	(c:vfpfcnvrt@fmt+1),fsr2h
  3096  002248  C043  FFDA         	incf	postinc2
  3097  00224C  2ADE               	movlw	0
  3098  00224E  0E00               	addwfc	postdec2
  3099  002250  22DD               	line	1364
  3100                           	
  3101                           l2422:
  3102  002252                     ;C:\Program Files (x86)\Microchip\xc8\v2.00\pic\sources\c99\common\doprnt.c: 1364:     r
                                 eturn 1;
  3103                           	movlw	high(01h)
  3104  002252  0E00               	movwf	((c:?_vfpfcnvrt+1)),c
  3105  002254  6E41               	movlw	low(01h)
  3106  002256  0E01               	movwf	((c:?_vfpfcnvrt)),c
  3107  002258  6E40               	goto	l268
  3108  00225A  EF2F  F011         	
  3109                           l2424:
  3110  00225E                     	line	1365
  3111                           	
  3112                           l268:
  3113  00225E                     	return	;funcret
  3114  00225E  0012               	opt stack 0
  3115                           GLOBAL	__end_of_vfpfcnvrt
  3116                           	__end_of_vfpfcnvrt:
  3117  002260                     	signat	_vfpfcnvrt,12410
  3118                           	global	_dtoa
  3119                           
  3120 ;; *************** function _dtoa *****************
  3121 ;; Defined at:
  3122 ;;		line 274 in file "C:\Program Files (x86)\Microchip\xc8\v2.00\pic\sources\c99\common\doprnt.c"
  3123 ;; Parameters:    Size  Location     Type
  3124 ;;  fp              2   27[COMRAM] PTR struct _IO_FILE
  3125 ;;		 -> sprintf@f(6), 
  3126 ;;  d               8   29[COMRAM] long long 
  3127 ;; Auto vars:     Size  Location     Type
  3128 ;;  n               8   53[COMRAM] long long 
  3129 ;;  i               2   61[COMRAM] int 
  3130 ;;  s               2   51[COMRAM] int 
  3131 ;;  w               2   49[COMRAM] int 
  3132 ;;  p               2   47[COMRAM] int 
  3133 ;; Return value:  Size  Location     Type
  3134 ;;                  2   27[COMRAM] int 
  3135 ;; Registers used:
  3136 ;;		wreg, fsr1l, fsr1h, fsr2l, fsr2h, status,2, status,0, cstack
  3137 ;; Tracked objects:
  3138 ;;		On entry : 0/0
  3139 ;;		On exit  : 0/0
  3140 ;;		Unchanged: 0/0
  3141 ;; Data sizes:     COMRAM   BANK0   BANK1   BANK2   BANK3   BANK4   BANK5
  3142 ;;      Params:        10       0       0       0       0       0       0
  3143 ;;      Locals:        18       0       0       0       0       0       0
  3144 ;;      Temps:          8       0       0       0       0       0       0
  3145 ;;      Totals:        36       0       0       0       0       0       0
  3146 ;;Total ram usage:       36 bytes
  3147 ;; Hardware stack levels used:    1
  3148 ;; Hardware stack levels required when called:    5
  3149 ;; This function calls:
  3150 ;;		___aodiv
  3151 ;;		___aomod
  3152 ;;		_abs
  3153 ;;		_pad
  3154 ;; This function is called by:
  3155 ;;		_vfpfcnvrt
  3156 ;; This function uses a non-reentrant model
  3157 ;;
  3158                           psect	text4,class=CODE,space=0,reloc=2,group=0
  3159                           	line	274
  3160                           global __ptext4
  3161                           __ptext4:
  3162  00195A                     psect	text4
  3163                           	file	"C:\Program Files (x86)\Microchip\xc8\v2.00\pic\sources\c99\common\doprnt.c"
  3164                           	line	274
  3165                           	global	__size_of_dtoa
  3166                           	__size_of_dtoa	equ	__end_of_dtoa-_dtoa
  3167  0000                     	
  3168                           _dtoa:
  3169  00195A                     ;incstack = 0
  3170                           	opt	stack 22
  3171                           	line	280
  3172                           	
  3173                           l2322:
  3174  00195A                     ;C:\Program Files (x86)\Microchip\xc8\v2.00\pic\sources\c99\common\doprnt.c: 274: static
                                  int dtoa(FILE *fp, long long d);C:\Program Files (x86)\Microchip\xc8\v2.00\pic\sources\
                                 c99\common\doprnt.c: 275: {;C:\Program Files (x86)\Microchip\xc8\v2.00\pic\sources\c99\c
                                 ommon\doprnt.c: 276:     int i, p, s, w;;C:\Program Files (x86)\Microchip\xc8\v2.00\pic\
                                 sources\c99\common\doprnt.c: 277:     long long n;;C:\Program Files (x86)\Microchip\xc8\
                                 v2.00\pic\sources\c99\common\doprnt.c: 280:     n = d;
  3175                           	movff	(c:dtoa@d),(c:dtoa@n)
  3176  00195A  C01E  F036         	movff	(c:dtoa@d+1),(c:dtoa@n+1)
  3177  00195E  C01F  F037         	movff	(c:dtoa@d+2),(c:dtoa@n+2)
  3178  001962  C020  F038         	movff	(c:dtoa@d+3),(c:dtoa@n+3)
  3179  001966  C021  F039         	movff	(c:dtoa@d+4),(c:dtoa@n+4)
  3180  00196A  C022  F03A         	movff	(c:dtoa@d+5),(c:dtoa@n+5)
  3181  00196E  C023  F03B         	movff	(c:dtoa@d+6),(c:dtoa@n+6)
  3182  001972  C024  F03C         	movff	(c:dtoa@d+7),(c:dtoa@n+7)
  3183  001976  C025  F03D         	line	281
  3184                           	
  3185                           l2324:
  3186  00197A                     ;C:\Program Files (x86)\Microchip\xc8\v2.00\pic\sources\c99\common\doprnt.c: 281:     s 
                                 = n < 0 ? 1 : 0;
  3187                           	btfsc	((c:dtoa@n+7)),c,7
  3188  00197A  BE3D               	goto	u2421
  3189  00197C  EFC2  F00C         	goto	u2420
  3190  001980  EFC5  F00C         
  3191                           u2421:
  3192  001984                     	movlw	1
  3193  001984  0E01               	goto	u2430
  3194  001986  EFC6  F00C         u2420:
  3195  00198A                     	movlw	0
  3196  00198A  0E00               u2430:
  3197  00198C                     	movwf	((c:dtoa@s)),c
  3198  00198C  6E34               	clrf	((c:dtoa@s+1)),c
  3199  00198E  6A35               	line	282
  3200                           ;C:\Program Files (x86)\Microchip\xc8\v2.00\pic\sources\c99\common\doprnt.c: 282:     if
                                  (s) {
  3201                           	movf	((c:dtoa@s)),c,w
  3202  001990  5034               iorwf	((c:dtoa@s+1)),c,w
  3203  001992  1035               	btfsc	status,2
  3204  001994  B4D8               	goto	u2441
  3205  001996  EFCF  F00C         	goto	u2440
  3206  00199A  EFD1  F00C         
  3207                           u2441:
  3208  00199E                     	goto	l2328
  3209  00199E  EFE3  F00C         u2440:
  3210  0019A2                     	line	283
  3211                           	
  3212                           l2326:
  3213  0019A2                     ;C:\Program Files (x86)\Microchip\xc8\v2.00\pic\sources\c99\common\doprnt.c: 283:       
                                   n = -n;
  3214                           	comf	((c:dtoa@n+7)),c
  3215  0019A2  1E3D               	comf	((c:dtoa@n+6)),c
  3216  0019A4  1E3C               	comf	((c:dtoa@n+5)),c
  3217  0019A6  1E3B               	comf	((c:dtoa@n+4)),c
  3218  0019A8  1E3A               	comf	((c:dtoa@n+3)),c
  3219  0019AA  1E39               	comf	((c:dtoa@n+2)),c
  3220  0019AC  1E38               	comf	((c:dtoa@n+1)),c
  3221  0019AE  1E37               	negf	((c:dtoa@n)),c
  3222  0019B0  6C36               	movlw	0
  3223  0019B2  0E00               	addwfc	((c:dtoa@n+1)),c
  3224  0019B4  2237               	addwfc	((c:dtoa@n+2)),c
  3225  0019B6  2238               	addwfc	((c:dtoa@n+3)),c
  3226  0019B8  2239               	addwfc	((c:dtoa@n+4)),c
  3227  0019BA  223A               	addwfc	((c:dtoa@n+5)),c
  3228  0019BC  223B               	addwfc	((c:dtoa@n+6)),c
  3229  0019BE  223C               	addwfc	((c:dtoa@n+7)),c
  3230  0019C0  223D               	goto	l2328
  3231  0019C2  EFE3  F00C         	line	284
  3232                           ;C:\Program Files (x86)\Microchip\xc8\v2.00\pic\sources\c99\common\doprnt.c: 284:     }

  3233                           	
  3234                           l238:
  3235  0019C6                     	line	287
  3236                           	
  3237                           l2328:
  3238  0019C6                     ;C:\Program Files (x86)\Microchip\xc8\v2.00\pic\sources\c99\common\doprnt.c: 287:     if
                                  (!(prec < 0)) {
  3239                           	movlb	0	; () banked
  3240  0019C6  0100               	btfsc	((_prec+1))&0ffh,7
  3241  0019C8  BF85               	goto	u2451
  3242  0019CA  EFE9  F00C         	goto	u2450
  3243  0019CE  EFEB  F00C         
  3244                           u2451:
  3245  0019D2                     	goto	l2332
  3246  0019D2  EFEE  F00C         u2450:
  3247  0019D6                     	line	288
  3248                           	
  3249                           l2330:; BSR set to: 0
  3250  0019D6                     
  3251                           ;C:\Program Files (x86)\Microchip\xc8\v2.00\pic\sources\c99\common\doprnt.c: 288:       
                                   flags &= ~(1 << 1);
  3252                           	bcf	(0+(1/8)+(_flags))&0ffh,(1)&7
  3253  0019D6  9386               	goto	l2332
  3254  0019D8  EFEE  F00C         	line	289
  3255                           ;C:\Program Files (x86)\Microchip\xc8\v2.00\pic\sources\c99\common\doprnt.c: 289:     }

  3256                           	
  3257                           l239:; BSR set to: 0
  3258  0019DC                     
  3259                           	line	290
  3260                           	
  3261                           l2332:; BSR set to: 0
  3262  0019DC                     
  3263                           ;C:\Program Files (x86)\Microchip\xc8\v2.00\pic\sources\c99\common\doprnt.c: 290:     p 
                                 = (0 < prec) ? prec : 1;
  3264                           	btfsc	((_prec+1))&0ffh,7
  3265  0019DC  BF85               	goto	u2460
  3266  0019DE  EFFB  F00C         	movf	((_prec+1))&0ffh,w
  3267  0019E2  5185               	bnz	u2461
  3268  0019E4  E106               	decf	((_prec))&0ffh,w
  3269  0019E6  0584               	btfsc	status,0
  3270  0019E8  B0D8               	goto	u2461
  3271  0019EA  EFF9  F00C         	goto	u2460
  3272  0019EE  EFFB  F00C         
  3273                           u2461:
  3274  0019F2                     	goto	l241
  3275  0019F2  EF01  F00D         u2460:
  3276  0019F6                     	
  3277                           l2334:; BSR set to: 0
  3278  0019F6                     
  3279                           	movlw	high(01h)
  3280  0019F6  0E00               	movwf	((c:dtoa@p+1)),c
  3281  0019F8  6E31               	movlw	low(01h)
  3282  0019FA  0E01               	movwf	((c:dtoa@p)),c
  3283  0019FC  6E30               	goto	l243
  3284  0019FE  EF05  F00D         	
  3285                           l241:; BSR set to: 0
  3286  001A02                     
  3287                           	movff	(_prec),(c:dtoa@p)
  3288  001A02  C084  F030         	movff	(_prec+1),(c:dtoa@p+1)
  3289  001A06  C085  F031         	
  3290                           l243:; BSR set to: 0
  3291  001A0A                     
  3292                           	line	291
  3293                           ;C:\Program Files (x86)\Microchip\xc8\v2.00\pic\sources\c99\common\doprnt.c: 291:     w 
                                 = width;
  3294                           	movff	(_width),(c:dtoa@w)
  3295  001A0A  C082  F032         	movff	(_width+1),(c:dtoa@w+1)
  3296  001A0E  C083  F033         	line	292
  3297                           	
  3298                           l2336:; BSR set to: 0
  3299  001A12                     
  3300                           ;C:\Program Files (x86)\Microchip\xc8\v2.00\pic\sources\c99\common\doprnt.c: 292:     if
                                  (s || (flags & (1 << 2))) {
  3301                           	movf	((c:dtoa@s)),c,w
  3302  001A12  5034               iorwf	((c:dtoa@s+1)),c,w
  3303  001A14  1035               	btfss	status,2
  3304  001A16  A4D8               	goto	u2471
  3305  001A18  EF10  F00D         	goto	u2470
  3306  001A1C  EF12  F00D         
  3307                           u2471:
  3308  001A20                     	goto	l2340
  3309  001A20  EF1B  F00D         u2470:
  3310  001A24                     	
  3311                           l2338:; BSR set to: 0
  3312  001A24                     
  3313                           	
  3314                           	btfss	((_flags))&0ffh,(2)&7
  3315  001A24  A586               	goto	u2481
  3316  001A26  EF17  F00D         	goto	u2480
  3317  001A2A  EF19  F00D         u2481:
  3318  001A2E                     	goto	l2342
  3319  001A2E  EF20  F00D         u2480:
  3320  001A32                     	goto	l2340
  3321  001A32  EF1B  F00D         	
  3322                           l246:; BSR set to: 0
  3323  001A36                     
  3324                           	line	293
  3325                           	
  3326                           l2340:; BSR set to: 0
  3327  001A36                     
  3328                           ;C:\Program Files (x86)\Microchip\xc8\v2.00\pic\sources\c99\common\doprnt.c: 293:       
                                   --w;
  3329                           	decf	((c:dtoa@w)),c
  3330  001A36  0632               	btfss	status,0
  3331  001A38  A0D8               	decf	((c:dtoa@w+1)),c
  3332  001A3A  0633               	goto	l2342
  3333  001A3C  EF20  F00D         	line	294
  3334                           ;C:\Program Files (x86)\Microchip\xc8\v2.00\pic\sources\c99\common\doprnt.c: 294:     }

  3335                           	
  3336                           l244:; BSR set to: 0
  3337  001A40                     
  3338                           	line	297
  3339                           	
  3340                           l2342:; BSR set to: 0
  3341  001A40                     
  3342                           ;C:\Program Files (x86)\Microchip\xc8\v2.00\pic\sources\c99\common\doprnt.c: 297:     i 
                                 = sizeof(dbuf) - 1;
  3343                           	movlw	high(01Fh)
  3344  001A40  0E00               	movwf	((c:dtoa@i+1)),c
  3345  001A42  6E3F               	movlw	low(01Fh)
  3346  001A44  0E1F               	movwf	((c:dtoa@i)),c
  3347  001A46  6E3E               	line	298
  3348                           	
  3349                           l2344:; BSR set to: 0
  3350  001A48                     
  3351                           ;C:\Program Files (x86)\Microchip\xc8\v2.00\pic\sources\c99\common\doprnt.c: 298:     db
                                 uf[i] = '\0';
  3352                           	movlw	low(_dbuf)
  3353  001A48  0E90               	addwf	((c:dtoa@i)),c,w
  3354  001A4A  243E               	movwf	c:fsr2l
  3355  001A4C  6ED9               	movlw	high(_dbuf)
  3356  001A4E  0E00               	addwfc	((c:dtoa@i+1)),c,w
  3357  001A50  203F               	movwf	1+c:fsr2l
  3358  001A52  6EDA               	movlw	low(0)
  3359  001A54  0E00               	movwf	indf2
  3360  001A56  6EDF               	line	299
  3361                           ;C:\Program Files (x86)\Microchip\xc8\v2.00\pic\sources\c99\common\doprnt.c: 299:     wh
                                 ile (!(i < 1) && (n || (0 < p) || ((0 < w) && (flags & (1 << 1))))) {
  3362                           	goto	l2356
  3363  001A58  EFAC  F00D         	
  3364                           l248:; BSR set to: 0
  3365  001A5C                     
  3366                           	line	300
  3367                           	
  3368                           l2346:
  3369  001A5C                     ;C:\Program Files (x86)\Microchip\xc8\v2.00\pic\sources\c99\common\doprnt.c: 300:       
                                   --i;
  3370                           	decf	((c:dtoa@i)),c
  3371  001A5C  063E               	btfss	status,0
  3372  001A5E  A0D8               	decf	((c:dtoa@i+1)),c
  3373  001A60  063F               	line	301
  3374                           	
  3375                           l2348:
  3376  001A62                     ;C:\Program Files (x86)\Microchip\xc8\v2.00\pic\sources\c99\common\doprnt.c: 301:       
                                   dbuf[i] = '0' + abs(n % 10);
  3377                           	movlw	low(_dbuf)
  3378  001A62  0E90               	addwf	((c:dtoa@i)),c,w
  3379  001A64  243E               	movwf	c:fsr2l
  3380  001A66  6ED9               	movlw	high(_dbuf)
  3381  001A68  0E00               	addwfc	((c:dtoa@i+1)),c,w
  3382  001A6A  203F               	movwf	1+c:fsr2l
  3383  001A6C  6EDA               	movff	(c:dtoa@n),(c:___aomod@dividend)
  3384  001A6E  C036  F001         	movff	(c:dtoa@n+1),(c:___aomod@dividend+1)
  3385  001A72  C037  F002         	movff	(c:dtoa@n+2),(c:___aomod@dividend+2)
  3386  001A76  C038  F003         	movff	(c:dtoa@n+3),(c:___aomod@dividend+3)
  3387  001A7A  C039  F004         	movff	(c:dtoa@n+4),(c:___aomod@dividend+4)
  3388  001A7E  C03A  F005         	movff	(c:dtoa@n+5),(c:___aomod@dividend+5)
  3389  001A82  C03B  F006         	movff	(c:dtoa@n+6),(c:___aomod@dividend+6)
  3390  001A86  C03C  F007         	movff	(c:dtoa@n+7),(c:___aomod@dividend+7)
  3391  001A8A  C03D  F008         	movlw	byte0(0Ah)
  3392  001A8E  0E0A               	movwf	((c:___aomod@divisor)),c
  3393  001A90  6E09               	movlw	byte1(0Ah)
  3394  001A92  0E00               	movwf	((c:___aomod@divisor+1)),c
  3395  001A94  6E0A               	movlw	byte2(0Ah)
  3396  001A96  0E00               	movwf	((c:___aomod@divisor+2)),c
  3397  001A98  6E0B               	movlw	byte3(0Ah)
  3398  001A9A  0E00               	movwf	((c:___aomod@divisor+3)),c
  3399  001A9C  6E0C               	movlw	byte4(0Ah)
  3400  001A9E  0E00               	movwf	((c:___aomod@divisor+4)),c
  3401  001AA0  6E0D               	movlw	byte5(0Ah)
  3402  001AA2  0E00               	movwf	((c:___aomod@divisor+5)),c
  3403  001AA4  6E0E               	movlw	byte6(0Ah)
  3404  001AA6  0E00               	movwf	((c:___aomod@divisor+6)),c
  3405  001AA8  6E0F               	movlw	byte7(0Ah)
  3406  001AAA  0E00               	movwf	((c:___aomod@divisor+7)),c
  3407  001AAC  6E10               	call	___aomod	;wreg free
  3408  001AAE  ECE7  F012         	movff	0+?___aomod,??_dtoa+0+0
  3409  001AB2  C001  F026         	movff	1+?___aomod,??_dtoa+0+0+1
  3410  001AB6  C002  F027         	movff	2+?___aomod,??_dtoa+0+0+2
  3411  001ABA  C003  F028         	movff	3+?___aomod,??_dtoa+0+0+3
  3412  001ABE  C004  F029         	movff	4+?___aomod,??_dtoa+0+0+4
  3413  001AC2  C005  F02A         	movff	5+?___aomod,??_dtoa+0+0+5
  3414  001AC6  C006  F02B         	movff	6+?___aomod,??_dtoa+0+0+6
  3415  001ACA  C007  F02C         	movff	7+?___aomod,??_dtoa+0+0+7
  3416  001ACE  C008  F02D         	
  3417                           	movff	??_dtoa+0+0,(c:abs@a)
  3418  001AD2  C026  F013         	movff	??_dtoa+0+2,(c:abs@a+1)
  3419  001AD6  C028  F014         	call	_abs	;wreg free
  3420  001ADA  EC95  F017         	movf	(0+?_abs),c,w
  3421  001ADE  5013               	addlw	low(030h)
  3422  001AE0  0F30               	movwf	indf2,c
  3423  001AE2  6EDF               
  3424                           	line	302
  3425                           	
  3426                           l2350:
  3427  001AE4                     ;C:\Program Files (x86)\Microchip\xc8\v2.00\pic\sources\c99\common\doprnt.c: 302:       
                                   --p;
  3428                           	decf	((c:dtoa@p)),c
  3429  001AE4  0630               	btfss	status,0
  3430  001AE6  A0D8               	decf	((c:dtoa@p+1)),c
  3431  001AE8  0631               	line	303
  3432                           	
  3433                           l2352:
  3434  001AEA                     ;C:\Program Files (x86)\Microchip\xc8\v2.00\pic\sources\c99\common\doprnt.c: 303:       
                                   --w;
  3435                           	decf	((c:dtoa@w)),c
  3436  001AEA  0632               	btfss	status,0
  3437  001AEC  A0D8               	decf	((c:dtoa@w+1)),c
  3438  001AEE  0633               	line	304
  3439                           	
  3440                           l2354:
  3441  001AF0                     ;C:\Program Files (x86)\Microchip\xc8\v2.00\pic\sources\c99\common\doprnt.c: 304:       
                                   n = n / 10;
  3442                           	movff	(c:dtoa@n),(c:___aodiv@dividend)
  3443  001AF0  C036  F001         	movff	(c:dtoa@n+1),(c:___aodiv@dividend+1)
  3444  001AF4  C037  F002         	movff	(c:dtoa@n+2),(c:___aodiv@dividend+2)
  3445  001AF8  C038  F003         	movff	(c:dtoa@n+3),(c:___aodiv@dividend+3)
  3446  001AFC  C039  F004         	movff	(c:dtoa@n+4),(c:___aodiv@dividend+4)
  3447  001B00  C03A  F005         	movff	(c:dtoa@n+5),(c:___aodiv@dividend+5)
  3448  001B04  C03B  F006         	movff	(c:dtoa@n+6),(c:___aodiv@dividend+6)
  3449  001B08  C03C  F007         	movff	(c:dtoa@n+7),(c:___aodiv@dividend+7)
  3450  001B0C  C03D  F008         	movlw	byte0(0Ah)
  3451  001B10  0E0A               	movwf	((c:___aodiv@divisor)),c
  3452  001B12  6E09               	movlw	byte1(0Ah)
  3453  001B14  0E00               	movwf	((c:___aodiv@divisor+1)),c
  3454  001B16  6E0A               	movlw	byte2(0Ah)
  3455  001B18  0E00               	movwf	((c:___aodiv@divisor+2)),c
  3456  001B1A  6E0B               	movlw	byte3(0Ah)
  3457  001B1C  0E00               	movwf	((c:___aodiv@divisor+3)),c
  3458  001B1E  6E0C               	movlw	byte4(0Ah)
  3459  001B20  0E00               	movwf	((c:___aodiv@divisor+4)),c
  3460  001B22  6E0D               	movlw	byte5(0Ah)
  3461  001B24  0E00               	movwf	((c:___aodiv@divisor+5)),c
  3462  001B26  6E0E               	movlw	byte6(0Ah)
  3463  001B28  0E00               	movwf	((c:___aodiv@divisor+6)),c
  3464  001B2A  6E0F               	movlw	byte7(0Ah)
  3465  001B2C  0E00               	movwf	((c:___aodiv@divisor+7)),c
  3466  001B2E  6E10               	call	___aodiv	;wreg free
  3467  001B30  EC0F  F012         	movff	0+?___aodiv,(c:dtoa@n)
  3468  001B34  C001  F036         	movff	1+?___aodiv,(c:dtoa@n+1)
  3469  001B38  C002  F037         	movff	2+?___aodiv,(c:dtoa@n+2)
  3470  001B3C  C003  F038         	movff	3+?___aodiv,(c:dtoa@n+3)
  3471  001B40  C004  F039         	movff	4+?___aodiv,(c:dtoa@n+4)
  3472  001B44  C005  F03A         	movff	5+?___aodiv,(c:dtoa@n+5)
  3473  001B48  C006  F03B         	movff	6+?___aodiv,(c:dtoa@n+6)
  3474  001B4C  C007  F03C         	movff	7+?___aodiv,(c:dtoa@n+7)
  3475  001B50  C008  F03D         	
  3476                           	goto	l2356
  3477  001B54  EFAC  F00D         	line	305
  3478                           ;C:\Program Files (x86)\Microchip\xc8\v2.00\pic\sources\c99\common\doprnt.c: 305:     }

  3479                           	
  3480                           l247:
  3481  001B58                     	line	299
  3482                           	
  3483                           l2356:
  3484  001B58                     ;C:\Program Files (x86)\Microchip\xc8\v2.00\pic\sources\c99\common\doprnt.c: 299:     wh
                                 ile (!(i < 1) && (n || (0 < p) || ((0 < w) && (flags & (1 << 1))))) {
  3485                           	btfsc	((c:dtoa@i+1)),c,7
  3486  001B58  BE3F               	goto	u2491
  3487  001B5A  EFB7  F00D         	movf	((c:dtoa@i+1)),c,w
  3488  001B5E  503F               	bnz	u2490
  3489  001B60  E108               	decf	((c:dtoa@i)),c,w
  3490  001B62  043E               	btfss	status,0
  3491  001B64  A0D8               	goto	u2491
  3492  001B66  EFB7  F00D         	goto	u2490
  3493  001B6A  EFB9  F00D         
  3494                           u2491:
  3495  001B6E                     	goto	l2366
  3496  001B6E  EFF0  F00D         u2490:
  3497  001B72                     	
  3498                           l2358:
  3499  001B72                     	movf	((c:dtoa@n)),c,w
  3500  001B72  5036               iorwf	((c:dtoa@n+1)),c,w
  3501  001B74  1037               iorwf	((c:dtoa@n+2)),c,w
  3502  001B76  1038               iorwf	((c:dtoa@n+3)),c,w
  3503  001B78  1039               iorwf	((c:dtoa@n+4)),c,w
  3504  001B7A  103A               iorwf	((c:dtoa@n+5)),c,w
  3505  001B7C  103B               iorwf	((c:dtoa@n+6)),c,w
  3506  001B7E  103C               iorwf	((c:dtoa@n+7)),c,w
  3507  001B80  103D               	btfss	status,2
  3508  001B82  A4D8               	goto	u2501
  3509  001B84  EFC6  F00D         	goto	u2500
  3510  001B88  EFC8  F00D         
  3511                           u2501:
  3512  001B8C                     	goto	l2346
  3513  001B8C  EF2E  F00D         u2500:
  3514  001B90                     	
  3515                           l2360:
  3516  001B90                     	btfsc	((c:dtoa@p+1)),c,7
  3517  001B90  BE31               	goto	u2510
  3518  001B92  EFD5  F00D         	movf	((c:dtoa@p+1)),c,w
  3519  001B96  5031               	bnz	u2511
  3520  001B98  E106               	decf	((c:dtoa@p)),c,w
  3521  001B9A  0430               	btfsc	status,0
  3522  001B9C  B0D8               	goto	u2511
  3523  001B9E  EFD3  F00D         	goto	u2510
  3524  001BA2  EFD5  F00D         
  3525                           u2511:
  3526  001BA6                     	goto	l2346
  3527  001BA6  EF2E  F00D         u2510:
  3528  001BAA                     	
  3529                           l2362:
  3530  001BAA                     	btfsc	((c:dtoa@w+1)),c,7
  3531  001BAA  BE33               	goto	u2521
  3532  001BAC  EFE0  F00D         	movf	((c:dtoa@w+1)),c,w
  3533  001BB0  5033               	bnz	u2520
  3534  001BB2  E108               	decf	((c:dtoa@w)),c,w
  3535  001BB4  0432               	btfss	status,0
  3536  001BB6  A0D8               	goto	u2521
  3537  001BB8  EFE0  F00D         	goto	u2520
  3538  001BBC  EFE2  F00D         
  3539                           u2521:
  3540  001BC0                     	goto	l2366
  3541  001BC0  EFF0  F00D         u2520:
  3542  001BC4                     	
  3543                           l2364:
  3544  001BC4                     	movlb	0	; () banked
  3545  001BC4  0100               	
  3546                           	btfsc	((_flags))&0ffh,(1)&7
  3547  001BC6  B386               	goto	u2531
  3548  001BC8  EFE8  F00D         	goto	u2530
  3549  001BCC  EFEA  F00D         u2531:
  3550  001BD0                     	goto	l2346
  3551  001BD0  EF2E  F00D         u2530:
  3552  001BD4                     	goto	l2366
  3553  001BD4  EFF0  F00D         	
  3554                           l252:; BSR set to: 0
  3555  001BD8                     
  3556                           	goto	l2366
  3557  001BD8  EFF0  F00D         	
  3558                           l250:; BSR set to: 0
  3559  001BDC                     
  3560                           	goto	l2366
  3561  001BDC  EFF0  F00D         	
  3562                           l253:; BSR set to: 0
  3563  001BE0                     
  3564                           	line	308
  3565                           	
  3566                           l2366:
  3567  001BE0                     ;C:\Program Files (x86)\Microchip\xc8\v2.00\pic\sources\c99\common\doprnt.c: 308:     if
                                  (s || (flags & (1 << 2))) {
  3568                           	movf	((c:dtoa@s)),c,w
  3569  001BE0  5034               iorwf	((c:dtoa@s+1)),c,w
  3570  001BE2  1035               	btfss	status,2
  3571  001BE4  A4D8               	goto	u2541
  3572  001BE6  EFF7  F00D         	goto	u2540
  3573  001BEA  EFF9  F00D         
  3574                           u2541:
  3575  001BEE                     	goto	l2370
  3576  001BEE  EF03  F00E         u2540:
  3577  001BF2                     	
  3578                           l2368:
  3579  001BF2                     	movlb	0	; () banked
  3580  001BF2  0100               	
  3581                           	btfss	((_flags))&0ffh,(2)&7
  3582  001BF4  A586               	goto	u2551
  3583  001BF6  EFFF  F00D         	goto	u2550
  3584  001BFA  EF01  F00E         u2551:
  3585  001BFE                     	goto	l2380
  3586  001BFE  EF25  F00E         u2550:
  3587  001C02                     	goto	l2370
  3588  001C02  EF03  F00E         	
  3589                           l256:; BSR set to: 0
  3590  001C06                     
  3591                           	line	309
  3592                           	
  3593                           l2370:
  3594  001C06                     ;C:\Program Files (x86)\Microchip\xc8\v2.00\pic\sources\c99\common\doprnt.c: 309:       
                                   --i;
  3595                           	decf	((c:dtoa@i)),c
  3596  001C06  063E               	btfss	status,0
  3597  001C08  A0D8               	decf	((c:dtoa@i+1)),c
  3598  001C0A  063F               	line	310
  3599                           	
  3600                           l2372:
  3601  001C0C                     ;C:\Program Files (x86)\Microchip\xc8\v2.00\pic\sources\c99\common\doprnt.c: 310:       
                                   dbuf[i] = s ? '-' : '+';
  3602                           	movf	((c:dtoa@s)),c,w
  3603  001C0C  5034               iorwf	((c:dtoa@s+1)),c,w
  3604  001C0E  1035               	btfss	status,2
  3605  001C10  A4D8               	goto	u2561
  3606  001C12  EF0D  F00E         	goto	u2560
  3607  001C16  EF0F  F00E         
  3608                           u2561:
  3609  001C1A                     	goto	l2376
  3610  001C1A  EF15  F00E         u2560:
  3611  001C1E                     	
  3612                           l2374:
  3613  001C1E                     	movlw	high(02Bh)
  3614  001C1E  0E00               	movwf	((c:_dtoa$588+1)),c
  3615  001C20  6E2F               	movlw	low(02Bh)
  3616  001C22  0E2B               	movwf	((c:_dtoa$588)),c
  3617  001C24  6E2E               	goto	l2378
  3618  001C26  EF1B  F00E         	
  3619                           l258:
  3620  001C2A                     	
  3621                           l2376:
  3622  001C2A                     	movlw	high(02Dh)
  3623  001C2A  0E00               	movwf	((c:_dtoa$588+1)),c
  3624  001C2C  6E2F               	movlw	low(02Dh)
  3625  001C2E  0E2D               	movwf	((c:_dtoa$588)),c
  3626  001C30  6E2E               	goto	l2378
  3627  001C32  EF1B  F00E         	
  3628                           l260:
  3629  001C36                     	
  3630                           l2378:
  3631  001C36                     	movlw	low(_dbuf)
  3632  001C36  0E90               	addwf	((c:dtoa@i)),c,w
  3633  001C38  243E               	movwf	c:fsr2l
  3634  001C3A  6ED9               	movlw	high(_dbuf)
  3635  001C3C  0E00               	addwfc	((c:dtoa@i+1)),c,w
  3636  001C3E  203F               	movwf	1+c:fsr2l
  3637  001C40  6EDA               	movff	(c:_dtoa$588),indf2
  3638  001C42  C02E  FFDF         
  3639                           	goto	l2380
  3640  001C46  EF25  F00E         	line	311
  3641                           ;C:\Program Files (x86)\Microchip\xc8\v2.00\pic\sources\c99\common\doprnt.c: 311:     }

  3642                           	
  3643                           l254:
  3644  001C4A                     	line	314
  3645                           	
  3646                           l2380:
  3647  001C4A                     ;C:\Program Files (x86)\Microchip\xc8\v2.00\pic\sources\c99\common\doprnt.c: 314:     re
                                 turn pad(fp, &dbuf[i], w);
  3648                           		movff	(c:dtoa@fp),(c:pad@fp)
  3649  001C4A  C01C  F011         	movff	(c:dtoa@fp+1),(c:pad@fp+1)
  3650  001C4E  C01D  F012         
  3651                           	movlw	low(_dbuf)
  3652  001C52  0E90               	addwf	((c:dtoa@i)),c,w
  3653  001C54  243E               	movwf	((c:pad@buf)),c
  3654  001C56  6E13               	movlw	high(_dbuf)
  3655  001C58  0E00               	addwfc	((c:dtoa@i+1)),c,w
  3656  001C5A  203F               	movwf	1+((c:pad@buf)),c
  3657  001C5C  6E14               	movff	(c:dtoa@w),(c:pad@p)
  3658  001C5E  C032  F015         	movff	(c:dtoa@w+1),(c:pad@p+1)
  3659  001C62  C033  F016         	call	_pad	;wreg free
  3660  001C66  EC3E  F015         	movff	0+?_pad,(c:?_dtoa)
  3661  001C6A  C011  F01C         	movff	1+?_pad,(c:?_dtoa+1)
  3662  001C6E  C012  F01D         	goto	l261
  3663  001C72  EF3B  F00E         	
  3664                           l2382:
  3665  001C76                     	line	315
  3666                           	
  3667                           l261:
  3668  001C76                     	return	;funcret
  3669  001C76  0012               	opt stack 0
  3670                           GLOBAL	__end_of_dtoa
  3671                           	__end_of_dtoa:
  3672  001C78                     	signat	_dtoa,8314
  3673                           	global	_pad
  3674                           
  3675 ;; *************** function _pad *****************
  3676 ;; Defined at:
  3677 ;;		line 72 in file "C:\Program Files (x86)\Microchip\xc8\v2.00\pic\sources\c99\common\doprnt.c"
  3678 ;; Parameters:    Size  Location     Type
  3679 ;;  fp              2   16[COMRAM] PTR struct _IO_FILE
  3680 ;;		 -> sprintf@f(6), 
  3681 ;;  buf             2   18[COMRAM] PTR unsigned char 
  3682 ;;		 -> dbuf(32), 
  3683 ;;  p               2   20[COMRAM] int 
  3684 ;; Auto vars:     Size  Location     Type
  3685 ;;  w               2   25[COMRAM] int 
  3686 ;;  i               2   23[COMRAM] int 
  3687 ;; Return value:  Size  Location     Type
  3688 ;;                  2   16[COMRAM] int 
  3689 ;; Registers used:
  3690 ;;		wreg, fsr1l, fsr1h, fsr2l, fsr2h, status,2, status,0, cstack
  3691 ;; Tracked objects:
  3692 ;;		On entry : 0/0
  3693 ;;		On exit  : 0/0
  3694 ;;		Unchanged: 0/0
  3695 ;; Data sizes:     COMRAM   BANK0   BANK1   BANK2   BANK3   BANK4   BANK5
  3696 ;;      Params:         6       0       0       0       0       0       0
  3697 ;;      Locals:         4       0       0       0       0       0       0
  3698 ;;      Temps:          1       0       0       0       0       0       0
  3699 ;;      Totals:        11       0       0       0       0       0       0
  3700 ;;Total ram usage:       11 bytes
  3701 ;; Hardware stack levels used:    1
  3702 ;; Hardware stack levels required when called:    4
  3703 ;; This function calls:
  3704 ;;		_fputc
  3705 ;;		_fputs
  3706 ;;		_strlen
  3707 ;; This function is called by:
  3708 ;;		_dtoa
  3709 ;; This function uses a non-reentrant model
  3710 ;;
  3711                           psect	text5,class=CODE,space=0,reloc=2,group=0
  3712                           	line	72
  3713                           global __ptext5
  3714                           __ptext5:
  3715  002A7C                     psect	text5
  3716                           	file	"C:\Program Files (x86)\Microchip\xc8\v2.00\pic\sources\c99\common\doprnt.c"
  3717                           	line	72
  3718                           	global	__size_of_pad
  3719                           	__size_of_pad	equ	__end_of_pad-_pad
  3720  0000                     	
  3721                           _pad:
  3722  002A7C                     ;incstack = 0
  3723                           	opt	stack 22
  3724                           	line	77
  3725                           	
  3726                           l2216:
  3727  002A7C                     ;C:\Program Files (x86)\Microchip\xc8\v2.00\pic\sources\c99\common\doprnt.c: 72: static 
                                 int pad(FILE *fp, char *buf, int p);C:\Program Files (x86)\Microchip\xc8\v2.00\pic\sourc
                                 es\c99\common\doprnt.c: 73: {;C:\Program Files (x86)\Microchip\xc8\v2.00\pic\sources\c99
                                 \common\doprnt.c: 74:     int i, w;;C:\Program Files (x86)\Microchip\xc8\v2.00\pic\sourc
                                 es\c99\common\doprnt.c: 77:     if (flags & (1 << 0)) {
  3728                           	movlb	0	; () banked
  3729  002A7C  0100               	
  3730                           	btfss	((_flags))&0ffh,(0)&7
  3731  002A7E  A186               	goto	u2241
  3732  002A80  EF44  F015         	goto	u2240
  3733  002A84  EF46  F015         u2241:
  3734  002A88                     	goto	l2220
  3735  002A88  EF52  F015         u2240:
  3736  002A8C                     	line	78
  3737                           	
  3738                           l2218:; BSR set to: 0
  3739  002A8C                     
  3740                           ;C:\Program Files (x86)\Microchip\xc8\v2.00\pic\sources\c99\common\doprnt.c: 78:        
                                  fputs((const char *)buf, fp);
  3741                           		movff	(c:pad@buf),(c:fputs@s)
  3742  002A8C  C013  F00A         	movff	(c:pad@buf+1),(c:fputs@s+1)
  3743  002A90  C014  F00B         
  3744                           		movff	(c:pad@fp),(c:fputs@fp)
  3745  002A94  C011  F00C         	movff	(c:pad@fp+1),(c:fputs@fp+1)
  3746  002A98  C012  F00D         
  3747                           	call	_fputs	;wreg free
  3748  002A9C  EC6F  F017         	goto	l2220
  3749  002AA0  EF52  F015         	line	79
  3750                           ;C:\Program Files (x86)\Microchip\xc8\v2.00\pic\sources\c99\common\doprnt.c: 79:     }
  3751                           	
  3752                           l226:
  3753  002AA4                     	line	82
  3754                           	
  3755                           l2220:
  3756  002AA4                     ;C:\Program Files (x86)\Microchip\xc8\v2.00\pic\sources\c99\common\doprnt.c: 82:     w =
                                  (p < 0) ? 0 : p;
  3757                           	btfsc	((c:pad@p+1)),c,7
  3758  002AA4  BE16               	goto	u2251
  3759  002AA6  EF57  F015         	goto	u2250
  3760  002AAA  EF59  F015         
  3761                           u2251:
  3762  002AAE                     	goto	l2224
  3763  002AAE  EF5F  F015         u2250:
  3764  002AB2                     	
  3765                           l2222:
  3766  002AB2                     	movff	(c:pad@p),(c:pad@w)
  3767  002AB2  C015  F01A         	movff	(c:pad@p+1),(c:pad@w+1)
  3768  002AB6  C016  F01B         	goto	l230
  3769  002ABA  EF63  F015         	
  3770                           l228:
  3771  002ABE                     	
  3772                           l2224:
  3773  002ABE                     	movlw	high(0)
  3774  002ABE  0E00               	movwf	((c:pad@w+1)),c
  3775  002AC0  6E1B               	movlw	low(0)
  3776  002AC2  0E00               	movwf	((c:pad@w)),c
  3777  002AC4  6E1A               	
  3778                           l230:
  3779  002AC6                     	line	83
  3780                           ;C:\Program Files (x86)\Microchip\xc8\v2.00\pic\sources\c99\common\doprnt.c: 83:     i =
                                  0;
  3781                           	movlw	high(0)
  3782  002AC6  0E00               	movwf	((c:pad@i+1)),c
  3783  002AC8  6E19               	movlw	low(0)
  3784  002ACA  0E00               	movwf	((c:pad@i)),c
  3785  002ACC  6E18               	line	84
  3786                           ;C:\Program Files (x86)\Microchip\xc8\v2.00\pic\sources\c99\common\doprnt.c: 84:     whi
                                 le (i < w) {
  3787                           	goto	l2230
  3788  002ACE  EF77  F015         	
  3789                           l232:
  3790  002AD2                     	line	85
  3791                           	
  3792                           l2226:
  3793  002AD2                     ;C:\Program Files (x86)\Microchip\xc8\v2.00\pic\sources\c99\common\doprnt.c: 85:        
                                  fputc(' ', fp);
  3794                           	movlw	high(020h)
  3795  002AD2  0E00               	movwf	((c:fputc@c+1)),c
  3796  002AD4  6E02               	movlw	low(020h)
  3797  002AD6  0E20               	movwf	((c:fputc@c)),c
  3798  002AD8  6E01               		movff	(c:pad@fp),(c:fputc@fp)
  3799  002ADA  C011  F003         	movff	(c:pad@fp+1),(c:fputc@fp+1)
  3800  002ADE  C012  F004         
  3801                           	call	_fputc	;wreg free
  3802  002AE2  ECCF  F014         	line	86
  3803                           	
  3804                           l2228:
  3805  002AE6                     ;C:\Program Files (x86)\Microchip\xc8\v2.00\pic\sources\c99\common\doprnt.c: 86:        
                                  ++i;
  3806                           	infsnz	((c:pad@i)),c
  3807  002AE6  4A18               	incf	((c:pad@i+1)),c
  3808  002AE8  2A19               	goto	l2230
  3809  002AEA  EF77  F015         	line	87
  3810                           ;C:\Program Files (x86)\Microchip\xc8\v2.00\pic\sources\c99\common\doprnt.c: 87:     }
  3811                           	
  3812                           l231:
  3813  002AEE                     	line	84
  3814                           	
  3815                           l2230:
  3816  002AEE                     ;C:\Program Files (x86)\Microchip\xc8\v2.00\pic\sources\c99\common\doprnt.c: 84:     whi
                                 le (i < w) {
  3817                           		movf	((c:pad@w)),c,w
  3818  002AEE  501A               	subwf	((c:pad@i)),c,w
  3819  002AF0  5C18               	movf	((c:pad@i+1)),c,w
  3820  002AF2  5019               	xorlw	80h
  3821  002AF4  0A80               	movwf	(??_pad+0+0)&0ffh,c
  3822  002AF6  6E17               	movf	((c:pad@w+1)),c,w
  3823  002AF8  501B               	xorlw	80h
  3824  002AFA  0A80               	subwfb	(??_pad+0+0)&0ffh,c,w
  3825  002AFC  5817               	btfss	status,0
  3826  002AFE  A0D8               	goto	u2261
  3827  002B00  EF84  F015         	goto	u2260
  3828  002B04  EF86  F015         
  3829                           u2261:
  3830  002B08                     	goto	l2226
  3831  002B08  EF69  F015         u2260:
  3832  002B0C                     	
  3833                           l233:
  3834  002B0C                     	line	90
  3835                           ;C:\Program Files (x86)\Microchip\xc8\v2.00\pic\sources\c99\common\doprnt.c: 90:     if 
                                 (!(flags & (1 << 0))) {
  3836                           	movlb	0	; () banked
  3837  002B0C  0100               	
  3838                           	btfsc	((_flags))&0ffh,(0)&7
  3839  002B0E  B186               	goto	u2271
  3840  002B10  EF8C  F015         	goto	u2270
  3841  002B14  EF8E  F015         u2271:
  3842  002B18                     	goto	l2234
  3843  002B18  EF9A  F015         u2270:
  3844  002B1C                     	line	91
  3845                           	
  3846                           l2232:; BSR set to: 0
  3847  002B1C                     
  3848                           ;C:\Program Files (x86)\Microchip\xc8\v2.00\pic\sources\c99\common\doprnt.c: 91:        
                                  fputs((const char *)buf, fp);
  3849                           		movff	(c:pad@buf),(c:fputs@s)
  3850  002B1C  C013  F00A         	movff	(c:pad@buf+1),(c:fputs@s+1)
  3851  002B20  C014  F00B         
  3852                           		movff	(c:pad@fp),(c:fputs@fp)
  3853  002B24  C011  F00C         	movff	(c:pad@fp+1),(c:fputs@fp+1)
  3854  002B28  C012  F00D         
  3855                           	call	_fputs	;wreg free
  3856  002B2C  EC6F  F017         	goto	l2234
  3857  002B30  EF9A  F015         	line	92
  3858                           ;C:\Program Files (x86)\Microchip\xc8\v2.00\pic\sources\c99\common\doprnt.c: 92:     }
  3859                           	
  3860                           l234:
  3861  002B34                     	line	94
  3862                           	
  3863                           l2234:
  3864  002B34                     ;C:\Program Files (x86)\Microchip\xc8\v2.00\pic\sources\c99\common\doprnt.c: 94:     ret
                                 urn strlen(buf) + w;
  3865                           		movff	(c:pad@buf),(c:strlen@s)
  3866  002B34  C013  F001         	movff	(c:pad@buf+1),(c:strlen@s+1)
  3867  002B38  C014  F002         
  3868                           	call	_strlen	;wreg free
  3869  002B3C  EC46  F017         	movf	((c:pad@w)),c,w
  3870  002B40  501A               	addwf	(0+?_strlen),c,w
  3871  002B42  2401               	movwf	((c:?_pad)),c
  3872  002B44  6E11               	movf	((c:pad@w+1)),c,w
  3873  002B46  501B               	addwfc	(1+?_strlen),c,w
  3874  002B48  2002               	movwf	1+((c:?_pad)),c
  3875  002B4A  6E12               	goto	l235
  3876  002B4C  EFA8  F015         	
  3877                           l2236:
  3878  002B50                     	line	95
  3879                           	
  3880                           l235:
  3881  002B50                     	return	;funcret
  3882  002B50  0012               	opt stack 0
  3883                           GLOBAL	__end_of_pad
  3884                           	__end_of_pad:
  3885  002B52                     	signat	_pad,12410
  3886                           	global	_strlen
  3887                           
  3888 ;; *************** function _strlen *****************
  3889 ;; Defined at:
  3890 ;;		line 12 in file "C:\Program Files (x86)\Microchip\xc8\v2.00\pic\sources\c99\common\strlen.c"
  3891 ;; Parameters:    Size  Location     Type
  3892 ;;  s               2    0[COMRAM] PTR const unsigned char 
  3893 ;;		 -> dbuf(32), 
  3894 ;; Auto vars:     Size  Location     Type
  3895 ;;  a               2    4[COMRAM] PTR const unsigned char 
  3896 ;;		 -> dbuf(32), 
  3897 ;; Return value:  Size  Location     Type
  3898 ;;                  2    0[COMRAM] unsigned int 
  3899 ;; Registers used:
  3900 ;;		wreg, fsr2l, fsr2h, status,2, status,0
  3901 ;; Tracked objects:
  3902 ;;		On entry : 0/0
  3903 ;;		On exit  : 0/0
  3904 ;;		Unchanged: 0/0
  3905 ;; Data sizes:     COMRAM   BANK0   BANK1   BANK2   BANK3   BANK4   BANK5
  3906 ;;      Params:         2       0       0       0       0       0       0
  3907 ;;      Locals:         2       0       0       0       0       0       0
  3908 ;;      Temps:          2       0       0       0       0       0       0
  3909 ;;      Totals:         6       0       0       0       0       0       0
  3910 ;;Total ram usage:        6 bytes
  3911 ;; Hardware stack levels used:    1
  3912 ;; Hardware stack levels required when called:    1
  3913 ;; This function calls:
  3914 ;;		Nothing
  3915 ;; This function is called by:
  3916 ;;		_pad
  3917 ;; This function uses a non-reentrant model
  3918 ;;
  3919                           psect	text6,class=CODE,space=0,reloc=2,group=2
  3920                           	file	"C:\Program Files (x86)\Microchip\xc8\v2.00\pic\sources\c99\common\strlen.c"
  3921                           	line	12
  3922                           global __ptext6
  3923                           __ptext6:
  3924  002E8C                     psect	text6
  3925                           	file	"C:\Program Files (x86)\Microchip\xc8\v2.00\pic\sources\c99\common\strlen.c"
  3926                           	line	12
  3927                           	global	__size_of_strlen
  3928                           	__size_of_strlen	equ	__end_of_strlen-_strlen
  3929  0000                     	
  3930                           _strlen:
  3931  002E8C                     ;incstack = 0
  3932                           	opt	stack 24
  3933                           	line	14
  3934                           	
  3935                           l2206:
  3936  002E8C                     		movff	(c:strlen@s),(c:strlen@a)
  3937  002E8C  C001  F005         	movff	(c:strlen@s+1),(c:strlen@a+1)
  3938  002E90  C002  F006         
  3939                           	line	16
  3940                           	goto	l2210
  3941  002E94  EF50  F017         	
  3942                           l1000:
  3943  002E98                     	line	17
  3944                           	
  3945                           l2208:
  3946  002E98                     	infsnz	((c:strlen@s)),c
  3947  002E98  4A01               	incf	((c:strlen@s+1)),c
  3948  002E9A  2A02               	goto	l2210
  3949  002E9C  EF50  F017         	line	18
  3950                           	
  3951                           l999:
  3952  002EA0                     	line	16
  3953                           	
  3954                           l2210:
  3955  002EA0                     	movff	(c:strlen@s),fsr2l
  3956  002EA0  C001  FFD9         	movff	(c:strlen@s+1),fsr2h
  3957  002EA4  C002  FFDA         	movf	indf2,w
  3958  002EA8  50DF               	btfss	status,2
  3959  002EAA  A4D8               	goto	u2231
  3960  002EAC  EF5A  F017         	goto	u2230
  3961  002EB0  EF5C  F017         u2231:
  3962  002EB4                     	goto	l2208
  3963  002EB4  EF4C  F017         u2230:
  3964  002EB8                     	goto	l2212
  3965  002EB8  EF5E  F017         	
  3966                           l1001:
  3967  002EBC                     	line	25
  3968                           	
  3969                           l2212:
  3970  002EBC                     	movff	(c:strlen@a),??_strlen+0+0
  3971  002EBC  C005  F003         	movff	(c:strlen@a+1),??_strlen+0+0+1
  3972  002EC0  C006  F004         	comf	(??_strlen+0+0),c
  3973  002EC4  1E03               	comf	(??_strlen+0+1),c
  3974  002EC6  1E04               	infsnz	(??_strlen+0+0),c
  3975  002EC8  4A03               	incf	(??_strlen+0+1),c
  3976  002ECA  2A04               	movf	((c:strlen@s)),c,w
  3977  002ECC  5001               	addwf	(??_strlen+0+0),c,w
  3978  002ECE  2403               	movwf	((c:?_strlen)),c
  3979  002ED0  6E01               	movf	((c:strlen@s+1)),c,w
  3980  002ED2  5002               	addwfc	(??_strlen+0+1),c,w
  3981  002ED4  2004               	movwf	1+((c:?_strlen)),c
  3982  002ED6  6E02               	goto	l1002
  3983  002ED8  EF6E  F017         	
  3984                           l2214:
  3985  002EDC                     	line	26
  3986                           	
  3987                           l1002:
  3988  002EDC                     	return	;funcret
  3989  002EDC  0012               	opt stack 0
  3990                           GLOBAL	__end_of_strlen
  3991                           	__end_of_strlen:
  3992  002EDE                     	signat	_strlen,4218
  3993                           	global	_fputs
  3994                           
  3995 ;; *************** function _fputs *****************
  3996 ;; Defined at:
  3997 ;;		line 8 in file "C:\Program Files (x86)\Microchip\xc8\v2.00\pic\sources\c99\common\nf_fputs.c"
  3998 ;; Parameters:    Size  Location     Type
  3999 ;;  s               2    9[COMRAM] PTR const unsigned char 
  4000 ;;		 -> dbuf(32), 
  4001 ;;  fp              2   11[COMRAM] PTR struct _IO_FILE
  4002 ;;		 -> sprintf@f(6), 
  4003 ;; Auto vars:     Size  Location     Type
  4004 ;;  i               2   14[COMRAM] int 
  4005 ;;  c               1   13[COMRAM] unsigned char 
  4006 ;; Return value:  Size  Location     Type
  4007 ;;                  2    9[COMRAM] int 
  4008 ;; Registers used:
  4009 ;;		wreg, fsr1l, fsr1h, fsr2l, fsr2h, status,2, status,0, cstack
  4010 ;; Tracked objects:
  4011 ;;		On entry : 0/0
  4012 ;;		On exit  : 0/0
  4013 ;;		Unchanged: 0/0
  4014 ;; Data sizes:     COMRAM   BANK0   BANK1   BANK2   BANK3   BANK4   BANK5
  4015 ;;      Params:         4       0       0       0       0       0       0
  4016 ;;      Locals:         3       0       0       0       0       0       0
  4017 ;;      Temps:          0       0       0       0       0       0       0
  4018 ;;      Totals:         7       0       0       0       0       0       0
  4019 ;;Total ram usage:        7 bytes
  4020 ;; Hardware stack levels used:    1
  4021 ;; Hardware stack levels required when called:    3
  4022 ;; This function calls:
  4023 ;;		_fputc
  4024 ;; This function is called by:
  4025 ;;		_pad
  4026 ;; This function uses a non-reentrant model
  4027 ;;
  4028                           psect	text7,class=CODE,space=0,reloc=2,group=2
  4029                           	file	"C:\Program Files (x86)\Microchip\xc8\v2.00\pic\sources\c99\common\nf_fputs.c"
  4030                           	line	8
  4031                           global __ptext7
  4032                           __ptext7:
  4033  002EDE                     psect	text7
  4034                           	file	"C:\Program Files (x86)\Microchip\xc8\v2.00\pic\sources\c99\common\nf_fputs.c"
  4035                           	line	8
  4036                           	global	__size_of_fputs
  4037                           	__size_of_fputs	equ	__end_of_fputs-_fputs
  4038  0000                     	
  4039                           _fputs:
  4040  002EDE                     ;incstack = 0
  4041                           	opt	stack 22
  4042                           	line	13
  4043                           	
  4044                           l2198:
  4045  002EDE                     	movlw	high(0)
  4046  002EDE  0E00               	movwf	((c:fputs@i+1)),c
  4047  002EE0  6E10               	movlw	low(0)
  4048  002EE2  0E00               	movwf	((c:fputs@i)),c
  4049  002EE4  6E0F               	line	14
  4050                           	goto	l2204
  4051  002EE6  EF82  F017         	
  4052                           l984:
  4053  002EEA                     	line	15
  4054                           	
  4055                           l2200:
  4056  002EEA                     	movff	(c:fputs@c),(c:fputc@c)
  4057  002EEA  C00E  F001         	clrf	((c:fputc@c+1)),c
  4058  002EEE  6A02               		movff	(c:fputs@fp),(c:fputc@fp)
  4059  002EF0  C00C  F003         	movff	(c:fputs@fp+1),(c:fputc@fp+1)
  4060  002EF4  C00D  F004         
  4061                           	call	_fputc	;wreg free
  4062  002EF8  ECCF  F014         	line	16
  4063                           	
  4064                           l2202:
  4065  002EFC                     	infsnz	((c:fputs@i)),c
  4066  002EFC  4A0F               	incf	((c:fputs@i+1)),c
  4067  002EFE  2A10               	goto	l2204
  4068  002F00  EF82  F017         	line	17
  4069                           	
  4070                           l983:
  4071  002F04                     	line	14
  4072                           	
  4073                           l2204:
  4074  002F04                     	movf	((c:fputs@i)),c,w
  4075  002F04  500F               	addwf	((c:fputs@s)),c,w
  4076  002F06  240A               	movwf	c:fsr2l
  4077  002F08  6ED9               	movf	((c:fputs@i+1)),c,w
  4078  002F0A  5010               	addwfc	((c:fputs@s+1)),c,w
  4079  002F0C  200B               	movwf	1+c:fsr2l
  4080  002F0E  6EDA               	movf	indf2,w
  4081  002F10  50DF               	movwf	((c:fputs@c)),c
  4082  002F12  6E0E               	movf	((c:fputs@c)),c,w
  4083  002F14  500E               	btfss	status,2
  4084  002F16  A4D8               	goto	u2221
  4085  002F18  EF90  F017         	goto	u2220
  4086  002F1C  EF92  F017         u2221:
  4087  002F20                     	goto	l2200
  4088  002F20  EF75  F017         u2220:
  4089  002F24                     	goto	l986
  4090  002F24  EF94  F017         	
  4091                           l985:
  4092  002F28                     	line	19
  4093                           ;	Return value of _fputs is never used
  4094                           	
  4095                           l986:
  4096  002F28                     	return	;funcret
  4097  002F28  0012               	opt stack 0
  4098                           GLOBAL	__end_of_fputs
  4099                           	__end_of_fputs:
  4100  002F2A                     	signat	_fputs,8314
  4101                           	global	_fputc
  4102                           
  4103 ;; *************** function _fputc *****************
  4104 ;; Defined at:
  4105 ;;		line 8 in file "C:\Program Files (x86)\Microchip\xc8\v2.00\pic\sources\c99\common\nf_fputc.c"
  4106 ;; Parameters:    Size  Location     Type
  4107 ;;  c               2    0[COMRAM] int 
  4108 ;;  fp              2    2[COMRAM] PTR struct _IO_FILE
  4109 ;;		 -> sprintf@f(6), 
  4110 ;; Auto vars:     Size  Location     Type
  4111 ;;		None
  4112 ;; Return value:  Size  Location     Type
  4113 ;;                  2    0[COMRAM] int 
  4114 ;; Registers used:
  4115 ;;		wreg, fsr1l, fsr1h, fsr2l, fsr2h, status,2, status,0, cstack
  4116 ;; Tracked objects:
  4117 ;;		On entry : 0/0
  4118 ;;		On exit  : 0/0
  4119 ;;		Unchanged: 0/0
  4120 ;; Data sizes:     COMRAM   BANK0   BANK1   BANK2   BANK3   BANK4   BANK5
  4121 ;;      Params:         4       0       0       0       0       0       0
  4122 ;;      Locals:         0       0       0       0       0       0       0
  4123 ;;      Temps:          5       0       0       0       0       0       0
  4124 ;;      Totals:         9       0       0       0       0       0       0
  4125 ;;Total ram usage:        9 bytes
  4126 ;; Hardware stack levels used:    1
  4127 ;; Hardware stack levels required when called:    2
  4128 ;; This function calls:
  4129 ;;		_putch
  4130 ;; This function is called by:
  4131 ;;		_pad
  4132 ;;		_vfpfcnvrt
  4133 ;;		_fputs
  4134 ;; This function uses a non-reentrant model
  4135 ;;
  4136                           psect	text8,class=CODE,space=0,reloc=2,group=2
  4137                           	file	"C:\Program Files (x86)\Microchip\xc8\v2.00\pic\sources\c99\common\nf_fputc.c"
  4138                           	line	8
  4139                           global __ptext8
  4140                           __ptext8:
  4141  00299E                     psect	text8
  4142                           	file	"C:\Program Files (x86)\Microchip\xc8\v2.00\pic\sources\c99\common\nf_fputc.c"
  4143                           	line	8
  4144                           	global	__size_of_fputc
  4145                           	__size_of_fputc	equ	__end_of_fputc-_fputc
  4146  0000                     	
  4147                           _fputc:
  4148  00299E                     ;incstack = 0
  4149                           	opt	stack 25
  4150                           	line	12
  4151                           	
  4152                           l2184:
  4153  00299E                     	movf	((c:fputc@fp)),c,w
  4154  00299E  5003               iorwf	((c:fputc@fp+1)),c,w
  4155  0029A0  1004               	btfsc	status,2
  4156  0029A2  B4D8               	goto	u2181
  4157  0029A4  EFD6  F014         	goto	u2180
  4158  0029A8  EFD8  F014         
  4159                           u2181:
  4160  0029AC                     	goto	l2188
  4161  0029AC  EFE3  F014         u2180:
  4162  0029B0                     	
  4163                           l2186:
  4164  0029B0                     	movf	((c:fputc@fp)),c,w
  4165  0029B0  5003               iorwf	((c:fputc@fp+1)),c,w
  4166  0029B2  1004               	btfss	status,2
  4167  0029B4  A4D8               	goto	u2191
  4168  0029B6  EFDF  F014         	goto	u2190
  4169  0029BA  EFE1  F014         
  4170                           u2191:
  4171  0029BE                     	goto	l2190
  4172  0029BE  EFE8  F014         u2190:
  4173  0029C2                     	goto	l2188
  4174  0029C2  EFE3  F014         	
  4175                           l973:
  4176  0029C6                     	line	13
  4177                           	
  4178                           l2188:
  4179  0029C6                     	movf	((c:fputc@c)),c,w
  4180  0029C6  5001               	
  4181                           	call	_putch
  4182  0029C8  EC14  F018         	line	14
  4183                           	goto	l978
  4184  0029CC  EF3D  F015         	
  4185                           l971:
  4186  0029D0                     	line	15
  4187                           	
  4188                           l2190:
  4189  0029D0                     	lfsr	2,04h
  4190  0029D0  EE20 F004          	movf	((c:fputc@fp)),c,w
  4191  0029D4  5003               	addwf	fsr2l
  4192  0029D6  26D9               	movf	((c:fputc@fp+1)),c,w
  4193  0029D8  5004               	addwfc	fsr2h
  4194  0029DA  22DA               	movf	postinc2,w
  4195  0029DC  50DE               iorwf	postinc2,w
  4196  0029DE  10DE               	btfsc	status,2
  4197  0029E0  B4D8               	goto	u2201
  4198  0029E2  EFF5  F014         	goto	u2200
  4199  0029E6  EFF7  F014         
  4200                           u2201:
  4201  0029EA                     	goto	l2194
  4202  0029EA  EF14  F015         u2200:
  4203  0029EE                     	
  4204                           l2192:
  4205  0029EE                     	lfsr	2,04h
  4206  0029EE  EE20 F004          	movf	((c:fputc@fp)),c,w
  4207  0029F2  5003               	addwf	fsr2l
  4208  0029F4  26D9               	movf	((c:fputc@fp+1)),c,w
  4209  0029F6  5004               	addwfc	fsr2h
  4210  0029F8  22DA               	lfsr	1,02h
  4211  0029FA  EE10 F002          	movf	((c:fputc@fp)),c,w
  4212  0029FE  5003               	addwf	fsr1l
  4213  002A00  26E1               	movf	((c:fputc@fp+1)),c,w
  4214  002A02  5004               	addwfc	fsr1h
  4215  002A04  22E2               		movf	postinc2,w
  4216  002A06  50DE               	subwf	postinc1,w
  4217  002A08  5CE6               	movf	postinc1,w
  4218  002A0A  50E6               	xorlw	80h
  4219  002A0C  0A80               	movwf	(??_fputc+4+0)&0ffh,c
  4220  002A0E  6E09               	movf	postinc2,w
  4221  002A10  50DE               	xorlw	80h
  4222  002A12  0A80               	subwfb	(??_fputc+4+0)&0ffh,c,w
  4223  002A14  5809               	btfsc	status,0
  4224  002A16  B0D8               	goto	u2211
  4225  002A18  EF10  F015         	goto	u2210
  4226  002A1C  EF12  F015         
  4227                           u2211:
  4228  002A20                     	goto	l978
  4229  002A20  EF3D  F015         u2210:
  4230  002A24                     	goto	l2194
  4231  002A24  EF14  F015         	
  4232                           l977:
  4233  002A28                     	line	16
  4234                           	
  4235                           l2194:
  4236  002A28                     	lfsr	2,02h
  4237  002A28  EE20 F002          	movf	((c:fputc@fp)),c,w
  4238  002A2C  5003               	addwf	fsr2l
  4239  002A2E  26D9               	movf	((c:fputc@fp+1)),c,w
  4240  002A30  5004               	addwfc	fsr2h
  4241  002A32  22DA               	movff	postinc2,??_fputc+0+0
  4242  002A34  CFDE F005          	movff	postdec2,??_fputc+0+0+1
  4243  002A38  CFDD F006          	movff	(c:fputc@fp),fsr2l
  4244  002A3C  C003  FFD9         	movff	(c:fputc@fp+1),fsr2h
  4245  002A40  C004  FFDA         	movff	postinc2,??_fputc+2+0
  4246  002A44  CFDE F007          	movff	postdec2,??_fputc+2+0+1
  4247  002A48  CFDD F008          	movf	(??_fputc+0+0),c,w
  4248  002A4C  5005               	addwf	(??_fputc+2+0),c,w
  4249  002A4E  2407               	movwf	c:fsr2l
  4250  002A50  6ED9               	movf	(??_fputc+0+1),c,w
  4251  002A52  5006               	addwfc	(??_fputc+2+1),c,w
  4252  002A54  2008               	movwf	1+c:fsr2l
  4253  002A56  6EDA               	movff	(c:fputc@c),indf2
  4254  002A58  C001  FFDF         
  4255                           	line	17
  4256                           	lfsr	2,02h
  4257  002A5C  EE20 F002          	movf	((c:fputc@fp)),c,w
  4258  002A60  5003               	addwf	fsr2l
  4259  002A62  26D9               	movf	((c:fputc@fp+1)),c,w
  4260  002A64  5004               	addwfc	fsr2h
  4261  002A66  22DA               	incf	postinc2
  4262  002A68  2ADE               	movlw	0
  4263  002A6A  0E00               	addwfc	postdec2
  4264  002A6C  22DD               	goto	l978
  4265  002A6E  EF3D  F015         	line	18
  4266                           	
  4267                           l975:
  4268  002A72                     	goto	l978
  4269  002A72  EF3D  F015         	line	19
  4270                           	
  4271                           l974:
  4272  002A76                     	goto	l978
  4273  002A76  EF3D  F015         	line	20
  4274                           	
  4275                           l2196:
  4276  002A7A                     	line	21
  4277                           ;	Return value of _fputc is never used
  4278                           	
  4279                           l978:
  4280  002A7A                     	return	;funcret
  4281  002A7A  0012               	opt stack 0
  4282                           GLOBAL	__end_of_fputc
  4283                           	__end_of_fputc:
  4284  002A7C                     	signat	_fputc,8314
  4285                           	global	_putch
  4286                           
  4287 ;; *************** function _putch *****************
  4288 ;; Defined at:
  4289 ;;		line 7 in file "C:\Program Files (x86)\Microchip\xc8\v2.00\pic\sources\c99\common\putch.c"
  4290 ;; Parameters:    Size  Location     Type
  4291 ;;  c               1    wreg     unsigned char 
  4292 ;; Auto vars:     Size  Location     Type
  4293 ;;  c               1    0[COMRAM] unsigned char 
  4294 ;; Return value:  Size  Location     Type
  4295 ;;                  1    wreg      void 
  4296 ;; Registers used:
  4297 ;;		wreg
  4298 ;; Tracked objects:
  4299 ;;		On entry : 0/0
  4300 ;;		On exit  : 0/0
  4301 ;;		Unchanged: 0/0
  4302 ;; Data sizes:     COMRAM   BANK0   BANK1   BANK2   BANK3   BANK4   BANK5
  4303 ;;      Params:         0       0       0       0       0       0       0
  4304 ;;      Locals:         0       0       0       0       0       0       0
  4305 ;;      Temps:          0       0       0       0       0       0       0
  4306 ;;      Totals:         0       0       0       0       0       0       0
  4307 ;;Total ram usage:        0 bytes
  4308 ;; Hardware stack levels used:    1
  4309 ;; Hardware stack levels required when called:    1
  4310 ;; This function calls:
  4311 ;;		Nothing
  4312 ;; This function is called by:
  4313 ;;		_fputc
  4314 ;; This function uses a non-reentrant model
  4315 ;;
  4316                           psect	text9,class=CODE,space=0,reloc=2,group=2
  4317                           	file	"C:\Program Files (x86)\Microchip\xc8\v2.00\pic\sources\c99\common\putch.c"
  4318                           	line	7
  4319                           global __ptext9
  4320                           __ptext9:
  4321  003028                     psect	text9
  4322                           	file	"C:\Program Files (x86)\Microchip\xc8\v2.00\pic\sources\c99\common\putch.c"
  4323                           	line	7
  4324                           	global	__size_of_putch
  4325                           	__size_of_putch	equ	__end_of_putch-_putch
  4326  0000                     	
  4327                           _putch:
  4328  003028                     ;incstack = 0
  4329                           	opt	stack 25
  4330                           	line	9
  4331                           	
  4332                           l996:
  4333  003028                     	return	;funcret
  4334  003028  0012               	opt stack 0
  4335                           GLOBAL	__end_of_putch
  4336                           	__end_of_putch:
  4337  00302A                     	signat	_putch,4217
  4338                           	global	_abs
  4339                           
  4340 ;; *************** function _abs *****************
  4341 ;; Defined at:
  4342 ;;		line 1 in file "C:\Program Files (x86)\Microchip\xc8\v2.00\pic\sources\c99\common\abs.c"
  4343 ;; Parameters:    Size  Location     Type
  4344 ;;  a               2   18[COMRAM] int 
  4345 ;; Auto vars:     Size  Location     Type
  4346 ;;		None
  4347 ;; Return value:  Size  Location     Type
  4348 ;;                  2   18[COMRAM] int 
  4349 ;; Registers used:
  4350 ;;		wreg, status,2, status,0
  4351 ;; Tracked objects:
  4352 ;;		On entry : 0/0
  4353 ;;		On exit  : 0/0
  4354 ;;		Unchanged: 0/0
  4355 ;; Data sizes:     COMRAM   BANK0   BANK1   BANK2   BANK3   BANK4   BANK5
  4356 ;;      Params:         2       0       0       0       0       0       0
  4357 ;;      Locals:         0       0       0       0       0       0       0
  4358 ;;      Temps:          2       0       0       0       0       0       0
  4359 ;;      Totals:         4       0       0       0       0       0       0
  4360 ;;Total ram usage:        4 bytes
  4361 ;; Hardware stack levels used:    1
  4362 ;; Hardware stack levels required when called:    1
  4363 ;; This function calls:
  4364 ;;		Nothing
  4365 ;; This function is called by:
  4366 ;;		_dtoa
  4367 ;; This function uses a non-reentrant model
  4368 ;;
  4369                           psect	text10,class=CODE,space=0,reloc=2,group=2
  4370                           	file	"C:\Program Files (x86)\Microchip\xc8\v2.00\pic\sources\c99\common\abs.c"
  4371                           	line	1
  4372                           global __ptext10
  4373                           __ptext10:
  4374  002F2A                     psect	text10
  4375                           	file	"C:\Program Files (x86)\Microchip\xc8\v2.00\pic\sources\c99\common\abs.c"
  4376                           	line	1
  4377                           	global	__size_of_abs
  4378                           	__size_of_abs	equ	__end_of_abs-_abs
  4379  0000                     	
  4380                           _abs:
  4381  002F2A                     ;incstack = 0
  4382                           	opt	stack 25
  4383                           	line	3
  4384                           	
  4385                           l2238:
  4386  002F2A                     	btfsc	((c:abs@a+1)),c,7
  4387  002F2A  BE14               	goto	u2280
  4388  002F2C  EFA2  F017         	movf	((c:abs@a+1)),c,w
  4389  002F30  5014               	bnz	u2281
  4390  002F32  E106               	decf	((c:abs@a)),c,w
  4391  002F34  0413               	btfsc	status,0
  4392  002F36  B0D8               	goto	u2281
  4393  002F38  EFA0  F017         	goto	u2280
  4394  002F3C  EFA2  F017         
  4395                           u2281:
  4396  002F40                     	goto	l953
  4397  002F40  EFB0  F017         u2280:
  4398  002F44                     	
  4399                           l2240:
  4400  002F44                     	movff	(c:abs@a),??_abs+0+0
  4401  002F44  C013  F015         	movff	(c:abs@a+1),??_abs+0+0+1
  4402  002F48  C014  F016         	comf	(??_abs+0+0),c
  4403  002F4C  1E15               	comf	(??_abs+0+1),c
  4404  002F4E  1E16               	infsnz	(??_abs+0+0),c
  4405  002F50  4A15               	incf	(??_abs+0+1),c
  4406  002F52  2A16               	movff	??_abs+0+0,(c:?_abs)
  4407  002F54  C015  F013         	movff	??_abs+0+1,(c:?_abs+1)
  4408  002F58  C016  F014         	goto	l956
  4409  002F5C  EFB6  F017         	
  4410                           l953:
  4411  002F60                     	movff	(c:abs@a),(c:?_abs)
  4412  002F60  C013  F013         	movff	(c:abs@a+1),(c:?_abs+1)
  4413  002F64  C014  F014         	goto	l956
  4414  002F68  EFB6  F017         	
  4415                           l955:
  4416  002F6C                     	line	4
  4417                           	
  4418                           l956:
  4419  002F6C                     	return	;funcret
  4420  002F6C  0012               	opt stack 0
  4421                           GLOBAL	__end_of_abs
  4422                           	__end_of_abs:
  4423  002F6E                     	signat	_abs,4218
  4424                           	global	___aomod
  4425                           
  4426 ;; *************** function ___aomod *****************
  4427 ;; Defined at:
  4428 ;;		line 9 in file "C:\Program Files (x86)\Microchip\xc8\v2.00\pic\sources\c99\common\aomod.c"
  4429 ;; Parameters:    Size  Location     Type
  4430 ;;  dividend        8    0[COMRAM] long long 
  4431 ;;  divisor         8    8[COMRAM] long long 
  4432 ;; Auto vars:     Size  Location     Type
  4433 ;;  sign            1   17[COMRAM] unsigned char 
  4434 ;;  counter         1   16[COMRAM] unsigned char 
  4435 ;; Return value:  Size  Location     Type
  4436 ;;                  8    0[COMRAM] long long 
  4437 ;; Registers used:
  4438 ;;		wreg, status,2, status,0
  4439 ;; Tracked objects:
  4440 ;;		On entry : 0/0
  4441 ;;		On exit  : 0/0
  4442 ;;		Unchanged: 0/0
  4443 ;; Data sizes:     COMRAM   BANK0   BANK1   BANK2   BANK3   BANK4   BANK5
  4444 ;;      Params:        16       0       0       0       0       0       0
  4445 ;;      Locals:         2       0       0       0       0       0       0
  4446 ;;      Temps:          0       0       0       0       0       0       0
  4447 ;;      Totals:        18       0       0       0       0       0       0
  4448 ;;Total ram usage:       18 bytes
  4449 ;; Hardware stack levels used:    1
  4450 ;; Hardware stack levels required when called:    1
  4451 ;; This function calls:
  4452 ;;		Nothing
  4453 ;; This function is called by:
  4454 ;;		_dtoa
  4455 ;; This function uses a non-reentrant model
  4456 ;;
  4457                           psect	text11,class=CODE,space=0,reloc=2,group=1
  4458                           	file	"C:\Program Files (x86)\Microchip\xc8\v2.00\pic\sources\c99\common\aomod.c"
  4459                           	line	9
  4460                           global __ptext11
  4461                           __ptext11:
  4462  0025CE                     psect	text11
  4463                           	file	"C:\Program Files (x86)\Microchip\xc8\v2.00\pic\sources\c99\common\aomod.c"
  4464                           	line	9
  4465                           	global	__size_of___aomod
  4466                           	__size_of___aomod	equ	__end_of___aomod-___aomod
  4467  0000                     	
  4468                           ___aomod:
  4469  0025CE                     ;incstack = 0
  4470                           	opt	stack 25
  4471                           	line	14
  4472                           	
  4473                           l2286:
  4474  0025CE                     	movlw	low(0)
  4475  0025CE  0E00               	movwf	((c:___aomod@sign)),c
  4476  0025D0  6E12               	line	15
  4477                           	
  4478                           l2288:
  4479  0025D2                     	btfsc	((c:___aomod@dividend+7)),c,7
  4480  0025D2  BE08               	goto	u2360
  4481  0025D4  EFF0  F012         	goto	u2361
  4482  0025D8  EFEE  F012         
  4483                           u2361:
  4484  0025DC                     	goto	l2294
  4485  0025DC  EF04  F013         u2360:
  4486  0025E0                     	line	16
  4487                           	
  4488                           l2290:
  4489  0025E0                     	comf	((c:___aomod@dividend+7)),c
  4490  0025E0  1E08               	comf	((c:___aomod@dividend+6)),c
  4491  0025E2  1E07               	comf	((c:___aomod@dividend+5)),c
  4492  0025E4  1E06               	comf	((c:___aomod@dividend+4)),c
  4493  0025E6  1E05               	comf	((c:___aomod@dividend+3)),c
  4494  0025E8  1E04               	comf	((c:___aomod@dividend+2)),c
  4495  0025EA  1E03               	comf	((c:___aomod@dividend+1)),c
  4496  0025EC  1E02               	negf	((c:___aomod@dividend)),c
  4497  0025EE  6C01               	movlw	0
  4498  0025F0  0E00               	addwfc	((c:___aomod@dividend+1)),c
  4499  0025F2  2202               	addwfc	((c:___aomod@dividend+2)),c
  4500  0025F4  2203               	addwfc	((c:___aomod@dividend+3)),c
  4501  0025F6  2204               	addwfc	((c:___aomod@dividend+4)),c
  4502  0025F8  2205               	addwfc	((c:___aomod@dividend+5)),c
  4503  0025FA  2206               	addwfc	((c:___aomod@dividend+6)),c
  4504  0025FC  2207               	addwfc	((c:___aomod@dividend+7)),c
  4505  0025FE  2208               	line	17
  4506                           	
  4507                           l2292:
  4508  002600                     	movlw	low(01h)
  4509  002600  0E01               	movwf	((c:___aomod@sign)),c
  4510  002602  6E12               	goto	l2294
  4511  002604  EF04  F013         	line	18
  4512                           	
  4513                           l395:
  4514  002608                     	line	19
  4515                           	
  4516                           l2294:
  4517  002608                     	btfsc	((c:___aomod@divisor+7)),c,7
  4518  002608  BE10               	goto	u2370
  4519  00260A  EF0B  F013         	goto	u2371
  4520  00260E  EF09  F013         
  4521                           u2371:
  4522  002612                     	goto	l2298
  4523  002612  EF1D  F013         u2370:
  4524  002616                     	line	20
  4525                           	
  4526                           l2296:
  4527  002616                     	comf	((c:___aomod@divisor+7)),c
  4528  002616  1E10               	comf	((c:___aomod@divisor+6)),c
  4529  002618  1E0F               	comf	((c:___aomod@divisor+5)),c
  4530  00261A  1E0E               	comf	((c:___aomod@divisor+4)),c
  4531  00261C  1E0D               	comf	((c:___aomod@divisor+3)),c
  4532  00261E  1E0C               	comf	((c:___aomod@divisor+2)),c
  4533  002620  1E0B               	comf	((c:___aomod@divisor+1)),c
  4534  002622  1E0A               	negf	((c:___aomod@divisor)),c
  4535  002624  6C09               	movlw	0
  4536  002626  0E00               	addwfc	((c:___aomod@divisor+1)),c
  4537  002628  220A               	addwfc	((c:___aomod@divisor+2)),c
  4538  00262A  220B               	addwfc	((c:___aomod@divisor+3)),c
  4539  00262C  220C               	addwfc	((c:___aomod@divisor+4)),c
  4540  00262E  220D               	addwfc	((c:___aomod@divisor+5)),c
  4541  002630  220E               	addwfc	((c:___aomod@divisor+6)),c
  4542  002632  220F               	addwfc	((c:___aomod@divisor+7)),c
  4543  002634  2210               	goto	l2298
  4544  002636  EF1D  F013         	
  4545                           l396:
  4546  00263A                     	line	21
  4547                           	
  4548                           l2298:
  4549  00263A                     	movf	((c:___aomod@divisor)),c,w
  4550  00263A  5009               iorwf	((c:___aomod@divisor+1)),c,w
  4551  00263C  100A               iorwf	((c:___aomod@divisor+2)),c,w
  4552  00263E  100B               iorwf	((c:___aomod@divisor+3)),c,w
  4553  002640  100C               iorwf	((c:___aomod@divisor+4)),c,w
  4554  002642  100D               iorwf	((c:___aomod@divisor+5)),c,w
  4555  002644  100E               iorwf	((c:___aomod@divisor+6)),c,w
  4556  002646  100F               iorwf	((c:___aomod@divisor+7)),c,w
  4557  002648  1010               	btfsc	status,2
  4558  00264A  B4D8               	goto	u2381
  4559  00264C  EF2A  F013         	goto	u2380
  4560  002650  EF2C  F013         
  4561                           u2381:
  4562  002654                     	goto	l2314
  4563  002654  EF80  F013         u2380:
  4564  002658                     	line	22
  4565                           	
  4566                           l2300:
  4567  002658                     	movlw	low(01h)
  4568  002658  0E01               	movwf	((c:___aomod@counter)),c
  4569  00265A  6E11               	line	23
  4570                           	goto	l2304
  4571  00265C  EF3C  F013         	
  4572                           l399:
  4573  002660                     	line	24
  4574                           	
  4575                           l2302:
  4576  002660                     	bcf	status,0
  4577  002660  90D8               	rlcf	((c:___aomod@divisor)),c
  4578  002662  3609               	rlcf	((c:___aomod@divisor+1)),c
  4579  002664  360A               	rlcf	((c:___aomod@divisor+2)),c
  4580  002666  360B               	rlcf	((c:___aomod@divisor+3)),c
  4581  002668  360C               	rlcf	((c:___aomod@divisor+4)),c
  4582  00266A  360D               	rlcf	((c:___aomod@divisor+5)),c
  4583  00266C  360E               	rlcf	((c:___aomod@divisor+6)),c
  4584  00266E  360F               	rlcf	((c:___aomod@divisor+7)),c
  4585  002670  3610               	line	25
  4586                           	incf	((c:___aomod@counter)),c
  4587  002672  2A11               	goto	l2304
  4588  002674  EF3C  F013         	line	26
  4589                           	
  4590                           l398:
  4591  002678                     	line	23
  4592                           	
  4593                           l2304:
  4594  002678                     	
  4595                           	btfss	((c:___aomod@divisor+7)),c,(63)&7
  4596  002678  AE10               	goto	u2391
  4597  00267A  EF41  F013         	goto	u2390
  4598  00267E  EF43  F013         u2391:
  4599  002682                     	goto	l2302
  4600  002682  EF30  F013         u2390:
  4601  002686                     	goto	l2306
  4602  002686  EF47  F013         	
  4603                           l400:
  4604  00268A                     	goto	l2306
  4605  00268A  EF47  F013         	line	27
  4606                           	
  4607                           l401:
  4608  00268E                     	line	28
  4609                           	
  4610                           l2306:
  4611  00268E                     		movf	((c:___aomod@divisor)),c,w
  4612  00268E  5009               	subwf	((c:___aomod@dividend)),c,w
  4613  002690  5C01               	movf	((c:___aomod@divisor+1)),c,w
  4614  002692  500A               	subwfb	((c:___aomod@dividend+1)),c,w
  4615  002694  5802               	movf	((c:___aomod@divisor+2)),c,w
  4616  002696  500B               	subwfb	((c:___aomod@dividend+2)),c,w
  4617  002698  5803               	movf	((c:___aomod@divisor+3)),c,w
  4618  00269A  500C               	subwfb	((c:___aomod@dividend+3)),c,w
  4619  00269C  5804               	movf	((c:___aomod@divisor+4)),c,w
  4620  00269E  500D               	subwfb	((c:___aomod@dividend+4)),c,w
  4621  0026A0  5805               	movf	((c:___aomod@divisor+5)),c,w
  4622  0026A2  500E               	subwfb	((c:___aomod@dividend+5)),c,w
  4623  0026A4  5806               	movf	((c:___aomod@divisor+6)),c,w
  4624  0026A6  500F               	subwfb	((c:___aomod@dividend+6)),c,w
  4625  0026A8  5807               	movf	((c:___aomod@divisor+7)),c,w
  4626  0026AA  5010               	subwfb	((c:___aomod@dividend+7)),c,w
  4627  0026AC  5808               	btfss	status,0
  4628  0026AE  A0D8               	goto	u2401
  4629  0026B0  EF5C  F013         	goto	u2400
  4630  0026B4  EF5E  F013         
  4631                           u2401:
  4632  0026B8                     	goto	l2310
  4633  0026B8  EF70  F013         u2400:
  4634  0026BC                     	line	29
  4635                           	
  4636                           l2308:
  4637  0026BC                     	movf	((c:___aomod@divisor)),c,w
  4638  0026BC  5009               	subwf	((c:___aomod@dividend)),c
  4639  0026BE  5E01               	movf	((c:___aomod@divisor+1)),c,w
  4640  0026C0  500A               	subwfb	((c:___aomod@dividend+1)),c
  4641  0026C2  5A02               	movf	((c:___aomod@divisor+2)),c,w
  4642  0026C4  500B               	subwfb	((c:___aomod@dividend+2)),c
  4643  0026C6  5A03               	movf	((c:___aomod@divisor+3)),c,w
  4644  0026C8  500C               	subwfb	((c:___aomod@dividend+3)),c
  4645  0026CA  5A04               	movf	((c:___aomod@divisor+4)),c,w
  4646  0026CC  500D               	subwfb	((c:___aomod@dividend+4)),c
  4647  0026CE  5A05               	movf	((c:___aomod@divisor+5)),c,w
  4648  0026D0  500E               	subwfb	((c:___aomod@dividend+5)),c
  4649  0026D2  5A06               	movf	((c:___aomod@divisor+6)),c,w
  4650  0026D4  500F               	subwfb	((c:___aomod@dividend+6)),c
  4651  0026D6  5A07               	movf	((c:___aomod@divisor+7)),c,w
  4652  0026D8  5010               	subwfb	((c:___aomod@dividend+7)),c
  4653  0026DA  5A08               	goto	l2310
  4654  0026DC  EF70  F013         	
  4655                           l402:
  4656  0026E0                     	line	30
  4657                           	
  4658                           l2310:
  4659  0026E0                     	bcf	status,0
  4660  0026E0  90D8               	rrcf	((c:___aomod@divisor+7)),c
  4661  0026E2  3210               	rrcf	((c:___aomod@divisor+6)),c
  4662  0026E4  320F               	rrcf	((c:___aomod@divisor+5)),c
  4663  0026E6  320E               	rrcf	((c:___aomod@divisor+4)),c
  4664  0026E8  320D               	rrcf	((c:___aomod@divisor+3)),c
  4665  0026EA  320C               	rrcf	((c:___aomod@divisor+2)),c
  4666  0026EC  320B               	rrcf	((c:___aomod@divisor+1)),c
  4667  0026EE  320A               	rrcf	((c:___aomod@divisor)),c
  4668  0026F0  3209               	line	31
  4669                           	
  4670                           l2312:
  4671  0026F2                     	decfsz	((c:___aomod@counter)),c
  4672  0026F2  2E11               	
  4673                           	goto	l2306
  4674  0026F4  EF47  F013         	goto	l2314
  4675  0026F8  EF80  F013         	
  4676                           l403:
  4677  0026FC                     	goto	l2314
  4678  0026FC  EF80  F013         	line	32
  4679                           	
  4680                           l397:
  4681  002700                     	line	33
  4682                           	
  4683                           l2314:
  4684  002700                     	movf	((c:___aomod@sign)),c,w
  4685  002700  5012               	btfsc	status,2
  4686  002702  B4D8               	goto	u2411
  4687  002704  EF86  F013         	goto	u2410
  4688  002708  EF88  F013         u2411:
  4689  00270C                     	goto	l2318
  4690  00270C  EF9A  F013         u2410:
  4691  002710                     	line	34
  4692                           	
  4693                           l2316:
  4694  002710                     	comf	((c:___aomod@dividend+7)),c
  4695  002710  1E08               	comf	((c:___aomod@dividend+6)),c
  4696  002712  1E07               	comf	((c:___aomod@dividend+5)),c
  4697  002714  1E06               	comf	((c:___aomod@dividend+4)),c
  4698  002716  1E05               	comf	((c:___aomod@dividend+3)),c
  4699  002718  1E04               	comf	((c:___aomod@dividend+2)),c
  4700  00271A  1E03               	comf	((c:___aomod@dividend+1)),c
  4701  00271C  1E02               	negf	((c:___aomod@dividend)),c
  4702  00271E  6C01               	movlw	0
  4703  002720  0E00               	addwfc	((c:___aomod@dividend+1)),c
  4704  002722  2202               	addwfc	((c:___aomod@dividend+2)),c
  4705  002724  2203               	addwfc	((c:___aomod@dividend+3)),c
  4706  002726  2204               	addwfc	((c:___aomod@dividend+4)),c
  4707  002728  2205               	addwfc	((c:___aomod@dividend+5)),c
  4708  00272A  2206               	addwfc	((c:___aomod@dividend+6)),c
  4709  00272C  2207               	addwfc	((c:___aomod@dividend+7)),c
  4710  00272E  2208               	goto	l2318
  4711  002730  EF9A  F013         	
  4712                           l404:
  4713  002734                     	line	35
  4714                           	
  4715                           l2318:
  4716  002734                     	movff	(c:___aomod@dividend),(c:?___aomod)
  4717  002734  C001  F001         	movff	(c:___aomod@dividend+1),(c:?___aomod+1)
  4718  002738  C002  F002         	movff	(c:___aomod@dividend+2),(c:?___aomod+2)
  4719  00273C  C003  F003         	movff	(c:___aomod@dividend+3),(c:?___aomod+3)
  4720  002740  C004  F004         	movff	(c:___aomod@dividend+4),(c:?___aomod+4)
  4721  002744  C005  F005         	movff	(c:___aomod@dividend+5),(c:?___aomod+5)
  4722  002748  C006  F006         	movff	(c:___aomod@dividend+6),(c:?___aomod+6)
  4723  00274C  C007  F007         	movff	(c:___aomod@dividend+7),(c:?___aomod+7)
  4724  002750  C008  F008         	goto	l405
  4725  002754  EFAC  F013         	
  4726                           l2320:
  4727  002758                     	line	36
  4728                           	
  4729                           l405:
  4730  002758                     	return	;funcret
  4731  002758  0012               	opt stack 0
  4732                           GLOBAL	__end_of___aomod
  4733                           	__end_of___aomod:
  4734  00275A                     	signat	___aomod,8319
  4735                           	global	___aodiv
  4736                           
  4737 ;; *************** function ___aodiv *****************
  4738 ;; Defined at:
  4739 ;;		line 9 in file "C:\Program Files (x86)\Microchip\xc8\v2.00\pic\sources\c99\common\aodiv.c"
  4740 ;; Parameters:    Size  Location     Type
  4741 ;;  dividend        8    0[COMRAM] long long 
  4742 ;;  divisor         8    8[COMRAM] long long 
  4743 ;; Auto vars:     Size  Location     Type
  4744 ;;  quotient        8   18[COMRAM] long long 
  4745 ;;  sign            1   17[COMRAM] unsigned char 
  4746 ;;  counter         1   16[COMRAM] unsigned char 
  4747 ;; Return value:  Size  Location     Type
  4748 ;;                  8    0[COMRAM] long long 
  4749 ;; Registers used:
  4750 ;;		wreg, fsr2l, fsr2h, status,2, status,0
  4751 ;; Tracked objects:
  4752 ;;		On entry : 0/0
  4753 ;;		On exit  : 0/0
  4754 ;;		Unchanged: 0/0
  4755 ;; Data sizes:     COMRAM   BANK0   BANK1   BANK2   BANK3   BANK4   BANK5
  4756 ;;      Params:        16       0       0       0       0       0       0
  4757 ;;      Locals:        10       0       0       0       0       0       0
  4758 ;;      Temps:          0       0       0       0       0       0       0
  4759 ;;      Totals:        26       0       0       0       0       0       0
  4760 ;;Total ram usage:       26 bytes
  4761 ;; Hardware stack levels used:    1
  4762 ;; Hardware stack levels required when called:    1
  4763 ;; This function calls:
  4764 ;;		Nothing
  4765 ;; This function is called by:
  4766 ;;		_dtoa
  4767 ;; This function uses a non-reentrant model
  4768 ;;
  4769                           psect	text12,class=CODE,space=0,reloc=2,group=1
  4770                           	file	"C:\Program Files (x86)\Microchip\xc8\v2.00\pic\sources\c99\common\aodiv.c"
  4771                           	line	9
  4772                           global __ptext12
  4773                           __ptext12:
  4774  00241E                     psect	text12
  4775                           	file	"C:\Program Files (x86)\Microchip\xc8\v2.00\pic\sources\c99\common\aodiv.c"
  4776                           	line	9
  4777                           	global	__size_of___aodiv
  4778                           	__size_of___aodiv	equ	__end_of___aodiv-___aodiv
  4779  0000                     	
  4780                           ___aodiv:
  4781  00241E                     ;incstack = 0
  4782                           	opt	stack 25
  4783                           	line	15
  4784                           	
  4785                           l2242:
  4786  00241E                     	movlw	low(0)
  4787  00241E  0E00               	movwf	((c:___aodiv@sign)),c
  4788  002420  6E12               	line	16
  4789                           	
  4790                           l2244:
  4791  002422                     	btfsc	((c:___aodiv@divisor+7)),c,7
  4792  002422  BE10               	goto	u2290
  4793  002424  EF18  F012         	goto	u2291
  4794  002428  EF16  F012         
  4795                           u2291:
  4796  00242C                     	goto	l2250
  4797  00242C  EF2C  F012         u2290:
  4798  002430                     	line	17
  4799                           	
  4800                           l2246:
  4801  002430                     	comf	((c:___aodiv@divisor+7)),c
  4802  002430  1E10               	comf	((c:___aodiv@divisor+6)),c
  4803  002432  1E0F               	comf	((c:___aodiv@divisor+5)),c
  4804  002434  1E0E               	comf	((c:___aodiv@divisor+4)),c
  4805  002436  1E0D               	comf	((c:___aodiv@divisor+3)),c
  4806  002438  1E0C               	comf	((c:___aodiv@divisor+2)),c
  4807  00243A  1E0B               	comf	((c:___aodiv@divisor+1)),c
  4808  00243C  1E0A               	negf	((c:___aodiv@divisor)),c
  4809  00243E  6C09               	movlw	0
  4810  002440  0E00               	addwfc	((c:___aodiv@divisor+1)),c
  4811  002442  220A               	addwfc	((c:___aodiv@divisor+2)),c
  4812  002444  220B               	addwfc	((c:___aodiv@divisor+3)),c
  4813  002446  220C               	addwfc	((c:___aodiv@divisor+4)),c
  4814  002448  220D               	addwfc	((c:___aodiv@divisor+5)),c
  4815  00244A  220E               	addwfc	((c:___aodiv@divisor+6)),c
  4816  00244C  220F               	addwfc	((c:___aodiv@divisor+7)),c
  4817  00244E  2210               	line	18
  4818                           	
  4819                           l2248:
  4820  002450                     	movlw	low(01h)
  4821  002450  0E01               	movwf	((c:___aodiv@sign)),c
  4822  002452  6E12               	goto	l2250
  4823  002454  EF2C  F012         	line	19
  4824                           	
  4825                           l382:
  4826  002458                     	line	20
  4827                           	
  4828                           l2250:
  4829  002458                     	btfsc	((c:___aodiv@dividend+7)),c,7
  4830  002458  BE08               	goto	u2300
  4831  00245A  EF33  F012         	goto	u2301
  4832  00245E  EF31  F012         
  4833                           u2301:
  4834  002462                     	goto	l2256
  4835  002462  EF47  F012         u2300:
  4836  002466                     	line	21
  4837                           	
  4838                           l2252:
  4839  002466                     	comf	((c:___aodiv@dividend+7)),c
  4840  002466  1E08               	comf	((c:___aodiv@dividend+6)),c
  4841  002468  1E07               	comf	((c:___aodiv@dividend+5)),c
  4842  00246A  1E06               	comf	((c:___aodiv@dividend+4)),c
  4843  00246C  1E05               	comf	((c:___aodiv@dividend+3)),c
  4844  00246E  1E04               	comf	((c:___aodiv@dividend+2)),c
  4845  002470  1E03               	comf	((c:___aodiv@dividend+1)),c
  4846  002472  1E02               	negf	((c:___aodiv@dividend)),c
  4847  002474  6C01               	movlw	0
  4848  002476  0E00               	addwfc	((c:___aodiv@dividend+1)),c
  4849  002478  2202               	addwfc	((c:___aodiv@dividend+2)),c
  4850  00247A  2203               	addwfc	((c:___aodiv@dividend+3)),c
  4851  00247C  2204               	addwfc	((c:___aodiv@dividend+4)),c
  4852  00247E  2205               	addwfc	((c:___aodiv@dividend+5)),c
  4853  002480  2206               	addwfc	((c:___aodiv@dividend+6)),c
  4854  002482  2207               	addwfc	((c:___aodiv@dividend+7)),c
  4855  002484  2208               	line	22
  4856                           	
  4857                           l2254:
  4858  002486                     	movlw	(01h)&0ffh
  4859  002486  0E01               	xorwf	((c:___aodiv@sign)),c
  4860  002488  1A12               	goto	l2256
  4861  00248A  EF47  F012         	line	23
  4862                           	
  4863                           l383:
  4864  00248E                     	line	24
  4865                           	
  4866                           l2256:
  4867  00248E                     	lfsr	2,(___aodiv@quotient)
  4868  00248E  EE20  F013         	movlw	8-1
  4869  002492  0E07               u2311:
  4870  002494                     	clrf	postinc2
  4871  002494  6ADE               	decf	wreg
  4872  002496  06E8               	bc	u2311
  4873  002498  E2FD               	line	25
  4874                           	
  4875                           l2258:
  4876  00249A                     	movf	((c:___aodiv@divisor)),c,w
  4877  00249A  5009               iorwf	((c:___aodiv@divisor+1)),c,w
  4878  00249C  100A               iorwf	((c:___aodiv@divisor+2)),c,w
  4879  00249E  100B               iorwf	((c:___aodiv@divisor+3)),c,w
  4880  0024A0  100C               iorwf	((c:___aodiv@divisor+4)),c,w
  4881  0024A2  100D               iorwf	((c:___aodiv@divisor+5)),c,w
  4882  0024A4  100E               iorwf	((c:___aodiv@divisor+6)),c,w
  4883  0024A6  100F               iorwf	((c:___aodiv@divisor+7)),c,w
  4884  0024A8  1010               	btfsc	status,2
  4885  0024AA  B4D8               	goto	u2321
  4886  0024AC  EF5A  F012         	goto	u2320
  4887  0024B0  EF5C  F012         
  4888                           u2321:
  4889  0024B4                     	goto	l2278
  4890  0024B4  EFBA  F012         u2320:
  4891  0024B8                     	line	26
  4892                           	
  4893                           l2260:
  4894  0024B8                     	movlw	low(01h)
  4895  0024B8  0E01               	movwf	((c:___aodiv@counter)),c
  4896  0024BA  6E11               	line	27
  4897                           	goto	l2264
  4898  0024BC  EF6C  F012         	
  4899                           l386:
  4900  0024C0                     	line	28
  4901                           	
  4902                           l2262:
  4903  0024C0                     	bcf	status,0
  4904  0024C0  90D8               	rlcf	((c:___aodiv@divisor)),c
  4905  0024C2  3609               	rlcf	((c:___aodiv@divisor+1)),c
  4906  0024C4  360A               	rlcf	((c:___aodiv@divisor+2)),c
  4907  0024C6  360B               	rlcf	((c:___aodiv@divisor+3)),c
  4908  0024C8  360C               	rlcf	((c:___aodiv@divisor+4)),c
  4909  0024CA  360D               	rlcf	((c:___aodiv@divisor+5)),c
  4910  0024CC  360E               	rlcf	((c:___aodiv@divisor+6)),c
  4911  0024CE  360F               	rlcf	((c:___aodiv@divisor+7)),c
  4912  0024D0  3610               	line	29
  4913                           	incf	((c:___aodiv@counter)),c
  4914  0024D2  2A11               	goto	l2264
  4915  0024D4  EF6C  F012         	line	30
  4916                           	
  4917                           l385:
  4918  0024D8                     	line	27
  4919                           	
  4920                           l2264:
  4921  0024D8                     	
  4922                           	btfss	((c:___aodiv@divisor+7)),c,(63)&7
  4923  0024D8  AE10               	goto	u2331
  4924  0024DA  EF71  F012         	goto	u2330
  4925  0024DE  EF73  F012         u2331:
  4926  0024E2                     	goto	l2262
  4927  0024E2  EF60  F012         u2330:
  4928  0024E6                     	goto	l2266
  4929  0024E6  EF77  F012         	
  4930                           l387:
  4931  0024EA                     	goto	l2266
  4932  0024EA  EF77  F012         	line	31
  4933                           	
  4934                           l388:
  4935  0024EE                     	line	32
  4936                           	
  4937                           l2266:
  4938  0024EE                     	bcf	status,0
  4939  0024EE  90D8               	rlcf	((c:___aodiv@quotient)),c
  4940  0024F0  3613               	rlcf	((c:___aodiv@quotient+1)),c
  4941  0024F2  3614               	rlcf	((c:___aodiv@quotient+2)),c
  4942  0024F4  3615               	rlcf	((c:___aodiv@quotient+3)),c
  4943  0024F6  3616               	rlcf	((c:___aodiv@quotient+4)),c
  4944  0024F8  3617               	rlcf	((c:___aodiv@quotient+5)),c
  4945  0024FA  3618               	rlcf	((c:___aodiv@quotient+6)),c
  4946  0024FC  3619               	rlcf	((c:___aodiv@quotient+7)),c
  4947  0024FE  361A               	line	33
  4948                           	
  4949                           l2268:
  4950  002500                     		movf	((c:___aodiv@divisor)),c,w
  4951  002500  5009               	subwf	((c:___aodiv@dividend)),c,w
  4952  002502  5C01               	movf	((c:___aodiv@divisor+1)),c,w
  4953  002504  500A               	subwfb	((c:___aodiv@dividend+1)),c,w
  4954  002506  5802               	movf	((c:___aodiv@divisor+2)),c,w
  4955  002508  500B               	subwfb	((c:___aodiv@dividend+2)),c,w
  4956  00250A  5803               	movf	((c:___aodiv@divisor+3)),c,w
  4957  00250C  500C               	subwfb	((c:___aodiv@dividend+3)),c,w
  4958  00250E  5804               	movf	((c:___aodiv@divisor+4)),c,w
  4959  002510  500D               	subwfb	((c:___aodiv@dividend+4)),c,w
  4960  002512  5805               	movf	((c:___aodiv@divisor+5)),c,w
  4961  002514  500E               	subwfb	((c:___aodiv@dividend+5)),c,w
  4962  002516  5806               	movf	((c:___aodiv@divisor+6)),c,w
  4963  002518  500F               	subwfb	((c:___aodiv@dividend+6)),c,w
  4964  00251A  5807               	movf	((c:___aodiv@divisor+7)),c,w
  4965  00251C  5010               	subwfb	((c:___aodiv@dividend+7)),c,w
  4966  00251E  5808               	btfss	status,0
  4967  002520  A0D8               	goto	u2341
  4968  002522  EF95  F012         	goto	u2340
  4969  002526  EF97  F012         
  4970                           u2341:
  4971  00252A                     	goto	l2274
  4972  00252A  EFAA  F012         u2340:
  4973  00252E                     	line	34
  4974                           	
  4975                           l2270:
  4976  00252E                     	movf	((c:___aodiv@divisor)),c,w
  4977  00252E  5009               	subwf	((c:___aodiv@dividend)),c
  4978  002530  5E01               	movf	((c:___aodiv@divisor+1)),c,w
  4979  002532  500A               	subwfb	((c:___aodiv@dividend+1)),c
  4980  002534  5A02               	movf	((c:___aodiv@divisor+2)),c,w
  4981  002536  500B               	subwfb	((c:___aodiv@dividend+2)),c
  4982  002538  5A03               	movf	((c:___aodiv@divisor+3)),c,w
  4983  00253A  500C               	subwfb	((c:___aodiv@dividend+3)),c
  4984  00253C  5A04               	movf	((c:___aodiv@divisor+4)),c,w
  4985  00253E  500D               	subwfb	((c:___aodiv@dividend+4)),c
  4986  002540  5A05               	movf	((c:___aodiv@divisor+5)),c,w
  4987  002542  500E               	subwfb	((c:___aodiv@dividend+5)),c
  4988  002544  5A06               	movf	((c:___aodiv@divisor+6)),c,w
  4989  002546  500F               	subwfb	((c:___aodiv@dividend+6)),c
  4990  002548  5A07               	movf	((c:___aodiv@divisor+7)),c,w
  4991  00254A  5010               	subwfb	((c:___aodiv@dividend+7)),c
  4992  00254C  5A08               	line	35
  4993                           	
  4994                           l2272:
  4995  00254E                     	bsf	(0+(0/8)+(c:___aodiv@quotient)),c,(0)&7
  4996  00254E  8013               	goto	l2274
  4997  002550  EFAA  F012         	line	36
  4998                           	
  4999                           l389:
  5000  002554                     	line	37
  5001                           	
  5002                           l2274:
  5003  002554                     	bcf	status,0
  5004  002554  90D8               	rrcf	((c:___aodiv@divisor+7)),c
  5005  002556  3210               	rrcf	((c:___aodiv@divisor+6)),c
  5006  002558  320F               	rrcf	((c:___aodiv@divisor+5)),c
  5007  00255A  320E               	rrcf	((c:___aodiv@divisor+4)),c
  5008  00255C  320D               	rrcf	((c:___aodiv@divisor+3)),c
  5009  00255E  320C               	rrcf	((c:___aodiv@divisor+2)),c
  5010  002560  320B               	rrcf	((c:___aodiv@divisor+1)),c
  5011  002562  320A               	rrcf	((c:___aodiv@divisor)),c
  5012  002564  3209               	line	38
  5013                           	
  5014                           l2276:
  5015  002566                     	decfsz	((c:___aodiv@counter)),c
  5016  002566  2E11               	
  5017                           	goto	l2266
  5018  002568  EF77  F012         	goto	l2278
  5019  00256C  EFBA  F012         	
  5020                           l390:
  5021  002570                     	goto	l2278
  5022  002570  EFBA  F012         	line	39
  5023                           	
  5024                           l384:
  5025  002574                     	line	40
  5026                           	
  5027                           l2278:
  5028  002574                     	movf	((c:___aodiv@sign)),c,w
  5029  002574  5012               	btfsc	status,2
  5030  002576  B4D8               	goto	u2351
  5031  002578  EFC0  F012         	goto	u2350
  5032  00257C  EFC2  F012         u2351:
  5033  002580                     	goto	l2282
  5034  002580  EFD4  F012         u2350:
  5035  002584                     	line	41
  5036                           	
  5037                           l2280:
  5038  002584                     	comf	((c:___aodiv@quotient+7)),c
  5039  002584  1E1A               	comf	((c:___aodiv@quotient+6)),c
  5040  002586  1E19               	comf	((c:___aodiv@quotient+5)),c
  5041  002588  1E18               	comf	((c:___aodiv@quotient+4)),c
  5042  00258A  1E17               	comf	((c:___aodiv@quotient+3)),c
  5043  00258C  1E16               	comf	((c:___aodiv@quotient+2)),c
  5044  00258E  1E15               	comf	((c:___aodiv@quotient+1)),c
  5045  002590  1E14               	negf	((c:___aodiv@quotient)),c
  5046  002592  6C13               	movlw	0
  5047  002594  0E00               	addwfc	((c:___aodiv@quotient+1)),c
  5048  002596  2214               	addwfc	((c:___aodiv@quotient+2)),c
  5049  002598  2215               	addwfc	((c:___aodiv@quotient+3)),c
  5050  00259A  2216               	addwfc	((c:___aodiv@quotient+4)),c
  5051  00259C  2217               	addwfc	((c:___aodiv@quotient+5)),c
  5052  00259E  2218               	addwfc	((c:___aodiv@quotient+6)),c
  5053  0025A0  2219               	addwfc	((c:___aodiv@quotient+7)),c
  5054  0025A2  221A               	goto	l2282
  5055  0025A4  EFD4  F012         	
  5056                           l391:
  5057  0025A8                     	line	42
  5058                           	
  5059                           l2282:
  5060  0025A8                     	movff	(c:___aodiv@quotient),(c:?___aodiv)
  5061  0025A8  C013  F001         	movff	(c:___aodiv@quotient+1),(c:?___aodiv+1)
  5062  0025AC  C014  F002         	movff	(c:___aodiv@quotient+2),(c:?___aodiv+2)
  5063  0025B0  C015  F003         	movff	(c:___aodiv@quotient+3),(c:?___aodiv+3)
  5064  0025B4  C016  F004         	movff	(c:___aodiv@quotient+4),(c:?___aodiv+4)
  5065  0025B8  C017  F005         	movff	(c:___aodiv@quotient+5),(c:?___aodiv+5)
  5066  0025BC  C018  F006         	movff	(c:___aodiv@quotient+6),(c:?___aodiv+6)
  5067  0025C0  C019  F007         	movff	(c:___aodiv@quotient+7),(c:?___aodiv+7)
  5068  0025C4  C01A  F008         	goto	l392
  5069  0025C8  EFE6  F012         	
  5070                           l2284:
  5071  0025CC                     	line	43
  5072                           	
  5073                           l392:
  5074  0025CC                     	return	;funcret
  5075  0025CC  0012               	opt stack 0
  5076                           GLOBAL	__end_of___aodiv
  5077                           	__end_of___aodiv:
  5078  0025CE                     	signat	___aodiv,8319
  5079                           	global	_memset
  5080                           
  5081 ;; *************** function _memset *****************
  5082 ;; Defined at:
  5083 ;;		line 4 in file "C:\Program Files (x86)\Microchip\xc8\v2.00\pic\sources\c99\common\memset.c"
  5084 ;; Parameters:    Size  Location     Type
  5085 ;;  dest            2    0[COMRAM] PTR void 
  5086 ;;		 -> main@value(10), 
  5087 ;;  c               2    2[COMRAM] int 
  5088 ;;  n               2    4[COMRAM] unsigned int 
  5089 ;; Auto vars:     Size  Location     Type
  5090 ;;  s               2   12[COMRAM] PTR unsigned char 
  5091 ;;		 -> main@value(10), 
  5092 ;;  k               2   10[COMRAM] unsigned int 
  5093 ;; Return value:  Size  Location     Type
  5094 ;;                  2    0[COMRAM] PTR void 
  5095 ;; Registers used:
  5096 ;;		wreg, fsr2l, fsr2h, status,2, status,0
  5097 ;; Tracked objects:
  5098 ;;		On entry : 0/0
  5099 ;;		On exit  : 0/0
  5100 ;;		Unchanged: 0/0
  5101 ;; Data sizes:     COMRAM   BANK0   BANK1   BANK2   BANK3   BANK4   BANK5
  5102 ;;      Params:         6       0       0       0       0       0       0
  5103 ;;      Locals:         4       0       0       0       0       0       0
  5104 ;;      Temps:          4       0       0       0       0       0       0
  5105 ;;      Totals:        14       0       0       0       0       0       0
  5106 ;;Total ram usage:       14 bytes
  5107 ;; Hardware stack levels used:    1
  5108 ;; Hardware stack levels required when called:    1
  5109 ;; This function calls:
  5110 ;;		Nothing
  5111 ;; This function is called by:
  5112 ;;		_main
  5113 ;; This function uses a non-reentrant model
  5114 ;;
  5115                           psect	text13,class=CODE,space=0,reloc=2,group=2
  5116                           	file	"C:\Program Files (x86)\Microchip\xc8\v2.00\pic\sources\c99\common\memset.c"
  5117                           	line	4
  5118                           global __ptext13
  5119                           __ptext13:
  5120  002260                     psect	text13
  5121                           	file	"C:\Program Files (x86)\Microchip\xc8\v2.00\pic\sources\c99\common\memset.c"
  5122                           	line	4
  5123                           	global	__size_of_memset
  5124                           	__size_of_memset	equ	__end_of_memset-_memset
  5125  0000                     	
  5126                           _memset:
  5127  002260                     ;incstack = 0
  5128                           	opt	stack 29
  5129                           	line	6
  5130                           	
  5131                           l3224:
  5132  002260                     		movff	(c:memset@dest),(c:memset@s)
  5133  002260  C001  F00D         	movff	(c:memset@dest+1),(c:memset@s+1)
  5134  002264  C002  F00E         
  5135                           	line	13
  5136                           	movf	((c:memset@n)),c,w
  5137  002268  5005               iorwf	((c:memset@n+1)),c,w
  5138  00226A  1006               	btfss	status,2
  5139  00226C  A4D8               	goto	u4171
  5140  00226E  EF3B  F011         	goto	u4170
  5141  002272  EF3D  F011         
  5142                           u4171:
  5143  002276                     	goto	l3228
  5144  002276  EF41  F011         u4170:
  5145  00227A                     	goto	l960
  5146  00227A  EF0E  F012         	
  5147                           l3226:
  5148  00227E                     ;	Return value of _memset is never used
  5149                           	goto	l960
  5150  00227E  EF0E  F012         	
  5151                           l959:
  5152  002282                     	line	14
  5153                           	
  5154                           l3228:
  5155  002282                     	movff	(c:memset@s),fsr2l
  5156  002282  C00D  FFD9         	movff	(c:memset@s+1),fsr2h
  5157  002286  C00E  FFDA         	movff	(c:memset@c),indf2
  5158  00228A  C003  FFDF         
  5159                           	line	15
  5160                           	
  5161                           l3230:
  5162  00228E                     	movlw	low(0FFFFh)
  5163  00228E  0EFF               	movwf	(??_memset+0+0)&0ffh,c
  5164  002290  6E07               	movlw	high(0FFFFh)
  5165  002292  0EFF               	movwf	1+(??_memset+0+0)&0ffh,c
  5166  002294  6E08               	movff	(c:memset@n),??_memset+2+0
  5167  002296  C005  F009         	movff	(c:memset@n+1),??_memset+2+0+1
  5168  00229A  C006  F00A         	movf	(??_memset+0+0),c,w
  5169  00229E  5007               	addwf	(??_memset+2+0),c
  5170  0022A0  2609               	movf	(??_memset+0+1),c,w
  5171  0022A2  5008               	addwfc	(??_memset+2+1),c
  5172  0022A4  220A               	movf	(??_memset+2+0),c,w
  5173  0022A6  5009               	addwf	((c:memset@s)),c,w
  5174  0022A8  240D               	movwf	c:fsr2l
  5175  0022AA  6ED9               	movf	(??_memset+2+1),c,w
  5176  0022AC  500A               	addwfc	((c:memset@s+1)),c,w
  5177  0022AE  200E               	movwf	1+c:fsr2l
  5178  0022B0  6EDA               	movff	(c:memset@c),indf2
  5179  0022B2  C003  FFDF         
  5180                           	line	16
  5181                           		movf	((c:memset@n+1)),c,w
  5182  0022B6  5006               	bnz	u4181
  5183  0022B8  E107               	movlw	3
  5184  0022BA  0E03               	subwf	 ((c:memset@n)),c,w
  5185  0022BC  5C05               	btfsc	status,0
  5186  0022BE  B0D8               	goto	u4181
  5187  0022C0  EF64  F011         	goto	u4180
  5188  0022C4  EF66  F011         
  5189                           u4181:
  5190  0022C8                     	goto	l3234
  5191  0022C8  EF6A  F011         u4180:
  5192  0022CC                     	goto	l960
  5193  0022CC  EF0E  F012         	
  5194                           l3232:
  5195  0022D0                     ;	Return value of _memset is never used
  5196                           	goto	l960
  5197  0022D0  EF0E  F012         	
  5198                           l961:
  5199  0022D4                     	line	17
  5200                           	
  5201                           l3234:
  5202  0022D4                     	lfsr	2,01h
  5203  0022D4  EE20 F001          	movf	((c:memset@s)),c,w
  5204  0022D8  500D               	addwf	fsr2l
  5205  0022DA  26D9               	movf	((c:memset@s+1)),c,w
  5206  0022DC  500E               	addwfc	fsr2h
  5207  0022DE  22DA               	movff	(c:memset@c),indf2
  5208  0022E0  C003  FFDF         
  5209                           	line	18
  5210                           	lfsr	2,02h
  5211  0022E4  EE20 F002          	movf	((c:memset@s)),c,w
  5212  0022E8  500D               	addwf	fsr2l
  5213  0022EA  26D9               	movf	((c:memset@s+1)),c,w
  5214  0022EC  500E               	addwfc	fsr2h
  5215  0022EE  22DA               	movff	(c:memset@c),indf2
  5216  0022F0  C003  FFDF         
  5217                           	line	19
  5218                           	movlw	low(0FFFEh)
  5219  0022F4  0EFE               	movwf	(??_memset+0+0)&0ffh,c
  5220  0022F6  6E07               	movlw	high(0FFFEh)
  5221  0022F8  0EFF               	movwf	1+(??_memset+0+0)&0ffh,c
  5222  0022FA  6E08               	movff	(c:memset@n),??_memset+2+0
  5223  0022FC  C005  F009         	movff	(c:memset@n+1),??_memset+2+0+1
  5224  002300  C006  F00A         	movf	(??_memset+0+0),c,w
  5225  002304  5007               	addwf	(??_memset+2+0),c
  5226  002306  2609               	movf	(??_memset+0+1),c,w
  5227  002308  5008               	addwfc	(??_memset+2+1),c
  5228  00230A  220A               	movf	(??_memset+2+0),c,w
  5229  00230C  5009               	addwf	((c:memset@s)),c,w
  5230  00230E  240D               	movwf	c:fsr2l
  5231  002310  6ED9               	movf	(??_memset+2+1),c,w
  5232  002312  500A               	addwfc	((c:memset@s+1)),c,w
  5233  002314  200E               	movwf	1+c:fsr2l
  5234  002316  6EDA               	movff	(c:memset@c),indf2
  5235  002318  C003  FFDF         
  5236                           	line	20
  5237                           	movlw	low(0FFFDh)
  5238  00231C  0EFD               	movwf	(??_memset+0+0)&0ffh,c
  5239  00231E  6E07               	movlw	high(0FFFDh)
  5240  002320  0EFF               	movwf	1+(??_memset+0+0)&0ffh,c
  5241  002322  6E08               	movff	(c:memset@n),??_memset+2+0
  5242  002324  C005  F009         	movff	(c:memset@n+1),??_memset+2+0+1
  5243  002328  C006  F00A         	movf	(??_memset+0+0),c,w
  5244  00232C  5007               	addwf	(??_memset+2+0),c
  5245  00232E  2609               	movf	(??_memset+0+1),c,w
  5246  002330  5008               	addwfc	(??_memset+2+1),c
  5247  002332  220A               	movf	(??_memset+2+0),c,w
  5248  002334  5009               	addwf	((c:memset@s)),c,w
  5249  002336  240D               	movwf	c:fsr2l
  5250  002338  6ED9               	movf	(??_memset+2+1),c,w
  5251  00233A  500A               	addwfc	((c:memset@s+1)),c,w
  5252  00233C  200E               	movwf	1+c:fsr2l
  5253  00233E  6EDA               	movff	(c:memset@c),indf2
  5254  002340  C003  FFDF         
  5255                           	line	21
  5256                           	
  5257                           l3236:
  5258  002344                     		movf	((c:memset@n+1)),c,w
  5259  002344  5006               	bnz	u4191
  5260  002346  E107               	movlw	7
  5261  002348  0E07               	subwf	 ((c:memset@n)),c,w
  5262  00234A  5C05               	btfsc	status,0
  5263  00234C  B0D8               	goto	u4191
  5264  00234E  EFAB  F011         	goto	u4190
  5265  002352  EFAD  F011         
  5266                           u4191:
  5267  002356                     	goto	l3240
  5268  002356  EFB1  F011         u4190:
  5269  00235A                     	goto	l960
  5270  00235A  EF0E  F012         	
  5271                           l3238:
  5272  00235E                     ;	Return value of _memset is never used
  5273                           	goto	l960
  5274  00235E  EF0E  F012         	
  5275                           l962:
  5276  002362                     	line	22
  5277                           	
  5278                           l3240:
  5279  002362                     	lfsr	2,03h
  5280  002362  EE20 F003          	movf	((c:memset@s)),c,w
  5281  002366  500D               	addwf	fsr2l
  5282  002368  26D9               	movf	((c:memset@s+1)),c,w
  5283  00236A  500E               	addwfc	fsr2h
  5284  00236C  22DA               	movff	(c:memset@c),indf2
  5285  00236E  C003  FFDF         
  5286                           	line	23
  5287                           	movlw	low(0FFFCh)
  5288  002372  0EFC               	movwf	(??_memset+0+0)&0ffh,c
  5289  002374  6E07               	movlw	high(0FFFCh)
  5290  002376  0EFF               	movwf	1+(??_memset+0+0)&0ffh,c
  5291  002378  6E08               	movff	(c:memset@n),??_memset+2+0
  5292  00237A  C005  F009         	movff	(c:memset@n+1),??_memset+2+0+1
  5293  00237E  C006  F00A         	movf	(??_memset+0+0),c,w
  5294  002382  5007               	addwf	(??_memset+2+0),c
  5295  002384  2609               	movf	(??_memset+0+1),c,w
  5296  002386  5008               	addwfc	(??_memset+2+1),c
  5297  002388  220A               	movf	(??_memset+2+0),c,w
  5298  00238A  5009               	addwf	((c:memset@s)),c,w
  5299  00238C  240D               	movwf	c:fsr2l
  5300  00238E  6ED9               	movf	(??_memset+2+1),c,w
  5301  002390  500A               	addwfc	((c:memset@s+1)),c,w
  5302  002392  200E               	movwf	1+c:fsr2l
  5303  002394  6EDA               	movff	(c:memset@c),indf2
  5304  002396  C003  FFDF         
  5305                           	line	24
  5306                           	
  5307                           l3242:
  5308  00239A                     		movf	((c:memset@n+1)),c,w
  5309  00239A  5006               	bnz	u4201
  5310  00239C  E107               	movlw	9
  5311  00239E  0E09               	subwf	 ((c:memset@n)),c,w
  5312  0023A0  5C05               	btfsc	status,0
  5313  0023A2  B0D8               	goto	u4201
  5314  0023A4  EFD6  F011         	goto	u4200
  5315  0023A8  EFD8  F011         
  5316                           u4201:
  5317  0023AC                     	goto	l3246
  5318  0023AC  EFDC  F011         u4200:
  5319  0023B0                     	goto	l960
  5320  0023B0  EF0E  F012         	
  5321                           l3244:
  5322  0023B4                     ;	Return value of _memset is never used
  5323                           	goto	l960
  5324  0023B4  EF0E  F012         	
  5325                           l963:
  5326  0023B8                     	line	31
  5327                           	
  5328                           l3246:
  5329  0023B8                     	movff	(c:memset@s),??_memset+0+0
  5330  0023B8  C00D  F007         	movff	(c:memset@s+1),??_memset+0+0+1
  5331  0023BC  C00E  F008         	comf	(??_memset+0+0),c
  5332  0023C0  1E07               	comf	(??_memset+0+1),c
  5333  0023C2  1E08               	infsnz	(??_memset+0+0),c
  5334  0023C4  4A07               	incf	(??_memset+0+1),c
  5335  0023C6  2A08               	movlw	03h
  5336  0023C8  0E03               	andwf	(??_memset+0+0),c,w
  5337  0023CA  1407               	movwf	((c:memset@k)),c
  5338  0023CC  6E0B               	clrf	1+((c:memset@k)),c
  5339  0023CE  6A0C               	line	32
  5340                           	movf	((c:memset@k)),c,w
  5341  0023D0  500B               	addwf	((c:memset@s)),c
  5342  0023D2  260D               	movf	((c:memset@k+1)),c,w
  5343  0023D4  500C               	addwfc	((c:memset@s+1)),c
  5344  0023D6  220E               
  5345                           	line	33
  5346                           	movf	((c:memset@k)),c,w
  5347  0023D8  500B               	subwf	((c:memset@n)),c
  5348  0023DA  5E05               	movf	((c:memset@k+1)),c,w
  5349  0023DC  500C               	subwfb	((c:memset@n+1)),c
  5350  0023DE  5A06               
  5351                           	line	34
  5352                           	movlw	low(0FFFCh)
  5353  0023E0  0EFC               	andwf	((c:memset@n)),c
  5354  0023E2  1605               	movlw	high(0FFFCh)
  5355  0023E4  0EFF               	andwf	((c:memset@n+1)),c
  5356  0023E6  1606               	line	86
  5357                           	goto	l3254
  5358  0023E8  EF03  F012         	
  5359                           l965:
  5360  0023EC                     	
  5361                           l3248:
  5362  0023EC                     	movff	(c:memset@s),fsr2l
  5363  0023EC  C00D  FFD9         	movff	(c:memset@s+1),fsr2h
  5364  0023F0  C00E  FFDA         	movff	(c:memset@c),indf2
  5365  0023F4  C003  FFDF         
  5366                           	
  5367                           l3250:
  5368  0023F8                     	decf	((c:memset@n)),c
  5369  0023F8  0605               	btfss	status,0
  5370  0023FA  A0D8               	decf	((c:memset@n+1)),c
  5371  0023FC  0606               	
  5372                           l3252:
  5373  0023FE                     	infsnz	((c:memset@s)),c
  5374  0023FE  4A0D               	incf	((c:memset@s+1)),c
  5375  002400  2A0E               	goto	l3254
  5376  002402  EF03  F012         	
  5377                           l964:
  5378  002406                     	
  5379                           l3254:
  5380  002406                     	movf	((c:memset@n)),c,w
  5381  002406  5005               iorwf	((c:memset@n+1)),c,w
  5382  002408  1006               	btfss	status,2
  5383  00240A  A4D8               	goto	u4211
  5384  00240C  EF0A  F012         	goto	u4210
  5385  002410  EF0C  F012         
  5386                           u4211:
  5387  002414                     	goto	l3248
  5388  002414  EFF6  F011         u4210:
  5389  002418                     	goto	l960
  5390  002418  EF0E  F012         	
  5391                           l966:
  5392  00241C                     	line	90
  5393                           ;	Return value of _memset is never used
  5394                           	
  5395                           l960:
  5396  00241C                     	return	;funcret
  5397  00241C  0012               	opt stack 0
  5398                           GLOBAL	__end_of_memset
  5399                           	__end_of_memset:
  5400  00241E                     	signat	_memset,12410
  5401                           	global	_buzz
  5402                           
  5403 ;; *************** function _buzz *****************
  5404 ;; Defined at:
  5405 ;;		line 13 in file "buzzer.c"
  5406 ;; Parameters:    Size  Location     Type
  5407 ;;  red             2    6[COMRAM] int 
  5408 ;;  green           2    8[COMRAM] int 
  5409 ;;  blue            2   10[COMRAM] int 
  5410 ;; Auto vars:     Size  Location     Type
  5411 ;;		None
  5412 ;; Return value:  Size  Location     Type
  5413 ;;                  1    wreg      void 
  5414 ;; Registers used:
  5415 ;;		wreg, status,2, status,0, cstack
  5416 ;; Tracked objects:
  5417 ;;		On entry : 0/0
  5418 ;;		On exit  : 0/0
  5419 ;;		Unchanged: 0/0
  5420 ;; Data sizes:     COMRAM   BANK0   BANK1   BANK2   BANK3   BANK4   BANK5
  5421 ;;      Params:         6       0       0       0       0       0       0
  5422 ;;      Locals:         0       0       0       0       0       0       0
  5423 ;;      Temps:          0       0       0       0       0       0       0
  5424 ;;      Totals:         6       0       0       0       0       0       0
  5425 ;;Total ram usage:        6 bytes
  5426 ;; Hardware stack levels used:    1
  5427 ;; Hardware stack levels required when called:    2
  5428 ;; This function calls:
  5429 ;;		_MSdelay
  5430 ;;		_init_buzzer
  5431 ;; This function is called by:
  5432 ;;		_main
  5433 ;; This function uses a non-reentrant model
  5434 ;;
  5435                           psect	text14,class=CODE,space=0,reloc=2,group=0
  5436                           	file	"buzzer.c"
  5437                           	line	13
  5438                           global __ptext14
  5439                           __ptext14:
  5440  000BC2                     psect	text14
  5441                           	file	"buzzer.c"
  5442                           	line	13
  5443                           	global	__size_of_buzz
  5444                           	__size_of_buzz	equ	__end_of_buzz-_buzz
  5445  0000                     	
  5446                           _buzz:
  5447  000BC2                     ;incstack = 0
  5448                           	opt	stack 28
  5449                           	line	14
  5450                           	
  5451                           l3034:
  5452  000BC2                     ;buzzer.c: 14:     init_buzzer();
  5453                           	call	_init_buzzer	;wreg free
  5454  000BC2  ECD6  F017         	line	16
  5455                           	
  5456                           l3036:
  5457  000BC6                     ;buzzer.c: 16:     if ((red >= 0 && red <=127) &&
  5458                           	btfsc	((c:buzz@red+1)),c,7
  5459  000BC6  BE08               	goto	u3661
  5460  000BC8  EFE8  F005         	goto	u3660
  5461  000BCC  EFEA  F005         
  5462                           u3661:
  5463  000BD0                     	goto	l3050
  5464  000BD0  EF29  F006         u3660:
  5465  000BD4                     	
  5466                           l3038:
  5467  000BD4                     	btfsc	((c:buzz@red+1)),c,7
  5468  000BD4  BE08               	goto	u3670
  5469  000BD6  EFF8  F005         	movf	((c:buzz@red+1)),c,w
  5470  000BDA  5008               	bnz	u3671
  5471  000BDC  E107               	movlw	128
  5472  000BDE  0E80               	subwf	 ((c:buzz@red)),c,w
  5473  000BE0  5C07               	btfsc	status,0
  5474  000BE2  B0D8               	goto	u3671
  5475  000BE4  EFF6  F005         	goto	u3670
  5476  000BE8  EFF8  F005         
  5477                           u3671:
  5478  000BEC                     	goto	l3050
  5479  000BEC  EF29  F006         u3670:
  5480  000BF0                     	
  5481                           l3040:
  5482  000BF0                     	btfsc	((c:buzz@green+1)),c,7
  5483  000BF0  BE0A               	goto	u3681
  5484  000BF2  EFFD  F005         	goto	u3680
  5485  000BF6  EFFF  F005         
  5486                           u3681:
  5487  000BFA                     	goto	l3050
  5488  000BFA  EF29  F006         u3680:
  5489  000BFE                     	
  5490                           l3042:
  5491  000BFE                     	btfsc	((c:buzz@green+1)),c,7
  5492  000BFE  BE0A               	goto	u3690
  5493  000C00  EF0D  F006         	movf	((c:buzz@green+1)),c,w
  5494  000C04  500A               	bnz	u3691
  5495  000C06  E107               	movlw	128
  5496  000C08  0E80               	subwf	 ((c:buzz@green)),c,w
  5497  000C0A  5C09               	btfsc	status,0
  5498  000C0C  B0D8               	goto	u3691
  5499  000C0E  EF0B  F006         	goto	u3690
  5500  000C12  EF0D  F006         
  5501                           u3691:
  5502  000C16                     	goto	l3050
  5503  000C16  EF29  F006         u3690:
  5504  000C1A                     	
  5505                           l3044:
  5506  000C1A                     	btfsc	((c:buzz@blue+1)),c,7
  5507  000C1A  BE0C               	goto	u3701
  5508  000C1C  EF12  F006         	goto	u3700
  5509  000C20  EF14  F006         
  5510                           u3701:
  5511  000C24                     	goto	l3050
  5512  000C24  EF29  F006         u3700:
  5513  000C28                     	
  5514                           l3046:
  5515  000C28                     	btfsc	((c:buzz@blue+1)),c,7
  5516  000C28  BE0C               	goto	u3710
  5517  000C2A  EF22  F006         	movf	((c:buzz@blue+1)),c,w
  5518  000C2E  500C               	bnz	u3711
  5519  000C30  E107               	movlw	128
  5520  000C32  0E80               	subwf	 ((c:buzz@blue)),c,w
  5521  000C34  5C0B               	btfsc	status,0
  5522  000C36  B0D8               	goto	u3711
  5523  000C38  EF20  F006         	goto	u3710
  5524  000C3C  EF22  F006         
  5525                           u3711:
  5526  000C40                     	goto	l3050
  5527  000C40  EF29  F006         u3710:
  5528  000C44                     	line	19
  5529                           	
  5530                           l3048:
  5531  000C44                     ;buzzer.c: 18:         (blue >= 0 && blue <=127)){;buzzer.c: 19:         half_cyc = 523;
                                 
  5532                           	movlw	high(020Bh)
  5533  000C44  0E02               	movlb	0	; () banked
  5534  000C46  0100               	movwf	((_half_cyc+1))&0ffh
  5535  000C48  6F8F               	movlw	low(020Bh)
  5536  000C4A  0E0B               	movwf	((_half_cyc))&0ffh
  5537  000C4C  6F8E               	line	20
  5538                           ;buzzer.c: 20:     }
  5539                           	goto	l3148
  5540  000C4E  EF51  F008         	line	22
  5541                           ;buzzer.c: 22:     else if ((red >= 128 && red <=255) &&
  5542                           	
  5543                           l27:; BSR set to: 0
  5544  000C52                     
  5545                           	
  5546                           l3050:
  5547  000C52                     	btfsc	((c:buzz@red+1)),c,7
  5548  000C52  BE08               	goto	u3721
  5549  000C54  EF35  F006         	movf	((c:buzz@red+1)),c,w
  5550  000C58  5008               	bnz	u3720
  5551  000C5A  E109               	movlw	128
  5552  000C5C  0E80               	subwf	 ((c:buzz@red)),c,w
  5553  000C5E  5C07               	btfss	status,0
  5554  000C60  A0D8               	goto	u3721
  5555  000C62  EF35  F006         	goto	u3720
  5556  000C66  EF37  F006         
  5557                           u3721:
  5558  000C6A                     	goto	l3064
  5559  000C6A  EF73  F006         u3720:
  5560  000C6E                     	
  5561                           l3052:
  5562  000C6E                     	btfsc	((c:buzz@red+1)),c,7
  5563  000C6E  BE08               	goto	u3730
  5564  000C70  EF42  F006         	decf	((c:buzz@red+1)),c,w
  5565  000C74  0408               	btfsc	status,0
  5566  000C76  B0D8               	goto	u3731
  5567  000C78  EF40  F006         	goto	u3730
  5568  000C7C  EF42  F006         
  5569                           u3731:
  5570  000C80                     	goto	l3064
  5571  000C80  EF73  F006         u3730:
  5572  000C84                     	
  5573                           l3054:
  5574  000C84                     	btfsc	((c:buzz@green+1)),c,7
  5575  000C84  BE0A               	goto	u3741
  5576  000C86  EF47  F006         	goto	u3740
  5577  000C8A  EF49  F006         
  5578                           u3741:
  5579  000C8E                     	goto	l3064
  5580  000C8E  EF73  F006         u3740:
  5581  000C92                     	
  5582                           l3056:
  5583  000C92                     	btfsc	((c:buzz@green+1)),c,7
  5584  000C92  BE0A               	goto	u3750
  5585  000C94  EF57  F006         	movf	((c:buzz@green+1)),c,w
  5586  000C98  500A               	bnz	u3751
  5587  000C9A  E107               	movlw	128
  5588  000C9C  0E80               	subwf	 ((c:buzz@green)),c,w
  5589  000C9E  5C09               	btfsc	status,0
  5590  000CA0  B0D8               	goto	u3751
  5591  000CA2  EF55  F006         	goto	u3750
  5592  000CA6  EF57  F006         
  5593                           u3751:
  5594  000CAA                     	goto	l3064
  5595  000CAA  EF73  F006         u3750:
  5596  000CAE                     	
  5597                           l3058:
  5598  000CAE                     	btfsc	((c:buzz@blue+1)),c,7
  5599  000CAE  BE0C               	goto	u3761
  5600  000CB0  EF5C  F006         	goto	u3760
  5601  000CB4  EF5E  F006         
  5602                           u3761:
  5603  000CB8                     	goto	l3064
  5604  000CB8  EF73  F006         u3760:
  5605  000CBC                     	
  5606                           l3060:
  5607  000CBC                     	btfsc	((c:buzz@blue+1)),c,7
  5608  000CBC  BE0C               	goto	u3770
  5609  000CBE  EF6C  F006         	movf	((c:buzz@blue+1)),c,w
  5610  000CC2  500C               	bnz	u3771
  5611  000CC4  E107               	movlw	128
  5612  000CC6  0E80               	subwf	 ((c:buzz@blue)),c,w
  5613  000CC8  5C0B               	btfsc	status,0
  5614  000CCA  B0D8               	goto	u3771
  5615  000CCC  EF6A  F006         	goto	u3770
  5616  000CD0  EF6C  F006         
  5617                           u3771:
  5618  000CD4                     	goto	l3064
  5619  000CD4  EF73  F006         u3770:
  5620  000CD8                     	line	25
  5621                           	
  5622                           l3062:
  5623  000CD8                     ;buzzer.c: 24:             (blue >= 0 && blue <=127)){;buzzer.c: 25:         half_cyc = 
                                 493;
  5624                           	movlw	high(01EDh)
  5625  000CD8  0E01               	movlb	0	; () banked
  5626  000CDA  0100               	movwf	((_half_cyc+1))&0ffh
  5627  000CDC  6F8F               	movlw	low(01EDh)
  5628  000CDE  0EED               	movwf	((_half_cyc))&0ffh
  5629  000CE0  6F8E               	line	26
  5630                           ;buzzer.c: 26:     }
  5631                           	goto	l3148
  5632  000CE2  EF51  F008         	line	28
  5633                           ;buzzer.c: 28:     else if ((red >= 0 && red <=127) &&
  5634                           	
  5635                           l29:; BSR set to: 0
  5636  000CE6                     
  5637                           	
  5638                           l3064:
  5639  000CE6                     	btfsc	((c:buzz@red+1)),c,7
  5640  000CE6  BE08               	goto	u3781
  5641  000CE8  EF78  F006         	goto	u3780
  5642  000CEC  EF7A  F006         
  5643                           u3781:
  5644  000CF0                     	goto	l3078
  5645  000CF0  EFBD  F006         u3780:
  5646  000CF4                     	
  5647                           l3066:
  5648  000CF4                     	btfsc	((c:buzz@red+1)),c,7
  5649  000CF4  BE08               	goto	u3790
  5650  000CF6  EF88  F006         	movf	((c:buzz@red+1)),c,w
  5651  000CFA  5008               	bnz	u3791
  5652  000CFC  E107               	movlw	128
  5653  000CFE  0E80               	subwf	 ((c:buzz@red)),c,w
  5654  000D00  5C07               	btfsc	status,0
  5655  000D02  B0D8               	goto	u3791
  5656  000D04  EF86  F006         	goto	u3790
  5657  000D08  EF88  F006         
  5658                           u3791:
  5659  000D0C                     	goto	l3078
  5660  000D0C  EFBD  F006         u3790:
  5661  000D10                     	
  5662                           l3068:
  5663  000D10                     	btfsc	((c:buzz@green+1)),c,7
  5664  000D10  BE0A               	goto	u3801
  5665  000D12  EF94  F006         	movf	((c:buzz@green+1)),c,w
  5666  000D16  500A               	bnz	u3800
  5667  000D18  E109               	movlw	128
  5668  000D1A  0E80               	subwf	 ((c:buzz@green)),c,w
  5669  000D1C  5C09               	btfss	status,0
  5670  000D1E  A0D8               	goto	u3801
  5671  000D20  EF94  F006         	goto	u3800
  5672  000D24  EF96  F006         
  5673                           u3801:
  5674  000D28                     	goto	l3078
  5675  000D28  EFBD  F006         u3800:
  5676  000D2C                     	
  5677                           l3070:
  5678  000D2C                     	btfsc	((c:buzz@green+1)),c,7
  5679  000D2C  BE0A               	goto	u3810
  5680  000D2E  EFA1  F006         	decf	((c:buzz@green+1)),c,w
  5681  000D32  040A               	btfsc	status,0
  5682  000D34  B0D8               	goto	u3811
  5683  000D36  EF9F  F006         	goto	u3810
  5684  000D3A  EFA1  F006         
  5685                           u3811:
  5686  000D3E                     	goto	l3078
  5687  000D3E  EFBD  F006         u3810:
  5688  000D42                     	
  5689                           l3072:
  5690  000D42                     	btfsc	((c:buzz@blue+1)),c,7
  5691  000D42  BE0C               	goto	u3821
  5692  000D44  EFA6  F006         	goto	u3820
  5693  000D48  EFA8  F006         
  5694                           u3821:
  5695  000D4C                     	goto	l3078
  5696  000D4C  EFBD  F006         u3820:
  5697  000D50                     	
  5698                           l3074:
  5699  000D50                     	btfsc	((c:buzz@blue+1)),c,7
  5700  000D50  BE0C               	goto	u3830
  5701  000D52  EFB6  F006         	movf	((c:buzz@blue+1)),c,w
  5702  000D56  500C               	bnz	u3831
  5703  000D58  E107               	movlw	128
  5704  000D5A  0E80               	subwf	 ((c:buzz@blue)),c,w
  5705  000D5C  5C0B               	btfsc	status,0
  5706  000D5E  B0D8               	goto	u3831
  5707  000D60  EFB4  F006         	goto	u3830
  5708  000D64  EFB6  F006         
  5709                           u3831:
  5710  000D68                     	goto	l3078
  5711  000D68  EFBD  F006         u3830:
  5712  000D6C                     	line	31
  5713                           	
  5714                           l3076:
  5715  000D6C                     ;buzzer.c: 30:             (blue >= 0 && blue <=127)){;buzzer.c: 31:         half_cyc = 
                                 440;
  5716                           	movlw	high(01B8h)
  5717  000D6C  0E01               	movlb	0	; () banked
  5718  000D6E  0100               	movwf	((_half_cyc+1))&0ffh
  5719  000D70  6F8F               	movlw	low(01B8h)
  5720  000D72  0EB8               	movwf	((_half_cyc))&0ffh
  5721  000D74  6F8E               	line	32
  5722                           ;buzzer.c: 32:     }
  5723                           	goto	l3148
  5724  000D76  EF51  F008         	line	34
  5725                           ;buzzer.c: 34:     else if ((red >= 0 && red <=127) &&
  5726                           	
  5727                           l31:; BSR set to: 0
  5728  000D7A                     
  5729                           	
  5730                           l3078:
  5731  000D7A                     	btfsc	((c:buzz@red+1)),c,7
  5732  000D7A  BE08               	goto	u3841
  5733  000D7C  EFC2  F006         	goto	u3840
  5734  000D80  EFC4  F006         
  5735                           u3841:
  5736  000D84                     	goto	l3092
  5737  000D84  EF07  F007         u3840:
  5738  000D88                     	
  5739                           l3080:
  5740  000D88                     	btfsc	((c:buzz@red+1)),c,7
  5741  000D88  BE08               	goto	u3850
  5742  000D8A  EFD2  F006         	movf	((c:buzz@red+1)),c,w
  5743  000D8E  5008               	bnz	u3851
  5744  000D90  E107               	movlw	128
  5745  000D92  0E80               	subwf	 ((c:buzz@red)),c,w
  5746  000D94  5C07               	btfsc	status,0
  5747  000D96  B0D8               	goto	u3851
  5748  000D98  EFD0  F006         	goto	u3850
  5749  000D9C  EFD2  F006         
  5750                           u3851:
  5751  000DA0                     	goto	l3092
  5752  000DA0  EF07  F007         u3850:
  5753  000DA4                     	
  5754                           l3082:
  5755  000DA4                     	btfsc	((c:buzz@green+1)),c,7
  5756  000DA4  BE0A               	goto	u3861
  5757  000DA6  EFD7  F006         	goto	u3860
  5758  000DAA  EFD9  F006         
  5759                           u3861:
  5760  000DAE                     	goto	l3092
  5761  000DAE  EF07  F007         u3860:
  5762  000DB2                     	
  5763                           l3084:
  5764  000DB2                     	btfsc	((c:buzz@green+1)),c,7
  5765  000DB2  BE0A               	goto	u3870
  5766  000DB4  EFE7  F006         	movf	((c:buzz@green+1)),c,w
  5767  000DB8  500A               	bnz	u3871
  5768  000DBA  E107               	movlw	128
  5769  000DBC  0E80               	subwf	 ((c:buzz@green)),c,w
  5770  000DBE  5C09               	btfsc	status,0
  5771  000DC0  B0D8               	goto	u3871
  5772  000DC2  EFE5  F006         	goto	u3870
  5773  000DC6  EFE7  F006         
  5774                           u3871:
  5775  000DCA                     	goto	l3092
  5776  000DCA  EF07  F007         u3870:
  5777  000DCE                     	
  5778                           l3086:
  5779  000DCE                     	btfsc	((c:buzz@blue+1)),c,7
  5780  000DCE  BE0C               	goto	u3881
  5781  000DD0  EFF3  F006         	movf	((c:buzz@blue+1)),c,w
  5782  000DD4  500C               	bnz	u3880
  5783  000DD6  E109               	movlw	128
  5784  000DD8  0E80               	subwf	 ((c:buzz@blue)),c,w
  5785  000DDA  5C0B               	btfss	status,0
  5786  000DDC  A0D8               	goto	u3881
  5787  000DDE  EFF3  F006         	goto	u3880
  5788  000DE2  EFF5  F006         
  5789                           u3881:
  5790  000DE6                     	goto	l3092
  5791  000DE6  EF07  F007         u3880:
  5792  000DEA                     	
  5793                           l3088:
  5794  000DEA                     	btfsc	((c:buzz@blue+1)),c,7
  5795  000DEA  BE0C               	goto	u3890
  5796  000DEC  EF00  F007         	decf	((c:buzz@blue+1)),c,w
  5797  000DF0  040C               	btfsc	status,0
  5798  000DF2  B0D8               	goto	u3891
  5799  000DF4  EFFE  F006         	goto	u3890
  5800  000DF8  EF00  F007         
  5801                           u3891:
  5802  000DFC                     	goto	l3092
  5803  000DFC  EF07  F007         u3890:
  5804  000E00                     	line	37
  5805                           	
  5806                           l3090:
  5807  000E00                     ;buzzer.c: 36:             (blue >= 128 && blue <=255)){;buzzer.c: 37:         half_cyc 
                                 = 392;
  5808                           	movlw	high(0188h)
  5809  000E00  0E01               	movlb	0	; () banked
  5810  000E02  0100               	movwf	((_half_cyc+1))&0ffh
  5811  000E04  6F8F               	movlw	low(0188h)
  5812  000E06  0E88               	movwf	((_half_cyc))&0ffh
  5813  000E08  6F8E               	line	38
  5814                           ;buzzer.c: 38:     }
  5815                           	goto	l3148
  5816  000E0A  EF51  F008         	line	40
  5817                           ;buzzer.c: 40:     else if ((red >= 128 && red <=255) &&
  5818                           	
  5819                           l33:; BSR set to: 0
  5820  000E0E                     
  5821                           	
  5822                           l3092:
  5823  000E0E                     	btfsc	((c:buzz@red+1)),c,7
  5824  000E0E  BE08               	goto	u3901
  5825  000E10  EF13  F007         	movf	((c:buzz@red+1)),c,w
  5826  000E14  5008               	bnz	u3900
  5827  000E16  E109               	movlw	128
  5828  000E18  0E80               	subwf	 ((c:buzz@red)),c,w
  5829  000E1A  5C07               	btfss	status,0
  5830  000E1C  A0D8               	goto	u3901
  5831  000E1E  EF13  F007         	goto	u3900
  5832  000E22  EF15  F007         
  5833                           u3901:
  5834  000E26                     	goto	l3106
  5835  000E26  EF55  F007         u3900:
  5836  000E2A                     	
  5837                           l3094:
  5838  000E2A                     	btfsc	((c:buzz@red+1)),c,7
  5839  000E2A  BE08               	goto	u3910
  5840  000E2C  EF20  F007         	decf	((c:buzz@red+1)),c,w
  5841  000E30  0408               	btfsc	status,0
  5842  000E32  B0D8               	goto	u3911
  5843  000E34  EF1E  F007         	goto	u3910
  5844  000E38  EF20  F007         
  5845                           u3911:
  5846  000E3C                     	goto	l3106
  5847  000E3C  EF55  F007         u3910:
  5848  000E40                     	
  5849                           l3096:
  5850  000E40                     	btfsc	((c:buzz@green+1)),c,7
  5851  000E40  BE0A               	goto	u3921
  5852  000E42  EF2C  F007         	movf	((c:buzz@green+1)),c,w
  5853  000E46  500A               	bnz	u3920
  5854  000E48  E109               	movlw	128
  5855  000E4A  0E80               	subwf	 ((c:buzz@green)),c,w
  5856  000E4C  5C09               	btfss	status,0
  5857  000E4E  A0D8               	goto	u3921
  5858  000E50  EF2C  F007         	goto	u3920
  5859  000E54  EF2E  F007         
  5860                           u3921:
  5861  000E58                     	goto	l3106
  5862  000E58  EF55  F007         u3920:
  5863  000E5C                     	
  5864                           l3098:
  5865  000E5C                     	btfsc	((c:buzz@green+1)),c,7
  5866  000E5C  BE0A               	goto	u3930
  5867  000E5E  EF39  F007         	decf	((c:buzz@green+1)),c,w
  5868  000E62  040A               	btfsc	status,0
  5869  000E64  B0D8               	goto	u3931
  5870  000E66  EF37  F007         	goto	u3930
  5871  000E6A  EF39  F007         
  5872                           u3931:
  5873  000E6E                     	goto	l3106
  5874  000E6E  EF55  F007         u3930:
  5875  000E72                     	
  5876                           l3100:
  5877  000E72                     	btfsc	((c:buzz@blue+1)),c,7
  5878  000E72  BE0C               	goto	u3941
  5879  000E74  EF3E  F007         	goto	u3940
  5880  000E78  EF40  F007         
  5881                           u3941:
  5882  000E7C                     	goto	l3106
  5883  000E7C  EF55  F007         u3940:
  5884  000E80                     	
  5885                           l3102:
  5886  000E80                     	btfsc	((c:buzz@blue+1)),c,7
  5887  000E80  BE0C               	goto	u3950
  5888  000E82  EF4E  F007         	movf	((c:buzz@blue+1)),c,w
  5889  000E86  500C               	bnz	u3951
  5890  000E88  E107               	movlw	128
  5891  000E8A  0E80               	subwf	 ((c:buzz@blue)),c,w
  5892  000E8C  5C0B               	btfsc	status,0
  5893  000E8E  B0D8               	goto	u3951
  5894  000E90  EF4C  F007         	goto	u3950
  5895  000E94  EF4E  F007         
  5896                           u3951:
  5897  000E98                     	goto	l3106
  5898  000E98  EF55  F007         u3950:
  5899  000E9C                     	line	43
  5900                           	
  5901                           l3104:
  5902  000E9C                     ;buzzer.c: 42:             (blue >= 0 && blue <=127)){;buzzer.c: 43:         half_cyc = 
                                 349;
  5903                           	movlw	high(015Dh)
  5904  000E9C  0E01               	movlb	0	; () banked
  5905  000E9E  0100               	movwf	((_half_cyc+1))&0ffh
  5906  000EA0  6F8F               	movlw	low(015Dh)
  5907  000EA2  0E5D               	movwf	((_half_cyc))&0ffh
  5908  000EA4  6F8E               	line	44
  5909                           ;buzzer.c: 44:     }
  5910                           	goto	l3148
  5911  000EA6  EF51  F008         	line	46
  5912                           ;buzzer.c: 46:     else if ((red >= 128 && red <=255) &&
  5913                           	
  5914                           l35:; BSR set to: 0
  5915  000EAA                     
  5916                           	
  5917                           l3106:
  5918  000EAA                     	btfsc	((c:buzz@red+1)),c,7
  5919  000EAA  BE08               	goto	u3961
  5920  000EAC  EF61  F007         	movf	((c:buzz@red+1)),c,w
  5921  000EB0  5008               	bnz	u3960
  5922  000EB2  E109               	movlw	128
  5923  000EB4  0E80               	subwf	 ((c:buzz@red)),c,w
  5924  000EB6  5C07               	btfss	status,0
  5925  000EB8  A0D8               	goto	u3961
  5926  000EBA  EF61  F007         	goto	u3960
  5927  000EBE  EF63  F007         
  5928                           u3961:
  5929  000EC2                     	goto	l3120
  5930  000EC2  EFA3  F007         u3960:
  5931  000EC6                     	
  5932                           l3108:
  5933  000EC6                     	btfsc	((c:buzz@red+1)),c,7
  5934  000EC6  BE08               	goto	u3970
  5935  000EC8  EF6E  F007         	decf	((c:buzz@red+1)),c,w
  5936  000ECC  0408               	btfsc	status,0
  5937  000ECE  B0D8               	goto	u3971
  5938  000ED0  EF6C  F007         	goto	u3970
  5939  000ED4  EF6E  F007         
  5940                           u3971:
  5941  000ED8                     	goto	l3120
  5942  000ED8  EFA3  F007         u3970:
  5943  000EDC                     	
  5944                           l3110:
  5945  000EDC                     	btfsc	((c:buzz@green+1)),c,7
  5946  000EDC  BE0A               	goto	u3981
  5947  000EDE  EF73  F007         	goto	u3980
  5948  000EE2  EF75  F007         
  5949                           u3981:
  5950  000EE6                     	goto	l3120
  5951  000EE6  EFA3  F007         u3980:
  5952  000EEA                     	
  5953                           l3112:
  5954  000EEA                     	btfsc	((c:buzz@green+1)),c,7
  5955  000EEA  BE0A               	goto	u3990
  5956  000EEC  EF83  F007         	movf	((c:buzz@green+1)),c,w
  5957  000EF0  500A               	bnz	u3991
  5958  000EF2  E107               	movlw	128
  5959  000EF4  0E80               	subwf	 ((c:buzz@green)),c,w
  5960  000EF6  5C09               	btfsc	status,0
  5961  000EF8  B0D8               	goto	u3991
  5962  000EFA  EF81  F007         	goto	u3990
  5963  000EFE  EF83  F007         
  5964                           u3991:
  5965  000F02                     	goto	l3120
  5966  000F02  EFA3  F007         u3990:
  5967  000F06                     	
  5968                           l3114:
  5969  000F06                     	btfsc	((c:buzz@blue+1)),c,7
  5970  000F06  BE0C               	goto	u4001
  5971  000F08  EF8F  F007         	movf	((c:buzz@blue+1)),c,w
  5972  000F0C  500C               	bnz	u4000
  5973  000F0E  E109               	movlw	128
  5974  000F10  0E80               	subwf	 ((c:buzz@blue)),c,w
  5975  000F12  5C0B               	btfss	status,0
  5976  000F14  A0D8               	goto	u4001
  5977  000F16  EF8F  F007         	goto	u4000
  5978  000F1A  EF91  F007         
  5979                           u4001:
  5980  000F1E                     	goto	l3120
  5981  000F1E  EFA3  F007         u4000:
  5982  000F22                     	
  5983                           l3116:
  5984  000F22                     	btfsc	((c:buzz@blue+1)),c,7
  5985  000F22  BE0C               	goto	u4010
  5986  000F24  EF9C  F007         	decf	((c:buzz@blue+1)),c,w
  5987  000F28  040C               	btfsc	status,0
  5988  000F2A  B0D8               	goto	u4011
  5989  000F2C  EF9A  F007         	goto	u4010
  5990  000F30  EF9C  F007         
  5991                           u4011:
  5992  000F34                     	goto	l3120
  5993  000F34  EFA3  F007         u4010:
  5994  000F38                     	line	49
  5995                           	
  5996                           l3118:
  5997  000F38                     ;buzzer.c: 48:             (blue >= 128 && blue <=255)){;buzzer.c: 49:         half_cyc 
                                 = 329;
  5998                           	movlw	high(0149h)
  5999  000F38  0E01               	movlb	0	; () banked
  6000  000F3A  0100               	movwf	((_half_cyc+1))&0ffh
  6001  000F3C  6F8F               	movlw	low(0149h)
  6002  000F3E  0E49               	movwf	((_half_cyc))&0ffh
  6003  000F40  6F8E               	line	50
  6004                           ;buzzer.c: 50:     }
  6005                           	goto	l3148
  6006  000F42  EF51  F008         	line	52
  6007                           ;buzzer.c: 52:     else if ((red >= 0 && red <=127) &&
  6008                           	
  6009                           l37:; BSR set to: 0
  6010  000F46                     
  6011                           	
  6012                           l3120:
  6013  000F46                     	btfsc	((c:buzz@red+1)),c,7
  6014  000F46  BE08               	goto	u4021
  6015  000F48  EFA8  F007         	goto	u4020
  6016  000F4C  EFAA  F007         
  6017                           u4021:
  6018  000F50                     	goto	l3134
  6019  000F50  EFF1  F007         u4020:
  6020  000F54                     	
  6021                           l3122:
  6022  000F54                     	btfsc	((c:buzz@red+1)),c,7
  6023  000F54  BE08               	goto	u4030
  6024  000F56  EFB8  F007         	movf	((c:buzz@red+1)),c,w
  6025  000F5A  5008               	bnz	u4031
  6026  000F5C  E107               	movlw	128
  6027  000F5E  0E80               	subwf	 ((c:buzz@red)),c,w
  6028  000F60  5C07               	btfsc	status,0
  6029  000F62  B0D8               	goto	u4031
  6030  000F64  EFB6  F007         	goto	u4030
  6031  000F68  EFB8  F007         
  6032                           u4031:
  6033  000F6C                     	goto	l3134
  6034  000F6C  EFF1  F007         u4030:
  6035  000F70                     	
  6036                           l3124:
  6037  000F70                     	btfsc	((c:buzz@green+1)),c,7
  6038  000F70  BE0A               	goto	u4041
  6039  000F72  EFC4  F007         	movf	((c:buzz@green+1)),c,w
  6040  000F76  500A               	bnz	u4040
  6041  000F78  E109               	movlw	128
  6042  000F7A  0E80               	subwf	 ((c:buzz@green)),c,w
  6043  000F7C  5C09               	btfss	status,0
  6044  000F7E  A0D8               	goto	u4041
  6045  000F80  EFC4  F007         	goto	u4040
  6046  000F84  EFC6  F007         
  6047                           u4041:
  6048  000F88                     	goto	l3134
  6049  000F88  EFF1  F007         u4040:
  6050  000F8C                     	
  6051                           l3126:
  6052  000F8C                     	btfsc	((c:buzz@green+1)),c,7
  6053  000F8C  BE0A               	goto	u4050
  6054  000F8E  EFD1  F007         	decf	((c:buzz@green+1)),c,w
  6055  000F92  040A               	btfsc	status,0
  6056  000F94  B0D8               	goto	u4051
  6057  000F96  EFCF  F007         	goto	u4050
  6058  000F9A  EFD1  F007         
  6059                           u4051:
  6060  000F9E                     	goto	l3134
  6061  000F9E  EFF1  F007         u4050:
  6062  000FA2                     	
  6063                           l3128:
  6064  000FA2                     	btfsc	((c:buzz@blue+1)),c,7
  6065  000FA2  BE0C               	goto	u4061
  6066  000FA4  EFDD  F007         	movf	((c:buzz@blue+1)),c,w
  6067  000FA8  500C               	bnz	u4060
  6068  000FAA  E109               	movlw	128
  6069  000FAC  0E80               	subwf	 ((c:buzz@blue)),c,w
  6070  000FAE  5C0B               	btfss	status,0
  6071  000FB0  A0D8               	goto	u4061
  6072  000FB2  EFDD  F007         	goto	u4060
  6073  000FB6  EFDF  F007         
  6074                           u4061:
  6075  000FBA                     	goto	l3134
  6076  000FBA  EFF1  F007         u4060:
  6077  000FBE                     	
  6078                           l3130:
  6079  000FBE                     	btfsc	((c:buzz@blue+1)),c,7
  6080  000FBE  BE0C               	goto	u4070
  6081  000FC0  EFEA  F007         	decf	((c:buzz@blue+1)),c,w
  6082  000FC4  040C               	btfsc	status,0
  6083  000FC6  B0D8               	goto	u4071
  6084  000FC8  EFE8  F007         	goto	u4070
  6085  000FCC  EFEA  F007         
  6086                           u4071:
  6087  000FD0                     	goto	l3134
  6088  000FD0  EFF1  F007         u4070:
  6089  000FD4                     	line	55
  6090                           	
  6091                           l3132:
  6092  000FD4                     ;buzzer.c: 54:             (blue >= 128 && blue <=255)){;buzzer.c: 55:         half_cyc 
                                 = 293;
  6093                           	movlw	high(0125h)
  6094  000FD4  0E01               	movlb	0	; () banked
  6095  000FD6  0100               	movwf	((_half_cyc+1))&0ffh
  6096  000FD8  6F8F               	movlw	low(0125h)
  6097  000FDA  0E25               	movwf	((_half_cyc))&0ffh
  6098  000FDC  6F8E               	line	56
  6099                           ;buzzer.c: 56:     }
  6100                           	goto	l3148
  6101  000FDE  EF51  F008         	line	58
  6102                           ;buzzer.c: 58:     else if ((red >= 128 && red <=255) &&
  6103                           	
  6104                           l39:; BSR set to: 0
  6105  000FE2                     
  6106                           	
  6107                           l3134:
  6108  000FE2                     	btfsc	((c:buzz@red+1)),c,7
  6109  000FE2  BE08               	goto	u4081
  6110  000FE4  EFFD  F007         	movf	((c:buzz@red+1)),c,w
  6111  000FE8  5008               	bnz	u4080
  6112  000FEA  E109               	movlw	128
  6113  000FEC  0E80               	subwf	 ((c:buzz@red)),c,w
  6114  000FEE  5C07               	btfss	status,0
  6115  000FF0  A0D8               	goto	u4081
  6116  000FF2  EFFD  F007         	goto	u4080
  6117  000FF6  EFFF  F007         
  6118                           u4081:
  6119  000FFA                     	goto	l3148
  6120  000FFA  EF51  F008         u4080:
  6121  000FFE                     	
  6122                           l3136:
  6123  000FFE                     	btfsc	((c:buzz@red+1)),c,7
  6124  000FFE  BE08               	goto	u4090
  6125  001000  EF0A  F008         	decf	((c:buzz@red+1)),c,w
  6126  001004  0408               	btfsc	status,0
  6127  001006  B0D8               	goto	u4091
  6128  001008  EF08  F008         	goto	u4090
  6129  00100C  EF0A  F008         
  6130                           u4091:
  6131  001010                     	goto	l3148
  6132  001010  EF51  F008         u4090:
  6133  001014                     	
  6134                           l3138:
  6135  001014                     	btfsc	((c:buzz@green+1)),c,7
  6136  001014  BE0A               	goto	u4101
  6137  001016  EF16  F008         	movf	((c:buzz@green+1)),c,w
  6138  00101A  500A               	bnz	u4100
  6139  00101C  E109               	movlw	128
  6140  00101E  0E80               	subwf	 ((c:buzz@green)),c,w
  6141  001020  5C09               	btfss	status,0
  6142  001022  A0D8               	goto	u4101
  6143  001024  EF16  F008         	goto	u4100
  6144  001028  EF18  F008         
  6145                           u4101:
  6146  00102C                     	goto	l3148
  6147  00102C  EF51  F008         u4100:
  6148  001030                     	
  6149                           l3140:
  6150  001030                     	btfsc	((c:buzz@green+1)),c,7
  6151  001030  BE0A               	goto	u4110
  6152  001032  EF23  F008         	decf	((c:buzz@green+1)),c,w
  6153  001036  040A               	btfsc	status,0
  6154  001038  B0D8               	goto	u4111
  6155  00103A  EF21  F008         	goto	u4110
  6156  00103E  EF23  F008         
  6157                           u4111:
  6158  001042                     	goto	l3148
  6159  001042  EF51  F008         u4110:
  6160  001046                     	
  6161                           l3142:
  6162  001046                     	btfsc	((c:buzz@blue+1)),c,7
  6163  001046  BE0C               	goto	u4121
  6164  001048  EF2F  F008         	movf	((c:buzz@blue+1)),c,w
  6165  00104C  500C               	bnz	u4120
  6166  00104E  E109               	movlw	128
  6167  001050  0E80               	subwf	 ((c:buzz@blue)),c,w
  6168  001052  5C0B               	btfss	status,0
  6169  001054  A0D8               	goto	u4121
  6170  001056  EF2F  F008         	goto	u4120
  6171  00105A  EF31  F008         
  6172                           u4121:
  6173  00105E                     	goto	l3148
  6174  00105E  EF51  F008         u4120:
  6175  001062                     	
  6176                           l3144:
  6177  001062                     	btfsc	((c:buzz@blue+1)),c,7
  6178  001062  BE0C               	goto	u4130
  6179  001064  EF3C  F008         	decf	((c:buzz@blue+1)),c,w
  6180  001068  040C               	btfsc	status,0
  6181  00106A  B0D8               	goto	u4131
  6182  00106C  EF3A  F008         	goto	u4130
  6183  001070  EF3C  F008         
  6184                           u4131:
  6185  001074                     	goto	l3148
  6186  001074  EF51  F008         u4130:
  6187  001078                     	line	61
  6188                           	
  6189                           l3146:
  6190  001078                     ;buzzer.c: 60:             (blue >= 128 && blue <=255)){;buzzer.c: 61:         half_cyc 
                                 = 264;
  6191                           	movlw	high(0108h)
  6192  001078  0E01               	movlb	0	; () banked
  6193  00107A  0100               	movwf	((_half_cyc+1))&0ffh
  6194  00107C  6F8F               	movlw	low(0108h)
  6195  00107E  0E08               	movwf	((_half_cyc))&0ffh
  6196  001080  6F8E               	goto	l3148
  6197  001082  EF51  F008         	line	62
  6198                           ;buzzer.c: 62:     }
  6199                           	
  6200                           l41:; BSR set to: 0
  6201  001086                     
  6202                           	goto	l3148
  6203  001086  EF51  F008         	
  6204                           l40:; BSR set to: 0
  6205  00108A                     
  6206                           	goto	l3148
  6207  00108A  EF51  F008         	
  6208                           l38:; BSR set to: 0
  6209  00108E                     
  6210                           	goto	l3148
  6211  00108E  EF51  F008         	
  6212                           l36:; BSR set to: 0
  6213  001092                     
  6214                           	goto	l3148
  6215  001092  EF51  F008         	
  6216                           l34:; BSR set to: 0
  6217  001096                     
  6218                           	goto	l3148
  6219  001096  EF51  F008         	
  6220                           l32:; BSR set to: 0
  6221  00109A                     
  6222                           	goto	l3148
  6223  00109A  EF51  F008         	
  6224                           l30:; BSR set to: 0
  6225  00109E                     
  6226                           	goto	l3148
  6227  00109E  EF51  F008         	
  6228                           l28:; BSR set to: 0
  6229  0010A2                     
  6230                           	line	63
  6231                           	
  6232                           l3148:
  6233  0010A2                     ;buzzer.c: 63:     CCPR2 = TMR1 + half_cyc;
  6234                           	movf	((c:4046)),c,w	;volatile
  6235  0010A2  50CE               	movlb	0	; () banked
  6236  0010A4  0100               	addwf	((_half_cyc))&0ffh,w
  6237  0010A6  258E               	movwf	((c:4027)),c	;volatile
  6238  0010A8  6EBB               	movf	((c:4046+1)),c,w	;volatile
  6239  0010AA  50CF               	addwfc	((_half_cyc+1))&0ffh,w
  6240  0010AC  218F               	movwf	1+((c:4027)),c	;volatile
  6241  0010AE  6EBC               	line	64
  6242                           	
  6243                           l3150:; BSR set to: 0
  6244  0010B0                     
  6245                           ;buzzer.c: 64:     MSdelay(750);
  6246                           	movlw	high(02EEh)
  6247  0010B0  0E02               	movwf	((c:MSdelay@val+1)),c
  6248  0010B2  6E02               	movlw	low(02EEh)
  6249  0010B4  0EEE               	movwf	((c:MSdelay@val)),c
  6250  0010B6  6E01               	call	_MSdelay	;wreg free
  6251  0010B8  EC40  F016         	line	66
  6252                           	
  6253                           l3152:
  6254  0010BC                     ;buzzer.c: 66:     TRISCbits.TRISC1 = 1;
  6255                           	bsf	((c:3988)),c,1	;volatile
  6256  0010BC  8294               	line	67
  6257                           	
  6258                           l3154:
  6259  0010BE                     ;buzzer.c: 67:     MSdelay(250);
  6260                           	movlw	high(0FAh)
  6261  0010BE  0E00               	movwf	((c:MSdelay@val+1)),c
  6262  0010C0  6E02               	movlw	low(0FAh)
  6263  0010C2  0EFA               	movwf	((c:MSdelay@val)),c
  6264  0010C4  6E01               	call	_MSdelay	;wreg free
  6265  0010C6  EC40  F016         	line	68
  6266                           	
  6267                           l42:
  6268  0010CA                     	return	;funcret
  6269  0010CA  0012               	opt stack 0
  6270                           GLOBAL	__end_of_buzz
  6271                           	__end_of_buzz:
  6272  0010CC                     	signat	_buzz,12409
  6273                           	global	_init_buzzer
  6274                           
  6275 ;; *************** function _init_buzzer *****************
  6276 ;; Defined at:
  6277 ;;		line 77 in file "buzzer.c"
  6278 ;; Parameters:    Size  Location     Type
  6279 ;;		None
  6280 ;; Auto vars:     Size  Location     Type
  6281 ;;		None
  6282 ;; Return value:  Size  Location     Type
  6283 ;;                  1    wreg      void 
  6284 ;; Registers used:
  6285 ;;		wreg, status,2
  6286 ;; Tracked objects:
  6287 ;;		On entry : 0/0
  6288 ;;		On exit  : 0/0
  6289 ;;		Unchanged: 0/0
  6290 ;; Data sizes:     COMRAM   BANK0   BANK1   BANK2   BANK3   BANK4   BANK5
  6291 ;;      Params:         0       0       0       0       0       0       0
  6292 ;;      Locals:         0       0       0       0       0       0       0
  6293 ;;      Temps:          0       0       0       0       0       0       0
  6294 ;;      Totals:         0       0       0       0       0       0       0
  6295 ;;Total ram usage:        0 bytes
  6296 ;; Hardware stack levels used:    1
  6297 ;; Hardware stack levels required when called:    1
  6298 ;; This function calls:
  6299 ;;		Nothing
  6300 ;; This function is called by:
  6301 ;;		_buzz
  6302 ;; This function uses a non-reentrant model
  6303 ;;
  6304                           psect	text15,class=CODE,space=0,reloc=2,group=0
  6305                           	line	77
  6306                           global __ptext15
  6307                           __ptext15:
  6308  002FAC                     psect	text15
  6309                           	file	"buzzer.c"
  6310                           	line	77
  6311                           	global	__size_of_init_buzzer
  6312                           	__size_of_init_buzzer	equ	__end_of_init_buzzer-_init_buzzer
  6313  0000                     	
  6314                           _init_buzzer:
  6315  002FAC                     ;incstack = 0
  6316                           	opt	stack 28
  6317                           	line	78
  6318                           	
  6319                           l2426:
  6320  002FAC                     ;buzzer.c: 78:     half_cyc = 0;
  6321                           	movlw	high(0)
  6322  002FAC  0E00               	movlb	0	; () banked
  6323  002FAE  0100               	movwf	((_half_cyc+1))&0ffh
  6324  002FB0  6F8F               	movlw	low(0)
  6325  002FB2  0E00               	movwf	((_half_cyc))&0ffh
  6326  002FB4  6F8E               	line	79
  6327                           ;buzzer.c: 79:     CCPR2 = 0;
  6328                           	movlw	high(0)
  6329  002FB6  0E00               	movwf	((c:4027+1)),c	;volatile
  6330  002FB8  6EBC               	movlw	low(0)
  6331  002FBA  0E00               	movwf	((c:4027)),c	;volatile
  6332  002FBC  6EBB               	line	80
  6333                           	
  6334                           l2428:; BSR set to: 0
  6335  002FBE                     
  6336                           ;buzzer.c: 80:     TRISCbits.TRISC1 = 0;
  6337                           	bcf	((c:3988)),c,1	;volatile
  6338  002FBE  9294               	line	81
  6339                           ;buzzer.c: 81:     T3CON = 0x81;
  6340                           	movlw	low(081h)
  6341  002FC0  0E81               	movwf	((c:4017)),c	;volatile
  6342  002FC2  6EB1               	line	82
  6343                           ;buzzer.c: 82:     T1CON = 0x81;
  6344                           	movlw	low(081h)
  6345  002FC4  0E81               	movwf	((c:4045)),c	;volatile
  6346  002FC6  6ECD               	line	83
  6347                           ;buzzer.c: 83:     CCP2CON = 0x02;
  6348                           	movlw	low(02h)
  6349  002FC8  0E02               	movwf	((c:4026)),c	;volatile
  6350  002FCA  6EBA               	line	84
  6351                           	
  6352                           l2430:; BSR set to: 0
  6353  002FCC                     
  6354                           ;buzzer.c: 84:     IPR2bits.CCP2IP = 1;
  6355                           	bsf	((c:4002)),c,0	;volatile
  6356  002FCC  80A2               	line	85
  6357                           	
  6358                           l2432:; BSR set to: 0
  6359  002FCE                     
  6360                           ;buzzer.c: 85:     PIR2bits.CCP2IF = 0;
  6361                           	bcf	((c:4001)),c,0	;volatile
  6362  002FCE  90A1               	line	86
  6363                           	
  6364                           l2434:; BSR set to: 0
  6365  002FD0                     
  6366                           ;buzzer.c: 86:     PIE2bits.CCP2IE = 1;
  6367                           	bsf	((c:4000)),c,0	;volatile
  6368  002FD0  80A0               	line	88
  6369                           	
  6370                           l53:; BSR set to: 0
  6371  002FD2                     
  6372                           	return	;funcret
  6373  002FD2  0012               	opt stack 0
  6374                           GLOBAL	__end_of_init_buzzer
  6375                           	__end_of_init_buzzer:
  6376  002FD4                     	signat	_init_buzzer,89
  6377                           	global	_USART_SendString
  6378                           
  6379 ;; *************** function _USART_SendString *****************
  6380 ;; Defined at:
  6381 ;;		line 25 in file "usart.c"
  6382 ;; Parameters:    Size  Location     Type
  6383 ;;  out             2    1[COMRAM] PTR const unsigned char 
  6384 ;;		 -> STR_11(6), STR_10(7), STR_9(8), STR_8(4), 
  6385 ;;		 -> STR_7(5), STR_6(5), STR_5(5), STR_4(6), 
  6386 ;;		 -> main@value(10), 
  6387 ;; Auto vars:     Size  Location     Type
  6388 ;;		None
  6389 ;; Return value:  Size  Location     Type
  6390 ;;                  1    wreg      void 
  6391 ;; Registers used:
  6392 ;;		wreg, fsr1l, fsr1h, status,2, status,0, tblptrl, tblptrh, tblptru, cstack
  6393 ;; Tracked objects:
  6394 ;;		On entry : 0/0
  6395 ;;		On exit  : 0/0
  6396 ;;		Unchanged: 0/0
  6397 ;; Data sizes:     COMRAM   BANK0   BANK1   BANK2   BANK3   BANK4   BANK5
  6398 ;;      Params:         2       0       0       0       0       0       0
  6399 ;;      Locals:         0       0       0       0       0       0       0
  6400 ;;      Temps:          0       0       0       0       0       0       0
  6401 ;;      Totals:         2       0       0       0       0       0       0
  6402 ;;Total ram usage:        2 bytes
  6403 ;; Hardware stack levels used:    1
  6404 ;; Hardware stack levels required when called:    2
  6405 ;; This function calls:
  6406 ;;		_USART_TxChar
  6407 ;; This function is called by:
  6408 ;;		_main
  6409 ;;		_display
  6410 ;; This function uses a non-reentrant model
  6411 ;;
  6412                           psect	text16,class=CODE,space=0,reloc=2,group=0
  6413                           	file	"usart.c"
  6414                           	line	25
  6415                           global __ptext16
  6416                           __ptext16:
  6417  002DCC                     psect	text16
  6418                           	file	"usart.c"
  6419                           	line	25
  6420                           	global	__size_of_USART_SendString
  6421                           	__size_of_USART_SendString	equ	__end_of_USART_SendString-_USART_SendString
  6422  0000                     	
  6423                           _USART_SendString:; BSR set to: 0
  6424  002DCC                     
  6425                           ;incstack = 0
  6426                           	opt	stack 28
  6427                           	line	27
  6428                           	
  6429                           l3216:
  6430  002DCC                     ;usart.c: 25: void USART_SendString(const char *out);usart.c: 26: {;usart.c: 27:    whil
                                 e(*out!='\0')
  6431                           	goto	l3222
  6432  002DCC  EFFE  F016         	
  6433                           l184:
  6434  002DD0                     	line	29
  6435                           	
  6436                           l3218:
  6437  002DD0                     ;usart.c: 28:    {;usart.c: 29:         USART_TxChar(*out);
  6438                           	movff	(c:USART_SendString@out),tblptrl
  6439  002DD0  C002  FFF6         	movff	(c:USART_SendString@out+1),tblptrh
  6440  002DD4  C003  FFF7         	clrf	tblptru
  6441  002DD8  6AF8               	
  6442                           	movlw	high __ramtop-1
  6443  002DDA  0E05               	cpfsgt	tblptrh
  6444  002DDC  64F7               	bra	u4147
  6445  002DDE  D003               	tblrd	*
  6446  002DE0  0008               	
  6447                           	movf	tablat,w
  6448  002DE2  50F5               	bra	u4140
  6449  002DE4  D005               u4147:
  6450  002DE6                     	movff	tblptrl,fsr1l
  6451  002DE6  CFF6 FFE1          	movff	tblptrh,fsr1h
  6452  002DEA  CFF7 FFE2          	movf	indf1,w
  6453  002DEE  50E7               u4140:
  6454  002DF0                     	
  6455                           	call	_USART_TxChar
  6456  002DF0  ECEA  F017         	line	30
  6457                           	
  6458                           l3220:
  6459  002DF4                     ;usart.c: 30:         out++;
  6460                           	infsnz	((c:USART_SendString@out)),c
  6461  002DF4  4A02               	incf	((c:USART_SendString@out+1)),c
  6462  002DF6  2A03               	goto	l3222
  6463  002DF8  EFFE  F016         	line	31
  6464                           ;usart.c: 31:    }
  6465                           	
  6466                           l183:
  6467  002DFC                     	line	27
  6468                           	
  6469                           l3222:
  6470  002DFC                     ;usart.c: 27:    while(*out!='\0')
  6471                           	movff	(c:USART_SendString@out),tblptrl
  6472  002DFC  C002  FFF6         	movff	(c:USART_SendString@out+1),tblptrh
  6473  002E00  C003  FFF7         	clrf	tblptru
  6474  002E04  6AF8               	
  6475                           	movlw	high __ramtop-1
  6476  002E06  0E05               	cpfsgt	tblptrh
  6477  002E08  64F7               	bra	u4157
  6478  002E0A  D003               	tblrd	*
  6479  002E0C  0008               	
  6480                           	movf	tablat,w
  6481  002E0E  50F5               	bra	u4150
  6482  002E10  D005               u4157:
  6483  002E12                     	movff	tblptrl,fsr1l
  6484  002E12  CFF6 FFE1          	movff	tblptrh,fsr1h
  6485  002E16  CFF7 FFE2          	movf	indf1,w
  6486  002E1A  50E7               u4150:
  6487  002E1C                     	iorlw	0
  6488  002E1C  0900               	btfss	status,2
  6489  002E1E  A4D8               	goto	u4161
  6490  002E20  EF14  F017         	goto	u4160
  6491  002E24  EF16  F017         u4161:
  6492  002E28                     	goto	l3218
  6493  002E28  EFE8  F016         u4160:
  6494  002E2C                     	goto	l186
  6495  002E2C  EF18  F017         	
  6496                           l185:
  6497  002E30                     	line	32
  6498                           	
  6499                           l186:
  6500  002E30                     	return	;funcret
  6501  002E30  0012               	opt stack 0
  6502                           GLOBAL	__end_of_USART_SendString
  6503                           	__end_of_USART_SendString:
  6504  002E32                     	signat	_USART_SendString,4217
  6505                           	global	_USART_TxChar
  6506                           
  6507 ;; *************** function _USART_TxChar *****************
  6508 ;; Defined at:
  6509 ;;		line 13 in file "usart.c"
  6510 ;; Parameters:    Size  Location     Type
  6511 ;;  out             1    wreg     unsigned char 
  6512 ;; Auto vars:     Size  Location     Type
  6513 ;;  out             1    0[COMRAM] unsigned char 
  6514 ;; Return value:  Size  Location     Type
  6515 ;;                  1    wreg      void 
  6516 ;; Registers used:
  6517 ;;		wreg
  6518 ;; Tracked objects:
  6519 ;;		On entry : 0/0
  6520 ;;		On exit  : 0/0
  6521 ;;		Unchanged: 0/0
  6522 ;; Data sizes:     COMRAM   BANK0   BANK1   BANK2   BANK3   BANK4   BANK5
  6523 ;;      Params:         0       0       0       0       0       0       0
  6524 ;;      Locals:         1       0       0       0       0       0       0
  6525 ;;      Temps:          0       0       0       0       0       0       0
  6526 ;;      Totals:         1       0       0       0       0       0       0
  6527 ;;Total ram usage:        1 bytes
  6528 ;; Hardware stack levels used:    1
  6529 ;; Hardware stack levels required when called:    1
  6530 ;; This function calls:
  6531 ;;		Nothing
  6532 ;; This function is called by:
  6533 ;;		_main
  6534 ;;		_USART_SendString
  6535 ;; This function uses a non-reentrant model
  6536 ;;
  6537                           psect	text17,class=CODE,space=0,reloc=2,group=0
  6538                           	line	13
  6539                           global __ptext17
  6540                           __ptext17:
  6541  002FD4                     psect	text17
  6542                           	file	"usart.c"
  6543                           	line	13
  6544                           	global	__size_of_USART_TxChar
  6545                           	__size_of_USART_TxChar	equ	__end_of_USART_TxChar-_USART_TxChar
  6546  0000                     	
  6547                           _USART_TxChar:
  6548  002FD4                     ;incstack = 0
  6549                           	opt	stack 29
  6550                           ;USART_TxChar@out stored from wreg
  6551                           	movwf	((c:USART_TxChar@out)),c
  6552  002FD4  6E01               	line	15
  6553                           	
  6554                           l2452:
  6555  002FD6                     ;usart.c: 13: void USART_TxChar(char out);usart.c: 14: {;usart.c: 15:         while(TXIF
                                 ==0);
  6556                           	goto	l171
  6557  002FD6  EFED  F017         	
  6558                           l172:
  6559  002FDA                     	
  6560                           l171:
  6561  002FDA                     	btfss	c:(31988/8),(31988)&7	;volatile
  6562  002FDA  A89E               	goto	u2641
  6563  002FDC  EFF2  F017         	goto	u2640
  6564  002FE0  EFF4  F017         u2641:
  6565  002FE4                     	goto	l171
  6566  002FE4  EFED  F017         u2640:
  6567  002FE8                     	goto	l2454
  6568  002FE8  EFF6  F017         	
  6569                           l173:
  6570  002FEC                     	line	16
  6571                           	
  6572                           l2454:
  6573  002FEC                     ;usart.c: 16:         TXREG=out;
  6574                           	movff	(c:USART_TxChar@out),(c:4013)	;volatile
  6575  002FEC  C001  FFAD         	line	18
  6576                           	
  6577                           l174:
  6578  002FF0                     	return	;funcret
  6579  002FF0  0012               	opt stack 0
  6580                           GLOBAL	__end_of_USART_TxChar
  6581                           	__end_of_USART_TxChar:
  6582  002FF2                     	signat	_USART_TxChar,4217
  6583                           	global	_USART_Init
  6584                           
  6585 ;; *************** function _USART_Init *****************
  6586 ;; Defined at:
  6587 ;;		line 3 in file "usart.c"
  6588 ;; Parameters:    Size  Location     Type
  6589 ;;  baud_rate       4   74[COMRAM] long 
  6590 ;; Auto vars:     Size  Location     Type
  6591 ;;  temp            4   78[COMRAM] float 
  6592 ;; Return value:  Size  Location     Type
  6593 ;;                  1    wreg      void 
  6594 ;; Registers used:
  6595 ;;		wreg, status,2, status,0, cstack
  6596 ;; Tracked objects:
  6597 ;;		On entry : 0/0
  6598 ;;		On exit  : 0/0
  6599 ;;		Unchanged: 0/0
  6600 ;; Data sizes:     COMRAM   BANK0   BANK1   BANK2   BANK3   BANK4   BANK5
  6601 ;;      Params:         4       0       0       0       0       0       0
  6602 ;;      Locals:         4       0       0       0       0       0       0
  6603 ;;      Temps:          0       0       0       0       0       0       0
  6604 ;;      Totals:         8       0       0       0       0       0       0
  6605 ;;Total ram usage:        8 bytes
  6606 ;; Hardware stack levels used:    1
  6607 ;; Hardware stack levels required when called:    2
  6608 ;; This function calls:
  6609 ;;		___fladd
  6610 ;;		___fldiv
  6611 ;;		___fltol
  6612 ;;		___xxtofl
  6613 ;; This function is called by:
  6614 ;;		_main
  6615 ;; This function uses a non-reentrant model
  6616 ;;
  6617                           psect	text18,class=CODE,space=0,reloc=2,group=0
  6618                           	line	3
  6619                           global __ptext18
  6620                           __ptext18:
  6621  002BEC                     psect	text18
  6622                           	file	"usart.c"
  6623                           	line	3
  6624                           	global	__size_of_USART_Init
  6625                           	__size_of_USART_Init	equ	__end_of_USART_Init-_USART_Init
  6626  0000                     	
  6627                           _USART_Init:
  6628  002BEC                     ;incstack = 0
  6629                           	opt	stack 28
  6630                           	line	6
  6631                           	
  6632                           l3172:
  6633  002BEC                     ;usart.c: 3: void USART_Init(long baud_rate);usart.c: 4: {;usart.c: 5:     float temp;;u
                                 sart.c: 6:     TRISC6=0;
  6634                           	bcf	c:(31910/8),(31910)&7	;volatile
  6635  002BEC  9C94               	line	7
  6636                           ;usart.c: 7:     TRISC7=1;
  6637                           	bsf	c:(31911/8),(31911)&7	;volatile
  6638  002BEE  8E94               	line	8
  6639                           	
  6640                           l3174:
  6641  002BF0                     ;usart.c: 8:     temp=(((float)(8000000/64)/(float)baud_rate)-1);
  6642                           	movff	(c:USART_Init@baud_rate),(c:___xxtofl@val)
  6643  002BF0  C04B  F001         	movff	(c:USART_Init@baud_rate+1),(c:___xxtofl@val+1)
  6644  002BF4  C04C  F002         	movff	(c:USART_Init@baud_rate+2),(c:___xxtofl@val+2)
  6645  002BF8  C04D  F003         	movff	(c:USART_Init@baud_rate+3),(c:___xxtofl@val+3)
  6646  002BFC  C04E  F004         	movlw	(01h)&0ffh
  6647  002C00  0E01               	
  6648                           	call	___xxtofl
  6649  002C02  EC5C  F00F         	movff	0+?___xxtofl,(c:___fldiv@a)
  6650  002C06  C001  F013         	movff	1+?___xxtofl,(c:___fldiv@a+1)
  6651  002C0A  C002  F014         	movff	2+?___xxtofl,(c:___fldiv@a+2)
  6652  002C0E  C003  F015         	movff	3+?___xxtofl,(c:___fldiv@a+3)
  6653  002C12  C004  F016         	
  6654                           	movlw	low(normalize32(0x47f42400))
  6655  002C16  0E00               	movwf	((c:___fldiv@b)),c
  6656  002C18  6E0F               	movlw	high(normalize32(0x47f42400))
  6657  002C1A  0E24               	movwf	((c:___fldiv@b+1)),c
  6658  002C1C  6E10               	movlw	low highword(normalize32(0x47f42400))
  6659  002C1E  0EF4               	movwf	((c:___fldiv@b+2)),c
  6660  002C20  6E11               	movlw	high highword(normalize32(0x47f42400))
  6661  002C22  0E47               	movwf	((c:___fldiv@b+3)),c
  6662  002C24  6E12               	call	___fldiv	;wreg free
  6663  002C26  EC9D  F00A         	movff	0+?___fldiv,(c:___fladd@b)
  6664  002C2A  C00F  F028         	movff	1+?___fldiv,(c:___fladd@b+1)
  6665  002C2E  C010  F029         	movff	2+?___fldiv,(c:___fladd@b+2)
  6666  002C32  C011  F02A         	movff	3+?___fldiv,(c:___fladd@b+3)
  6667  002C36  C012  F02B         	
  6668                           	movlw	low(normalize32(0xbf800000))
  6669  002C3A  0E00               	movwf	((c:___fladd@a)),c
  6670  002C3C  6E2C               	movlw	high(normalize32(0xbf800000))
  6671  002C3E  0E00               	movwf	((c:___fladd@a+1)),c
  6672  002C40  6E2D               	movlw	low highword(normalize32(0xbf800000))
  6673  002C42  0E80               	movwf	((c:___fladd@a+2)),c
  6674  002C44  6E2E               	movlw	high highword(normalize32(0xbf800000))
  6675  002C46  0EBF               	movwf	((c:___fladd@a+3)),c
  6676  002C48  6E2F               	call	___fladd	;wreg free
  6677  002C4A  EC1F  F003         	movff	0+?___fladd,(c:USART_Init@temp)
  6678  002C4E  C028  F04F         	movff	1+?___fladd,(c:USART_Init@temp+1)
  6679  002C52  C029  F050         	movff	2+?___fladd,(c:USART_Init@temp+2)
  6680  002C56  C02A  F051         	movff	3+?___fladd,(c:USART_Init@temp+3)
  6681  002C5A  C02B  F052         	
  6682                           	line	9
  6683                           ;usart.c: 9:     SPBRG=(int)temp;
  6684                           	movff	(c:USART_Init@temp),(c:___fltol@f1)
  6685  002C5E  C04F  F041         	movff	(c:USART_Init@temp+1),(c:___fltol@f1+1)
  6686  002C62  C050  F042         	movff	(c:USART_Init@temp+2),(c:___fltol@f1+2)
  6687  002C66  C051  F043         	movff	(c:USART_Init@temp+3),(c:___fltol@f1+3)
  6688  002C6A  C052  F044         	call	___fltol	;wreg free
  6689  002C6E  ECAD  F013         	movf	(0+?___fltol),c,w
  6690  002C72  5041               	movwf	((c:4015)),c	;volatile
  6691  002C74  6EAF               	line	10
  6692                           	
  6693                           l3176:
  6694  002C76                     ;usart.c: 10:     TXSTA=0x20;
  6695                           	movlw	low(020h)
  6696  002C76  0E20               	movwf	((c:4012)),c	;volatile
  6697  002C78  6EAC               	line	11
  6698                           	
  6699                           l3178:
  6700  002C7A                     ;usart.c: 11:     RCSTA=0x90;
  6701                           	movlw	low(090h)
  6702  002C7A  0E90               	movwf	((c:4011)),c	;volatile
  6703  002C7C  6EAB               	line	12
  6704                           	
  6705                           l168:
  6706  002C7E                     	return	;funcret
  6707  002C7E  0012               	opt stack 0
  6708                           GLOBAL	__end_of_USART_Init
  6709                           	__end_of_USART_Init:
  6710  002C80                     	signat	_USART_Init,4217
  6711                           	global	___fladd
  6712                           
  6713 ;; *************** function ___fladd *****************
  6714 ;; Defined at:
  6715 ;;		line 10 in file "C:\Program Files (x86)\Microchip\xc8\v2.00\pic\sources\c99\common\sprcadd.c"
  6716 ;; Parameters:    Size  Location     Type
  6717 ;;  b               4   39[COMRAM] void 
  6718 ;;  a               4   43[COMRAM] void 
  6719 ;; Auto vars:     Size  Location     Type
  6720 ;;  grs             1   58[COMRAM] unsigned char 
  6721 ;;  bexp            1   57[COMRAM] unsigned char 
  6722 ;;  aexp            1   56[COMRAM] unsigned char 
  6723 ;;  signs           1   55[COMRAM] unsigned char 
  6724 ;; Return value:  Size  Location     Type
  6725 ;;                  4   39[COMRAM] unsigned char 
  6726 ;; Registers used:
  6727 ;;		wreg, status,2, status,0
  6728 ;; Tracked objects:
  6729 ;;		On entry : 0/0
  6730 ;;		On exit  : 0/0
  6731 ;;		Unchanged: 0/0
  6732 ;; Data sizes:     COMRAM   BANK0   BANK1   BANK2   BANK3   BANK4   BANK5
  6733 ;;      Params:         8       0       0       0       0       0       0
  6734 ;;      Locals:         4       0       0       0       0       0       0
  6735 ;;      Temps:          8       0       0       0       0       0       0
  6736 ;;      Totals:        20       0       0       0       0       0       0
  6737 ;;Total ram usage:       20 bytes
  6738 ;; Hardware stack levels used:    1
  6739 ;; Hardware stack levels required when called:    1
  6740 ;; This function calls:
  6741 ;;		Nothing
  6742 ;; This function is called by:
  6743 ;;		_USART_Init
  6744 ;; This function uses a non-reentrant model
  6745 ;;
  6746                           psect	text19,class=CODE,space=0,reloc=2,group=1
  6747                           	file	"C:\Program Files (x86)\Microchip\xc8\v2.00\pic\sources\c99\common\sprcadd.c"
  6748                           	line	10
  6749                           global __ptext19
  6750                           __ptext19:
  6751  00063E                     psect	text19
  6752                           	file	"C:\Program Files (x86)\Microchip\xc8\v2.00\pic\sources\c99\common\sprcadd.c"
  6753                           	line	10
  6754                           	global	__size_of___fladd
  6755                           	__size_of___fladd	equ	__end_of___fladd-___fladd
  6756  0000                     	
  6757                           ___fladd:
  6758  00063E                     ;incstack = 0
  6759                           	opt	stack 28
  6760                           	line	21
  6761                           	
  6762                           l2474:
  6763  00063E                     	movf	(0+((c:___fladd@b)+03h)),c,w
  6764  00063E  502B               	andlw	low(080h)
  6765  000640  0B80               	movwf	((c:___fladd@signs)),c
  6766  000642  6E38               	line	22
  6767                           	movf	(0+((c:___fladd@b)+03h)),c,w
  6768  000644  502B               	addwf	(0+((c:___fladd@b)+03h)),c,w
  6769  000646  242B               	movwf	((c:___fladd@bexp)),c
  6770  000648  6E3A               	line	23
  6771                           	
  6772                           l2476:
  6773  00064A                     	
  6774                           	btfss	(0+((c:___fladd@b)+02h)),c,(7)&7
  6775  00064A  AE2A               	goto	u2681
  6776  00064C  EF2A  F003         	goto	u2680
  6777  000650  EF2C  F003         u2681:
  6778  000654                     	goto	l2480
  6779  000654  EF2F  F003         u2680:
  6780  000658                     	line	24
  6781                           	
  6782                           l2478:
  6783  000658                     	bsf	(0+(0/8)+(c:___fladd@bexp)),c,(0)&7
  6784  000658  803A               	goto	l2480
  6785  00065A  EF2F  F003         	line	25
  6786                           	
  6787                           l794:
  6788  00065E                     	line	28
  6789                           	
  6790                           l2480:
  6791  00065E                     	movf	((c:___fladd@bexp)),c,w
  6792  00065E  503A               	btfsc	status,2
  6793  000660  B4D8               	goto	u2691
  6794  000662  EF35  F003         	goto	u2690
  6795  000666  EF37  F003         u2691:
  6796  00066A                     	goto	l2490
  6797  00066A  EF4E  F003         u2690:
  6798  00066E                     	line	30
  6799                           	
  6800                           l2482:
  6801  00066E                     		incf	((c:___fladd@bexp)),c,w
  6802  00066E  283A               	btfss	status,2
  6803  000670  A4D8               	goto	u2701
  6804  000672  EF3D  F003         	goto	u2700
  6805  000676  EF3F  F003         
  6806                           u2701:
  6807  00067A                     	goto	l2486
  6808  00067A  EF49  F003         u2700:
  6809  00067E                     	line	32
  6810                           	
  6811                           l2484:
  6812  00067E                     	movlw	low(normalize32(0x0))
  6813  00067E  0E00               	movwf	((c:___fladd@b)),c
  6814  000680  6E28               	movlw	high(normalize32(0x0))
  6815  000682  0E00               	movwf	((c:___fladd@b+1)),c
  6816  000684  6E29               	movlw	low highword(normalize32(0x0))
  6817  000686  0E00               	movwf	((c:___fladd@b+2)),c
  6818  000688  6E2A               	movlw	high highword(normalize32(0x0))
  6819  00068A  0E00               	movwf	((c:___fladd@b+3)),c
  6820  00068C  6E2B               	goto	l2486
  6821  00068E  EF49  F003         	line	33
  6822                           	
  6823                           l796:
  6824  000692                     	line	35
  6825                           	
  6826                           l2486:
  6827  000692                     	bsf	(0+(23/8)+(c:___fladd@b)),c,(23)&7
  6828  000692  8E2A               	line	37
  6829                           	
  6830                           l2488:
  6831  000694                     	movlw	low(0)
  6832  000694  0E00               	movwf	(0+((c:___fladd@b)+03h)),c
  6833  000696  6E2B               	line	38
  6834                           	goto	l2492
  6835  000698  EF58  F003         	line	39
  6836                           	
  6837                           l795:
  6838  00069C                     	line	41
  6839                           	
  6840                           l2490:
  6841  00069C                     	movlw	low(normalize32(0x0))
  6842  00069C  0E00               	movwf	((c:___fladd@b)),c
  6843  00069E  6E28               	movlw	high(normalize32(0x0))
  6844  0006A0  0E00               	movwf	((c:___fladd@b+1)),c
  6845  0006A2  6E29               	movlw	low highword(normalize32(0x0))
  6846  0006A4  0E00               	movwf	((c:___fladd@b+2)),c
  6847  0006A6  6E2A               	movlw	high highword(normalize32(0x0))
  6848  0006A8  0E00               	movwf	((c:___fladd@b+3)),c
  6849  0006AA  6E2B               	goto	l2492
  6850  0006AC  EF58  F003         	line	42
  6851                           	
  6852                           l797:
  6853  0006B0                     	line	44
  6854                           	
  6855                           l2492:
  6856  0006B0                     	movf	(0+((c:___fladd@a)+03h)),c,w
  6857  0006B0  502F               	andlw	low(080h)
  6858  0006B2  0B80               	movwf	((c:___fladd@aexp)),c
  6859  0006B4  6E39               	line	46
  6860                           	
  6861                           l2494:
  6862  0006B6                     	movf	((c:___fladd@signs)),c,w
  6863  0006B6  5038               xorwf	((c:___fladd@aexp)),c,w
  6864  0006B8  1839               	btfsc	status,2
  6865  0006BA  B4D8               	goto	u2711
  6866  0006BC  EF62  F003         	goto	u2710
  6867  0006C0  EF64  F003         
  6868                           u2711:
  6869  0006C4                     	goto	l2498
  6870  0006C4  EF67  F003         u2710:
  6871  0006C8                     	line	47
  6872                           	
  6873                           l2496:
  6874  0006C8                     	bsf	(0+(6/8)+(c:___fladd@signs)),c,(6)&7
  6875  0006C8  8C38               	goto	l2498
  6876  0006CA  EF67  F003         	line	48
  6877                           	
  6878                           l798:
  6879  0006CE                     	line	49
  6880                           	
  6881                           l2498:
  6882  0006CE                     	movf	(0+((c:___fladd@a)+03h)),c,w
  6883  0006CE  502F               	addwf	(0+((c:___fladd@a)+03h)),c,w
  6884  0006D0  242F               	movwf	((c:___fladd@aexp)),c
  6885  0006D2  6E39               	line	50
  6886                           	
  6887                           l2500:
  6888  0006D4                     	
  6889                           	btfss	(0+((c:___fladd@a)+02h)),c,(7)&7
  6890  0006D4  AE2E               	goto	u2721
  6891  0006D6  EF6F  F003         	goto	u2720
  6892  0006DA  EF71  F003         u2721:
  6893  0006DE                     	goto	l2504
  6894  0006DE  EF74  F003         u2720:
  6895  0006E2                     	line	51
  6896                           	
  6897                           l2502:
  6898  0006E2                     	bsf	(0+(0/8)+(c:___fladd@aexp)),c,(0)&7
  6899  0006E2  8039               	goto	l2504
  6900  0006E4  EF74  F003         	line	52
  6901                           	
  6902                           l799:
  6903  0006E8                     	line	55
  6904                           	
  6905                           l2504:
  6906  0006E8                     	movf	((c:___fladd@aexp)),c,w
  6907  0006E8  5039               	btfsc	status,2
  6908  0006EA  B4D8               	goto	u2731
  6909  0006EC  EF7A  F003         	goto	u2730
  6910  0006F0  EF7C  F003         u2731:
  6911  0006F4                     	goto	l2514
  6912  0006F4  EF93  F003         u2730:
  6913  0006F8                     	line	57
  6914                           	
  6915                           l2506:
  6916  0006F8                     		incf	((c:___fladd@aexp)),c,w
  6917  0006F8  2839               	btfss	status,2
  6918  0006FA  A4D8               	goto	u2741
  6919  0006FC  EF82  F003         	goto	u2740
  6920  000700  EF84  F003         
  6921                           u2741:
  6922  000704                     	goto	l2510
  6923  000704  EF8E  F003         u2740:
  6924  000708                     	line	59
  6925                           	
  6926                           l2508:
  6927  000708                     	movlw	low(normalize32(0x0))
  6928  000708  0E00               	movwf	((c:___fladd@a)),c
  6929  00070A  6E2C               	movlw	high(normalize32(0x0))
  6930  00070C  0E00               	movwf	((c:___fladd@a+1)),c
  6931  00070E  6E2D               	movlw	low highword(normalize32(0x0))
  6932  000710  0E00               	movwf	((c:___fladd@a+2)),c
  6933  000712  6E2E               	movlw	high highword(normalize32(0x0))
  6934  000714  0E00               	movwf	((c:___fladd@a+3)),c
  6935  000716  6E2F               	goto	l2510
  6936  000718  EF8E  F003         	line	60
  6937                           	
  6938                           l801:
  6939  00071C                     	line	62
  6940                           	
  6941                           l2510:
  6942  00071C                     	bsf	(0+(23/8)+(c:___fladd@a)),c,(23)&7
  6943  00071C  8E2E               	line	64
  6944                           	
  6945                           l2512:
  6946  00071E                     	movlw	low(0)
  6947  00071E  0E00               	movwf	(0+((c:___fladd@a)+03h)),c
  6948  000720  6E2F               	line	65
  6949                           	goto	l2516
  6950  000722  EF9D  F003         	line	66
  6951                           	
  6952                           l800:
  6953  000726                     	line	68
  6954                           	
  6955                           l2514:
  6956  000726                     	movlw	low(normalize32(0x0))
  6957  000726  0E00               	movwf	((c:___fladd@a)),c
  6958  000728  6E2C               	movlw	high(normalize32(0x0))
  6959  00072A  0E00               	movwf	((c:___fladd@a+1)),c
  6960  00072C  6E2D               	movlw	low highword(normalize32(0x0))
  6961  00072E  0E00               	movwf	((c:___fladd@a+2)),c
  6962  000730  6E2E               	movlw	high highword(normalize32(0x0))
  6963  000732  0E00               	movwf	((c:___fladd@a+3)),c
  6964  000734  6E2F               	goto	l2516
  6965  000736  EF9D  F003         	line	69
  6966                           	
  6967                           l802:
  6968  00073A                     	line	75
  6969                           	
  6970                           l2516:
  6971  00073A                     		movf	((c:___fladd@bexp)),c,w
  6972  00073A  503A               	subwf	((c:___fladd@aexp)),c,w
  6973  00073C  5C39               	btfsc	status,0
  6974  00073E  B0D8               	goto	u2751
  6975  000740  EFA4  F003         	goto	u2750
  6976  000744  EFA6  F003         
  6977                           u2751:
  6978  000748                     	goto	l2552
  6979  000748  EFD1  F003         u2750:
  6980  00074C                     	line	77
  6981                           	
  6982                           l2518:
  6983  00074C                     	
  6984                           	btfss	((c:___fladd@signs)),c,(6)&7
  6985  00074C  AC38               	goto	u2761
  6986  00074E  EFAB  F003         	goto	u2760
  6987  000752  EFAD  F003         u2761:
  6988  000756                     	goto	l2522
  6989  000756  EFB1  F003         u2760:
  6990  00075A                     	line	78
  6991                           	
  6992                           l2520:
  6993  00075A                     	movlw	(080h)&0ffh
  6994  00075A  0E80               	xorwf	((c:___fladd@signs)),c
  6995  00075C  1A38               	goto	l2522
  6996  00075E  EFB1  F003         	line	79
  6997                           	
  6998                           l804:
  6999  000762                     	line	81
  7000                           	
  7001                           l2522:
  7002  000762                     	movff	(c:___fladd@bexp),(c:___fladd@grs)
  7003  000762  C03A  F03B         	line	82
  7004                           	
  7005                           l2524:
  7006  000766                     	movff	(c:___fladd@aexp),(c:___fladd@bexp)
  7007  000766  C039  F03A         	line	83
  7008                           	
  7009                           l2526:
  7010  00076A                     	movff	(c:___fladd@grs),(c:___fladd@aexp)
  7011  00076A  C03B  F039         	line	84
  7012                           	
  7013                           l2528:
  7014  00076E                     	movff	(c:___fladd@b),(c:___fladd@grs)
  7015  00076E  C028  F03B         	line	85
  7016                           	
  7017                           l2530:
  7018  000772                     	movff	(c:___fladd@a),(c:___fladd@b)
  7019  000772  C02C  F028         	line	86
  7020                           	
  7021                           l2532:
  7022  000776                     	movff	(c:___fladd@grs),(c:___fladd@a)
  7023  000776  C03B  F02C         	line	87
  7024                           	
  7025                           l2534:
  7026  00077A                     	movff	0+((c:___fladd@b)+01h),(c:___fladd@grs)
  7027  00077A  C029  F03B         	line	88
  7028                           	
  7029                           l2536:
  7030  00077E                     	movff	0+((c:___fladd@a)+01h),0+((c:___fladd@b)+01h)
  7031  00077E  C02D  F029         	line	89
  7032                           	
  7033                           l2538:
  7034  000782                     	movff	(c:___fladd@grs),0+((c:___fladd@a)+01h)
  7035  000782  C03B  F02D         	line	90
  7036                           	
  7037                           l2540:
  7038  000786                     	movff	0+((c:___fladd@b)+02h),(c:___fladd@grs)
  7039  000786  C02A  F03B         	line	91
  7040                           	
  7041                           l2542:
  7042  00078A                     	movff	0+((c:___fladd@a)+02h),0+((c:___fladd@b)+02h)
  7043  00078A  C02E  F02A         	line	92
  7044                           	
  7045                           l2544:
  7046  00078E                     	movff	(c:___fladd@grs),0+((c:___fladd@a)+02h)
  7047  00078E  C03B  F02E         	line	93
  7048                           	
  7049                           l2546:
  7050  000792                     	movff	0+((c:___fladd@b)+03h),(c:___fladd@grs)
  7051  000792  C02B  F03B         	line	94
  7052                           	
  7053                           l2548:
  7054  000796                     	movff	0+((c:___fladd@a)+03h),0+((c:___fladd@b)+03h)
  7055  000796  C02F  F02B         	line	95
  7056                           	
  7057                           l2550:
  7058  00079A                     	movff	(c:___fladd@grs),0+((c:___fladd@a)+03h)
  7059  00079A  C03B  F02F         	goto	l2552
  7060  00079E  EFD1  F003         	line	96
  7061                           	
  7062                           l803:
  7063  0007A2                     	line	98
  7064                           	
  7065                           l2552:
  7066  0007A2                     	movlw	low(0)
  7067  0007A2  0E00               	movwf	((c:___fladd@grs)),c
  7068  0007A4  6E3B               	line	100
  7069                           	
  7070                           l2554:
  7071  0007A6                     	movf	((c:___fladd@bexp)),c,w
  7072  0007A6  503A               	movwf	(??___fladd+0+0)&0ffh,c
  7073  0007A8  6E30               	clrf	(??___fladd+0+0+1)&0ffh,c
  7074  0007AA  6A31               
  7075                           	comf	(??___fladd+0+0),c
  7076  0007AC  1E30               	comf	(??___fladd+0+1),c
  7077  0007AE  1E31               	infsnz	(??___fladd+0+0),c
  7078  0007B0  4A30               	incf	(??___fladd+0+1),c
  7079  0007B2  2A31               	movf	((c:___fladd@aexp)),c,w
  7080  0007B4  5039               	movwf	(??___fladd+2+0)&0ffh,c
  7081  0007B6  6E32               	clrf	(??___fladd+2+0+1)&0ffh,c
  7082  0007B8  6A33               
  7083                           	movf	(??___fladd+0+0),c,w
  7084  0007BA  5030               	addwf	(??___fladd+2+0),c
  7085  0007BC  2632               	movf	(??___fladd+0+1),c,w
  7086  0007BE  5031               	addwfc	(??___fladd+2+1),c
  7087  0007C0  2233               	btfsc	(??___fladd+2+1),c,7
  7088  0007C2  BE33               	goto	u2771
  7089  0007C4  EFED  F003         	movf	(??___fladd+2+1),c,w
  7090  0007C8  5033               	bnz	u2770
  7091  0007CA  E109               	movlw	26
  7092  0007CC  0E1A               	subwf	 (??___fladd+2+0),c,w
  7093  0007CE  5C32               	btfss	status,0
  7094  0007D0  A0D8               	goto	u2771
  7095  0007D2  EFED  F003         	goto	u2770
  7096  0007D6  EFEF  F003         
  7097                           u2771:
  7098  0007DA                     	goto	l807
  7099  0007DA  EF2C  F004         u2770:
  7100  0007DE                     	line	101
  7101                           	
  7102                           l2556:
  7103  0007DE                     	movf	((c:___fladd@b)),c,w
  7104  0007DE  5028               iorwf	((c:___fladd@b+1)),c,w
  7105  0007E0  1029               iorwf	((c:___fladd@b+2)),c,w
  7106  0007E2  102A               iorwf	((c:___fladd@b+3)),c,w
  7107  0007E4  102B               	btfss	status,2
  7108  0007E6  A4D8               	goto	u2781
  7109  0007E8  EFF8  F003         	goto	u2780
  7110  0007EC  EFFB  F003         
  7111                           u2781:
  7112  0007F0                     	movlw	1
  7113  0007F0  0E01               	goto	u2790
  7114  0007F2  EFFC  F003         u2780:
  7115  0007F6                     	movlw	0
  7116  0007F6  0E00               u2790:
  7117  0007F8                     	movwf	((c:___fladd@grs)),c
  7118  0007F8  6E3B               	line	102
  7119                           	
  7120                           l2558:
  7121  0007FA                     	movlw	low(0)
  7122  0007FA  0E00               	movwf	((c:___fladd@b)),c
  7123  0007FC  6E28               	movlw	high(0)
  7124  0007FE  0E00               	movwf	((c:___fladd@b+1)),c
  7125  000800  6E29               	movlw	low highword(0)
  7126  000802  0E00               	movwf	((c:___fladd@b+2)),c
  7127  000804  6E2A               	movlw	high highword(0)
  7128  000806  0E00               	movwf	((c:___fladd@b+3)),c
  7129  000808  6E2B               	line	103
  7130                           	
  7131                           l2560:
  7132  00080A                     	movff	(c:___fladd@aexp),(c:___fladd@bexp)
  7133  00080A  C039  F03A         	line	104
  7134                           	goto	l806
  7135  00080E  EF37  F004         	line	105
  7136                           	
  7137                           l805:
  7138  000812                     	line	106
  7139                           	goto	l807
  7140  000812  EF2C  F004         	
  7141                           l808:
  7142  000816                     	line	109
  7143                           	
  7144                           	btfss	((c:___fladd@grs)),c,(0)&7
  7145  000816  A03B               	goto	u2801
  7146  000818  EF10  F004         	goto	u2800
  7147  00081C  EF12  F004         u2801:
  7148  000820                     	goto	l2564
  7149  000820  EF18  F004         u2800:
  7150  000824                     	line	110
  7151                           	
  7152                           l2562:
  7153  000824                     	bcf	status,0
  7154  000824  90D8               	rrcf	((c:___fladd@grs)),c,w
  7155  000826  303B               	iorlw	low(01h)
  7156  000828  0901               	movwf	((c:___fladd@grs)),c
  7157  00082A  6E3B               	line	111
  7158                           	goto	l2566
  7159  00082C  EF1C  F004         	line	112
  7160                           	
  7161                           l809:
  7162  000830                     	line	113
  7163                           	
  7164                           l2564:
  7165  000830                     	bcf status,0
  7166  000830  90D8               	rrcf	((c:___fladd@grs)),c
  7167  000832  323B               
  7168                           	goto	l2566
  7169  000834  EF1C  F004         	line	114
  7170                           	
  7171                           l810:
  7172  000838                     	line	115
  7173                           	
  7174                           l2566:
  7175  000838                     	
  7176                           	btfss	((c:___fladd@b)),c,(0)&7
  7177  000838  A028               	goto	u2811
  7178  00083A  EF21  F004         	goto	u2810
  7179  00083E  EF23  F004         u2811:
  7180  000842                     	goto	l2570
  7181  000842  EF26  F004         u2810:
  7182  000846                     	line	116
  7183                           	
  7184                           l2568:
  7185  000846                     	bsf	(0+(7/8)+(c:___fladd@grs)),c,(7)&7
  7186  000846  8E3B               	goto	l2570
  7187  000848  EF26  F004         	line	117
  7188                           	
  7189                           l811:
  7190  00084C                     	line	118
  7191                           	
  7192                           l2570:
  7193  00084C                     	rlcf	((c:___fladd@b+3)),c,w
  7194  00084C  342B               	rrcf	((c:___fladd@b+3)),c
  7195  00084E  322B               	rrcf	((c:___fladd@b+2)),c
  7196  000850  322A               	rrcf	((c:___fladd@b+1)),c
  7197  000852  3229               	rrcf	((c:___fladd@b)),c
  7198  000854  3228               	line	119
  7199                           	
  7200                           l2572:
  7201  000856                     	incf	((c:___fladd@bexp)),c
  7202  000856  2A3A               	line	120
  7203                           	
  7204                           l807:
  7205  000858                     	line	106
  7206                           		movf	((c:___fladd@aexp)),c,w
  7207  000858  5039               	subwf	((c:___fladd@bexp)),c,w
  7208  00085A  5C3A               	btfss	status,0
  7209  00085C  A0D8               	goto	u2821
  7210  00085E  EF33  F004         	goto	u2820
  7211  000862  EF35  F004         
  7212                           u2821:
  7213  000866                     	goto	l808
  7214  000866  EF0B  F004         u2820:
  7215  00086A                     	goto	l806
  7216  00086A  EF37  F004         	
  7217                           l812:
  7218  00086E                     	line	121
  7219                           	
  7220                           l806:
  7221  00086E                     	line	124
  7222                           	
  7223                           	btfsc	((c:___fladd@signs)),c,(6)&7
  7224  00086E  BC38               	goto	u2831
  7225  000870  EF3C  F004         	goto	u2830
  7226  000874  EF3E  F004         u2831:
  7227  000878                     	goto	l2598
  7228  000878  EF86  F004         u2830:
  7229  00087C                     	line	127
  7230                           	
  7231                           l2574:
  7232  00087C                     	movf	((c:___fladd@bexp)),c,w
  7233  00087C  503A               	btfss	status,2
  7234  00087E  A4D8               	goto	u2841
  7235  000880  EF44  F004         	goto	u2840
  7236  000884  EF46  F004         u2841:
  7237  000888                     	goto	l2580
  7238  000888  EF52  F004         u2840:
  7239  00088C                     	line	128
  7240                           	
  7241                           l2576:
  7242  00088C                     	movlw	low(normalize32(0x0))
  7243  00088C  0E00               	movwf	((c:?___fladd)),c
  7244  00088E  6E28               	movlw	high(normalize32(0x0))
  7245  000890  0E00               	movwf	((c:?___fladd+1)),c
  7246  000892  6E29               	movlw	low highword(normalize32(0x0))
  7247  000894  0E00               	movwf	((c:?___fladd+2)),c
  7248  000896  6E2A               	movlw	high highword(normalize32(0x0))
  7249  000898  0E00               	movwf	((c:?___fladd+3)),c
  7250  00089A  6E2B               	goto	l815
  7251  00089C  EFE0  F005         	
  7252                           l2578:
  7253  0008A0                     	goto	l815
  7254  0008A0  EFE0  F005         	line	129
  7255                           	
  7256                           l814:
  7257  0008A4                     	line	132
  7258                           	
  7259                           l2580:
  7260  0008A4                     	movf	((c:___fladd@a)),c,w
  7261  0008A4  502C               	addwf	((c:___fladd@b)),c
  7262  0008A6  2628               	movf	((c:___fladd@a+1)),c,w
  7263  0008A8  502D               	addwfc	((c:___fladd@b+1)),c
  7264  0008AA  2229               	movf	((c:___fladd@a+2)),c,w
  7265  0008AC  502E               	addwfc	((c:___fladd@b+2)),c
  7266  0008AE  222A               	movf	((c:___fladd@a+3)),c,w
  7267  0008B0  502F               	addwfc	((c:___fladd@b+3)),c
  7268  0008B2  222B               	line	134
  7269                           	
  7270                           l2582:
  7271  0008B4                     	
  7272                           	btfss	((c:___fladd@b+3)),c,(24)&7
  7273  0008B4  A02B               	goto	u2851
  7274  0008B6  EF5F  F004         	goto	u2850
  7275  0008BA  EF61  F004         u2851:
  7276  0008BE                     	goto	l2634
  7277  0008BE  EF36  F005         u2850:
  7278  0008C2                     	line	135
  7279                           	
  7280                           l2584:
  7281  0008C2                     	
  7282                           	btfss	((c:___fladd@grs)),c,(0)&7
  7283  0008C2  A03B               	goto	u2861
  7284  0008C4  EF66  F004         	goto	u2860
  7285  0008C8  EF68  F004         u2861:
  7286  0008CC                     	goto	l2588
  7287  0008CC  EF6E  F004         u2860:
  7288  0008D0                     	line	136
  7289                           	
  7290                           l2586:
  7291  0008D0                     	bcf	status,0
  7292  0008D0  90D8               	rrcf	((c:___fladd@grs)),c,w
  7293  0008D2  303B               	iorlw	low(01h)
  7294  0008D4  0901               	movwf	((c:___fladd@grs)),c
  7295  0008D6  6E3B               	line	137
  7296                           	goto	l2590
  7297  0008D8  EF72  F004         	line	138
  7298                           	
  7299                           l817:
  7300  0008DC                     	line	139
  7301                           	
  7302                           l2588:
  7303  0008DC                     	bcf status,0
  7304  0008DC  90D8               	rrcf	((c:___fladd@grs)),c
  7305  0008DE  323B               
  7306                           	goto	l2590
  7307  0008E0  EF72  F004         	line	140
  7308                           	
  7309                           l818:
  7310  0008E4                     	line	141
  7311                           	
  7312                           l2590:
  7313  0008E4                     	
  7314                           	btfss	((c:___fladd@b)),c,(0)&7
  7315  0008E4  A028               	goto	u2871
  7316  0008E6  EF77  F004         	goto	u2870
  7317  0008EA  EF79  F004         u2871:
  7318  0008EE                     	goto	l2594
  7319  0008EE  EF7C  F004         u2870:
  7320  0008F2                     	line	142
  7321                           	
  7322                           l2592:
  7323  0008F2                     	bsf	(0+(7/8)+(c:___fladd@grs)),c,(7)&7
  7324  0008F2  8E3B               	goto	l2594
  7325  0008F4  EF7C  F004         	line	143
  7326                           	
  7327                           l819:
  7328  0008F8                     	line	144
  7329                           	
  7330                           l2594:
  7331  0008F8                     	rlcf	((c:___fladd@b+3)),c,w
  7332  0008F8  342B               	rrcf	((c:___fladd@b+3)),c
  7333  0008FA  322B               	rrcf	((c:___fladd@b+2)),c
  7334  0008FC  322A               	rrcf	((c:___fladd@b+1)),c
  7335  0008FE  3229               	rrcf	((c:___fladd@b)),c
  7336  000900  3228               	line	145
  7337                           	
  7338                           l2596:
  7339  000902                     	incf	((c:___fladd@bexp)),c
  7340  000902  2A3A               	goto	l2634
  7341  000904  EF36  F005         	line	146
  7342                           	
  7343                           l816:
  7344  000908                     	line	148
  7345                           	goto	l2634
  7346  000908  EF36  F005         	line	149
  7347                           	
  7348                           l813:
  7349  00090C                     	line	153
  7350                           	
  7351                           l2598:
  7352  00090C                     		movf	((c:___fladd@a)),c,w
  7353  00090C  502C               	subwf	((c:___fladd@b)),c,w
  7354  00090E  5C28               	movf	((c:___fladd@a+1)),c,w
  7355  000910  502D               	subwfb	((c:___fladd@b+1)),c,w
  7356  000912  5829               	movf	((c:___fladd@a+2)),c,w
  7357  000914  502E               	subwfb	((c:___fladd@b+2)),c,w
  7358  000916  582A               	movf	((c:___fladd@b+3)),c,w
  7359  000918  502B               	xorlw	80h
  7360  00091A  0A80               	movwf	(??___fladd+0+0)&0ffh,c
  7361  00091C  6E30               	movf	((c:___fladd@a+3)),c,w
  7362  00091E  502F               	xorlw	80h
  7363  000920  0A80               	subwfb	(??___fladd+0+0)&0ffh,c,w
  7364  000922  5830               	btfsc	status,0
  7365  000924  B0D8               	goto	u2881
  7366  000926  EF97  F004         	goto	u2880
  7367  00092A  EF99  F004         
  7368                           u2881:
  7369  00092E                     	goto	l2608
  7370  00092E  EFD7  F004         u2880:
  7371  000932                     	line	154
  7372                           	
  7373                           l2600:
  7374  000932                     	movff	(c:___fladd@b),??___fladd+0+0
  7375  000932  C028  F030         	movff	(c:___fladd@b+1),??___fladd+0+0+1
  7376  000936  C029  F031         	movff	(c:___fladd@b+2),??___fladd+0+0+2
  7377  00093A  C02A  F032         	movff	(c:___fladd@b+3),??___fladd+0+0+3
  7378  00093E  C02B  F033         	comf	(??___fladd+0+0),c
  7379  000942  1E30               	comf	(??___fladd+0+1),c
  7380  000944  1E31               	comf	(??___fladd+0+2),c
  7381  000946  1E32               	comf	(??___fladd+0+3),c
  7382  000948  1E33               	incf	(??___fladd+0+0),c
  7383  00094A  2A30               	movlw	0
  7384  00094C  0E00               	addwfc	(??___fladd+0+1),c
  7385  00094E  2231               	addwfc	(??___fladd+0+2),c
  7386  000950  2232               	addwfc	(??___fladd+0+3),c
  7387  000952  2233               	movf	((c:___fladd@a)),c,w
  7388  000954  502C               	addwf	(??___fladd+0+0),c,w
  7389  000956  2430               	movwf	(??___fladd+4+0)&0ffh,c
  7390  000958  6E34               	movf	((c:___fladd@a+1)),c,w
  7391  00095A  502D               	addwfc	(??___fladd+0+1),c,w
  7392  00095C  2031               	movwf	1+(??___fladd+4+0)&0ffh,c
  7393  00095E  6E35               	
  7394                           	movf	((c:___fladd@a+2)),c,w
  7395  000960  502E               	addwfc	(??___fladd+0+2),c,w
  7396  000962  2032               	movwf	2+(??___fladd+4+0)&0ffh,c
  7397  000964  6E36               	
  7398                           	movf	((c:___fladd@a+3)),c,w
  7399  000966  502F               	addwfc	(??___fladd+0+3),c,w
  7400  000968  2033               	movwf	3+(??___fladd+4+0)&0ffh,c
  7401  00096A  6E37               	movlw	0FFh
  7402  00096C  0EFF               	addwf	(??___fladd+4+0),c,w
  7403  00096E  2434               	movwf	((c:___fladd@b)),c
  7404  000970  6E28               	movlw	0FFh
  7405  000972  0EFF               	addwfc	(??___fladd+4+1),c,w
  7406  000974  2035               	movwf	1+((c:___fladd@b)),c
  7407  000976  6E29               	
  7408                           	movlw	0FFh
  7409  000978  0EFF               	addwfc	(??___fladd+4+2),c,w
  7410  00097A  2036               	movwf	2+((c:___fladd@b)),c
  7411  00097C  6E2A               	
  7412                           	movlw	0FFh
  7413  00097E  0EFF               	addwfc	(??___fladd+4+3),c,w
  7414  000980  2037               	movwf	3+((c:___fladd@b)),c
  7415  000982  6E2B               	line	155
  7416                           	movlw	(080h)&0ffh
  7417  000984  0E80               	xorwf	((c:___fladd@signs)),c
  7418  000986  1A38               	line	156
  7419                           	
  7420                           l2602:
  7421  000988                     	negf	((c:___fladd@grs)),c
  7422  000988  6C3B               	line	157
  7423                           	
  7424                           l2604:
  7425  00098A                     	movf	((c:___fladd@grs)),c,w
  7426  00098A  503B               	btfss	status,2
  7427  00098C  A4D8               	goto	u2891
  7428  00098E  EFCB  F004         	goto	u2890
  7429  000992  EFCD  F004         u2891:
  7430  000996                     	goto	l823
  7431  000996  EFDF  F004         u2890:
  7432  00099A                     	line	158
  7433                           	
  7434                           l2606:
  7435  00099A                     	movlw	low(01h)
  7436  00099A  0E01               	addwf	((c:___fladd@b)),c
  7437  00099C  2628               	movlw	0
  7438  00099E  0E00               	addwfc	((c:___fladd@b+1)),c
  7439  0009A0  2229               	addwfc	((c:___fladd@b+2)),c
  7440  0009A2  222A               	addwfc	((c:___fladd@b+3)),c
  7441  0009A4  222B               	goto	l823
  7442  0009A6  EFDF  F004         	line	159
  7443                           	
  7444                           l822:
  7445  0009AA                     	line	160
  7446                           	goto	l823
  7447  0009AA  EFDF  F004         	line	161
  7448                           	
  7449                           l821:
  7450  0009AE                     	line	162
  7451                           	
  7452                           l2608:
  7453  0009AE                     	movf	((c:___fladd@a)),c,w
  7454  0009AE  502C               	subwf	((c:___fladd@b)),c
  7455  0009B0  5E28               	movf	((c:___fladd@a+1)),c,w
  7456  0009B2  502D               	subwfb	((c:___fladd@b+1)),c
  7457  0009B4  5A29               	movf	((c:___fladd@a+2)),c,w
  7458  0009B6  502E               	subwfb	((c:___fladd@b+2)),c
  7459  0009B8  5A2A               	movf	((c:___fladd@a+3)),c,w
  7460  0009BA  502F               	subwfb	((c:___fladd@b+3)),c
  7461  0009BC  5A2B               	line	163
  7462                           	
  7463                           l823:
  7464  0009BE                     	line	166
  7465                           	movf	((c:___fladd@b)),c,w
  7466  0009BE  5028               iorwf	((c:___fladd@b+1)),c,w
  7467  0009C0  1029               iorwf	((c:___fladd@b+2)),c,w
  7468  0009C2  102A               iorwf	((c:___fladd@b+3)),c,w
  7469  0009C4  102B               	btfss	status,2
  7470  0009C6  A4D8               	goto	u2901
  7471  0009C8  EFE8  F004         	goto	u2900
  7472  0009CC  EFEA  F004         
  7473                           u2901:
  7474  0009D0                     	goto	l2632
  7475  0009D0  EF2B  F005         u2900:
  7476  0009D4                     	
  7477                           l2610:
  7478  0009D4                     	movf	((c:___fladd@grs)),c,w
  7479  0009D4  503B               	btfss	status,2
  7480  0009D6  A4D8               	goto	u2911
  7481  0009D8  EFF0  F004         	goto	u2910
  7482  0009DC  EFF2  F004         u2911:
  7483  0009E0                     	goto	l2632
  7484  0009E0  EF2B  F005         u2910:
  7485  0009E4                     	line	167
  7486                           	
  7487                           l2612:
  7488  0009E4                     	movlw	low(normalize32(0x0))
  7489  0009E4  0E00               	movwf	((c:?___fladd)),c
  7490  0009E6  6E28               	movlw	high(normalize32(0x0))
  7491  0009E8  0E00               	movwf	((c:?___fladd+1)),c
  7492  0009EA  6E29               	movlw	low highword(normalize32(0x0))
  7493  0009EC  0E00               	movwf	((c:?___fladd+2)),c
  7494  0009EE  6E2A               	movlw	high highword(normalize32(0x0))
  7495  0009F0  0E00               	movwf	((c:?___fladd+3)),c
  7496  0009F2  6E2B               	goto	l815
  7497  0009F4  EFE0  F005         	
  7498                           l2614:
  7499  0009F8                     	goto	l815
  7500  0009F8  EFE0  F005         	line	168
  7501                           	
  7502                           l824:
  7503  0009FC                     	line	171
  7504                           	goto	l2632
  7505  0009FC  EF2B  F005         	
  7506                           l826:
  7507  000A00                     	line	172
  7508                           	
  7509                           l2616:
  7510  000A00                     	bcf	status,0
  7511  000A00  90D8               	rlcf	((c:___fladd@b)),c
  7512  000A02  3628               	rlcf	((c:___fladd@b+1)),c
  7513  000A04  3629               	rlcf	((c:___fladd@b+2)),c
  7514  000A06  362A               	rlcf	((c:___fladd@b+3)),c
  7515  000A08  362B               	line	173
  7516                           	
  7517                           l2618:
  7518  000A0A                     	
  7519                           	btfss	((c:___fladd@grs)),c,(7)&7
  7520  000A0A  AE3B               	goto	u2921
  7521  000A0C  EF0A  F005         	goto	u2920
  7522  000A10  EF0C  F005         u2921:
  7523  000A14                     	goto	l2622
  7524  000A14  EF0F  F005         u2920:
  7525  000A18                     	line	174
  7526                           	
  7527                           l2620:
  7528  000A18                     	bsf	(0+(0/8)+(c:___fladd@b)),c,(0)&7
  7529  000A18  8028               	goto	l2622
  7530  000A1A  EF0F  F005         	line	175
  7531                           	
  7532                           l827:
  7533  000A1E                     	line	176
  7534                           	
  7535                           l2622:
  7536  000A1E                     	
  7537                           	btfss	((c:___fladd@grs)),c,(0)&7
  7538  000A1E  A03B               	goto	u2931
  7539  000A20  EF14  F005         	goto	u2930
  7540  000A24  EF16  F005         u2931:
  7541  000A28                     	goto	l2626
  7542  000A28  EF1A  F005         u2930:
  7543  000A2C                     	line	177
  7544                           	
  7545                           l2624:
  7546  000A2C                     	bsf	status,0
  7547  000A2C  80D8               	
  7548                           	rlcf	((c:___fladd@grs)),c
  7549  000A2E  363B               	line	178
  7550                           	goto	l2628
  7551  000A30  EF1E  F005         	line	179
  7552                           	
  7553                           l828:
  7554  000A34                     	line	180
  7555                           	
  7556                           l2626:
  7557  000A34                     	bcf status,0
  7558  000A34  90D8               	rlcf	((c:___fladd@grs)),c
  7559  000A36  363B               
  7560                           	goto	l2628
  7561  000A38  EF1E  F005         	line	181
  7562                           	
  7563                           l829:
  7564  000A3C                     	line	182
  7565                           	
  7566                           l2628:
  7567  000A3C                     	movf	((c:___fladd@bexp)),c,w
  7568  000A3C  503A               	btfsc	status,2
  7569  000A3E  B4D8               	goto	u2941
  7570  000A40  EF24  F005         	goto	u2940
  7571  000A44  EF26  F005         u2941:
  7572  000A48                     	goto	l2632
  7573  000A48  EF2B  F005         u2940:
  7574  000A4C                     	line	183
  7575                           	
  7576                           l2630:
  7577  000A4C                     	decf	((c:___fladd@bexp)),c
  7578  000A4C  063A               	goto	l2632
  7579  000A4E  EF2B  F005         	line	184
  7580                           	
  7581                           l830:
  7582  000A52                     	goto	l2632
  7583  000A52  EF2B  F005         	line	185
  7584                           	
  7585                           l825:
  7586  000A56                     	line	171
  7587                           	
  7588                           l2632:
  7589  000A56                     	
  7590                           	btfss	((c:___fladd@b+2)),c,(23)&7
  7591  000A56  AE2A               	goto	u2951
  7592  000A58  EF30  F005         	goto	u2950
  7593  000A5C  EF32  F005         u2951:
  7594  000A60                     	goto	l2616
  7595  000A60  EF00  F005         u2950:
  7596  000A64                     	goto	l2634
  7597  000A64  EF36  F005         	
  7598                           l831:
  7599  000A68                     	goto	l2634
  7600  000A68  EF36  F005         	line	186
  7601                           	
  7602                           l820:
  7603  000A6C                     	line	192
  7604                           	
  7605                           l2634:
  7606  000A6C                     	movlw	low(0)
  7607  000A6C  0E00               	movwf	((c:___fladd@aexp)),c
  7608  000A6E  6E39               	line	193
  7609                           	
  7610                           l2636:
  7611  000A70                     	
  7612                           	btfss	((c:___fladd@grs)),c,(7)&7
  7613  000A70  AE3B               	goto	u2961
  7614  000A72  EF3D  F005         	goto	u2960
  7615  000A76  EF3F  F005         u2961:
  7616  000A7A                     	goto	l832
  7617  000A7A  EF5B  F005         u2960:
  7618  000A7E                     	line	194
  7619                           	
  7620                           l2638:
  7621  000A7E                     	movff	(c:___fladd@grs),??___fladd+0+0
  7622  000A7E  C03B  F030         	movlw	07Fh
  7623  000A82  0E7F               	andwf	(??___fladd+0+0),c
  7624  000A84  1630               	btfsc	status,2
  7625  000A86  B4D8               	goto	u2971
  7626  000A88  EF48  F005         	goto	u2970
  7627  000A8C  EF4A  F005         u2971:
  7628  000A90                     	goto	l833
  7629  000A90  EF4E  F005         u2970:
  7630  000A94                     	line	195
  7631                           	
  7632                           l2640:
  7633  000A94                     	movlw	low(01h)
  7634  000A94  0E01               	movwf	((c:___fladd@aexp)),c
  7635  000A96  6E39               	line	196
  7636                           	goto	l832
  7637  000A98  EF5B  F005         	line	197
  7638                           	
  7639                           l833:
  7640  000A9C                     	line	198
  7641                           	
  7642                           	btfss	((c:___fladd@b)),c,(0)&7
  7643  000A9C  A028               	goto	u2981
  7644  000A9E  EF53  F005         	goto	u2980
  7645  000AA2  EF55  F005         u2981:
  7646  000AA6                     	goto	l832
  7647  000AA6  EF5B  F005         u2980:
  7648  000AAA                     	line	199
  7649                           	
  7650                           l2642:
  7651  000AAA                     	movlw	low(01h)
  7652  000AAA  0E01               	movwf	((c:___fladd@aexp)),c
  7653  000AAC  6E39               	goto	l832
  7654  000AAE  EF5B  F005         	line	200
  7655                           	
  7656                           l835:
  7657  000AB2                     	goto	l832
  7658  000AB2  EF5B  F005         	line	201
  7659                           	
  7660                           l834:
  7661  000AB6                     	line	202
  7662                           	
  7663                           l832:
  7664  000AB6                     	line	203
  7665                           	movf	((c:___fladd@aexp)),c,w
  7666  000AB6  5039               	btfsc	status,2
  7667  000AB8  B4D8               	goto	u2991
  7668  000ABA  EF61  F005         	goto	u2990
  7669  000ABE  EF63  F005         u2991:
  7670  000AC2                     	goto	l2652
  7671  000AC2  EF94  F005         u2990:
  7672  000AC6                     	line	204
  7673                           	
  7674                           l2644:
  7675  000AC6                     	movlw	low(01h)
  7676  000AC6  0E01               	addwf	((c:___fladd@b)),c
  7677  000AC8  2628               	movlw	0
  7678  000ACA  0E00               	addwfc	((c:___fladd@b+1)),c
  7679  000ACC  2229               	addwfc	((c:___fladd@b+2)),c
  7680  000ACE  222A               	addwfc	((c:___fladd@b+3)),c
  7681  000AD0  222B               	line	205
  7682                           	
  7683                           l2646:
  7684  000AD2                     	
  7685                           	btfss	((c:___fladd@b+3)),c,(24)&7
  7686  000AD2  A02B               	goto	u3001
  7687  000AD4  EF6E  F005         	goto	u3000
  7688  000AD8  EF70  F005         u3001:
  7689  000ADC                     	goto	l2652
  7690  000ADC  EF94  F005         u3000:
  7691  000AE0                     	line	206
  7692                           	
  7693                           l2648:
  7694  000AE0                     	movff	(c:___fladd@b),??___fladd+0+0
  7695  000AE0  C028  F030         	movff	(c:___fladd@b+1),??___fladd+0+0+1
  7696  000AE4  C029  F031         	movff	(c:___fladd@b+2),??___fladd+0+0+2
  7697  000AE8  C02A  F032         	movff	(c:___fladd@b+3),??___fladd+0+0+3
  7698  000AEC  C02B  F033         	rlcf	(??___fladd+0+3),c,w
  7699  000AF0  3433               	rrcf	(??___fladd+0+3),c
  7700  000AF2  3233               	rrcf	(??___fladd+0+2),c
  7701  000AF4  3232               	rrcf	(??___fladd+0+1),c
  7702  000AF6  3231               	rrcf	(??___fladd+0+0),c
  7703  000AF8  3230               	movff	??___fladd+0+0,(c:___fladd@b)
  7704  000AFA  C030  F028         	movff	??___fladd+0+1,(c:___fladd@b+1)
  7705  000AFE  C031  F029         	movff	??___fladd+0+2,(c:___fladd@b+2)
  7706  000B02  C032  F02A         	movff	??___fladd+0+3,(c:___fladd@b+3)
  7707  000B06  C033  F02B         	line	207
  7708                           		incf	((c:___fladd@bexp)),c,w
  7709  000B0A  283A               	btfsc	status,2
  7710  000B0C  B4D8               	goto	u3011
  7711  000B0E  EF8B  F005         	goto	u3010
  7712  000B12  EF8D  F005         
  7713                           u3011:
  7714  000B16                     	goto	l2652
  7715  000B16  EF94  F005         u3010:
  7716  000B1A                     	line	208
  7717                           	
  7718                           l2650:
  7719  000B1A                     	incf	((c:___fladd@bexp)),c
  7720  000B1A  2A3A               	goto	l2652
  7721  000B1C  EF94  F005         	line	209
  7722                           	
  7723                           l838:
  7724  000B20                     	goto	l2652
  7725  000B20  EF94  F005         	line	210
  7726                           	
  7727                           l837:
  7728  000B24                     	goto	l2652
  7729  000B24  EF94  F005         	line	211
  7730                           	
  7731                           l836:
  7732  000B28                     	line	215
  7733                           	
  7734                           l2652:
  7735  000B28                     		incf	((c:___fladd@bexp)),c,w
  7736  000B28  283A               	btfsc	status,2
  7737  000B2A  B4D8               	goto	u3021
  7738  000B2C  EF9A  F005         	goto	u3020
  7739  000B30  EF9C  F005         
  7740                           u3021:
  7741  000B34                     	goto	l2656
  7742  000B34  EFA6  F005         u3020:
  7743  000B38                     	
  7744                           l2654:
  7745  000B38                     	movf	((c:___fladd@bexp)),c,w
  7746  000B38  503A               	btfss	status,2
  7747  000B3A  A4D8               	goto	u3031
  7748  000B3C  EFA2  F005         	goto	u3030
  7749  000B40  EFA4  F005         u3031:
  7750  000B44                     	goto	l2660
  7751  000B44  EFBC  F005         u3030:
  7752  000B48                     	goto	l2656
  7753  000B48  EFA6  F005         	
  7754                           l841:
  7755  000B4C                     	line	216
  7756                           	
  7757                           l2656:
  7758  000B4C                     	movlw	low(0)
  7759  000B4C  0E00               	movwf	((c:___fladd@b)),c
  7760  000B4E  6E28               	movlw	high(0)
  7761  000B50  0E00               	movwf	((c:___fladd@b+1)),c
  7762  000B52  6E29               	movlw	low highword(0)
  7763  000B54  0E00               	movwf	((c:___fladd@b+2)),c
  7764  000B56  6E2A               	movlw	high highword(0)
  7765  000B58  0E00               	movwf	((c:___fladd@b+3)),c
  7766  000B5A  6E2B               	line	218
  7767                           	movf	((c:___fladd@bexp)),c,w
  7768  000B5C  503A               	btfss	status,2
  7769  000B5E  A4D8               	goto	u3041
  7770  000B60  EFB4  F005         	goto	u3040
  7771  000B64  EFB6  F005         u3041:
  7772  000B68                     	goto	l2660
  7773  000B68  EFBC  F005         u3040:
  7774  000B6C                     	line	219
  7775                           	
  7776                           l2658:
  7777  000B6C                     	movlw	low(0)
  7778  000B6C  0E00               	movwf	((c:___fladd@signs)),c
  7779  000B6E  6E38               	goto	l2660
  7780  000B70  EFBC  F005         	line	220
  7781                           	
  7782                           l842:
  7783  000B74                     	goto	l2660
  7784  000B74  EFBC  F005         	line	221
  7785                           	
  7786                           l839:
  7787  000B78                     	line	225
  7788                           	
  7789                           l2660:
  7790  000B78                     	
  7791                           	btfss	((c:___fladd@bexp)),c,(0)&7
  7792  000B78  A03A               	goto	u3051
  7793  000B7A  EFC1  F005         	goto	u3050
  7794  000B7E  EFC3  F005         u3051:
  7795  000B82                     	goto	l2664
  7796  000B82  EFC6  F005         u3050:
  7797  000B86                     	line	226
  7798                           	
  7799                           l2662:
  7800  000B86                     	bsf	(0+(7/8)+0+((c:___fladd@b)+02h)),c,(7)&7
  7801  000B86  8E2A               	line	227
  7802                           	goto	l2666
  7803  000B88  EFC9  F005         	line	229
  7804                           	
  7805                           l843:
  7806  000B8C                     	line	230
  7807                           	
  7808                           l2664:
  7809  000B8C                     	bcf	(0+(7/8)+0+((c:___fladd@b)+02h)),c,(7)&7
  7810  000B8C  9E2A               	goto	l2666
  7811  000B8E  EFC9  F005         	line	231
  7812                           	
  7813                           l844:
  7814  000B92                     	line	232
  7815                           	
  7816                           l2666:
  7817  000B92                     	bcf	status,0
  7818  000B92  90D8               	rrcf	((c:___fladd@bexp)),c,w
  7819  000B94  303A               	movwf	(0+((c:___fladd@b)+03h)),c
  7820  000B96  6E2B               	line	233
  7821                           	
  7822                           l2668:
  7823  000B98                     	
  7824                           	btfss	((c:___fladd@signs)),c,(7)&7
  7825  000B98  AE38               	goto	u3061
  7826  000B9A  EFD1  F005         	goto	u3060
  7827  000B9E  EFD3  F005         u3061:
  7828  000BA2                     	goto	l2672
  7829  000BA2  EFD6  F005         u3060:
  7830  000BA6                     	line	234
  7831                           	
  7832                           l2670:
  7833  000BA6                     	bsf	(0+(7/8)+0+((c:___fladd@b)+03h)),c,(7)&7
  7834  000BA6  8E2B               	goto	l2672
  7835  000BA8  EFD6  F005         	line	235
  7836                           	
  7837                           l845:
  7838  000BAC                     	line	236
  7839                           	
  7840                           l2672:
  7841  000BAC                     	movff	(c:___fladd@b),(c:?___fladd)
  7842  000BAC  C028  F028         	movff	(c:___fladd@b+1),(c:?___fladd+1)
  7843  000BB0  C029  F029         	movff	(c:___fladd@b+2),(c:?___fladd+2)
  7844  000BB4  C02A  F02A         	movff	(c:___fladd@b+3),(c:?___fladd+3)
  7845  000BB8  C02B  F02B         	goto	l815
  7846  000BBC  EFE0  F005         	
  7847                           l2674:
  7848  000BC0                     	line	237
  7849                           	
  7850                           l815:
  7851  000BC0                     	return	;funcret
  7852  000BC0  0012               	opt stack 0
  7853                           GLOBAL	__end_of___fladd
  7854                           	__end_of___fladd:
  7855  000BC2                     	signat	___fladd,8316
  7856                           	global	_Timer_Init
  7857                           
  7858 ;; *************** function _Timer_Init *****************
  7859 ;; Defined at:
  7860 ;;		line 73 in file "main.c"
  7861 ;; Parameters:    Size  Location     Type
  7862 ;;		None
  7863 ;; Auto vars:     Size  Location     Type
  7864 ;;		None
  7865 ;; Return value:  Size  Location     Type
  7866 ;;                  1    wreg      void 
  7867 ;; Registers used:
  7868 ;;		wreg, status,2
  7869 ;; Tracked objects:
  7870 ;;		On entry : 0/0
  7871 ;;		On exit  : 0/0
  7872 ;;		Unchanged: 0/0
  7873 ;; Data sizes:     COMRAM   BANK0   BANK1   BANK2   BANK3   BANK4   BANK5
  7874 ;;      Params:         0       0       0       0       0       0       0
  7875 ;;      Locals:         0       0       0       0       0       0       0
  7876 ;;      Temps:          0       0       0       0       0       0       0
  7877 ;;      Totals:         0       0       0       0       0       0       0
  7878 ;;Total ram usage:        0 bytes
  7879 ;; Hardware stack levels used:    1
  7880 ;; Hardware stack levels required when called:    1
  7881 ;; This function calls:
  7882 ;;		Nothing
  7883 ;; This function is called by:
  7884 ;;		_main
  7885 ;; This function uses a non-reentrant model
  7886 ;;
  7887                           psect	text20,class=CODE,space=0,reloc=2,group=0
  7888                           	file	"main.c"
  7889                           	line	73
  7890                           global __ptext20
  7891                           __ptext20:
  7892  00300C                     psect	text20
  7893                           	file	"main.c"
  7894                           	line	73
  7895                           	global	__size_of_Timer_Init
  7896                           	__size_of_Timer_Init	equ	__end_of_Timer_Init-_Timer_Init
  7897  0000                     	
  7898                           _Timer_Init:
  7899  00300C                     ;incstack = 0
  7900                           	opt	stack 29
  7901                           	line	75
  7902                           	
  7903                           l3156:
  7904  00300C                     ;main.c: 75:     TRISAbits.RA4 = 1;
  7905                           	bsf	((c:3986)),c,4	;volatile
  7906  00300C  8892               	line	76
  7907                           	
  7908                           l3158:
  7909  00300E                     ;main.c: 76:     T0CON = 0x28;
  7910                           	movlw	low(028h)
  7911  00300E  0E28               	movwf	((c:4053)),c	;volatile
  7912  003010  6ED5               	line	77
  7913                           	
  7914                           l3160:
  7915  003012                     ;main.c: 77:     TMR0IE = 1;
  7916                           	bsf	c:(32661/8),(32661)&7	;volatile
  7917  003012  8AF2               	line	78
  7918                           	
  7919                           l3162:
  7920  003014                     ;main.c: 78:     TMR0IF = 0;
  7921                           	bcf	c:(32658/8),(32658)&7	;volatile
  7922  003014  94F2               	line	79
  7923                           	
  7924                           l3164:
  7925  003016                     ;main.c: 79:     INTCONbits.GIE=1;
  7926                           	bsf	((c:4082)),c,7	;volatile
  7927  003016  8EF2               	line	80
  7928                           	
  7929                           l3166:
  7930  003018                     ;main.c: 80:     INTCONbits.PEIE=1;
  7931                           	bsf	((c:4082)),c,6	;volatile
  7932  003018  8CF2               	line	81
  7933                           	
  7934                           l138:
  7935  00301A                     	return	;funcret
  7936  00301A  0012               	opt stack 0
  7937                           GLOBAL	__end_of_Timer_Init
  7938                           	__end_of_Timer_Init:
  7939  00301C                     	signat	_Timer_Init,89
  7940                           	global	_OSCILLATOR_Initialize
  7941                           
  7942 ;; *************** function _OSCILLATOR_Initialize *****************
  7943 ;; Defined at:
  7944 ;;		line 83 in file "main.c"
  7945 ;; Parameters:    Size  Location     Type
  7946 ;;		None
  7947 ;; Auto vars:     Size  Location     Type
  7948 ;;		None
  7949 ;; Return value:  Size  Location     Type
  7950 ;;                  1    wreg      void 
  7951 ;; Registers used:
  7952 ;;		wreg, status,2
  7953 ;; Tracked objects:
  7954 ;;		On entry : 0/0
  7955 ;;		On exit  : 0/0
  7956 ;;		Unchanged: 0/0
  7957 ;; Data sizes:     COMRAM   BANK0   BANK1   BANK2   BANK3   BANK4   BANK5
  7958 ;;      Params:         0       0       0       0       0       0       0
  7959 ;;      Locals:         0       0       0       0       0       0       0
  7960 ;;      Temps:          0       0       0       0       0       0       0
  7961 ;;      Totals:         0       0       0       0       0       0       0
  7962 ;;Total ram usage:        0 bytes
  7963 ;; Hardware stack levels used:    1
  7964 ;; Hardware stack levels required when called:    1
  7965 ;; This function calls:
  7966 ;;		Nothing
  7967 ;; This function is called by:
  7968 ;;		_main
  7969 ;; This function uses a non-reentrant model
  7970 ;;
  7971                           psect	text21,class=CODE,space=0,reloc=2,group=0
  7972                           	line	83
  7973                           global __ptext21
  7974                           __ptext21:
  7975  00301C                     psect	text21
  7976                           	file	"main.c"
  7977                           	line	83
  7978                           	global	__size_of_OSCILLATOR_Initialize
  7979                           	__size_of_OSCILLATOR_Initialize	equ	__end_of_OSCILLATOR_Initialize-_OSCILLATOR_Initiali
                                 ze
  7980  0000                     	
  7981                           _OSCILLATOR_Initialize:
  7982  00301C                     ;incstack = 0
  7983                           	opt	stack 29
  7984                           	line	85
  7985                           	
  7986                           l3168:
  7987  00301C                     ;main.c: 85:     IRCF2 = 1;
  7988                           	bsf	c:(32414/8),(32414)&7	;volatile
  7989  00301C  8CD3               	line	86
  7990                           ;main.c: 86:     IRCF1 = 1;
  7991                           	bsf	c:(32413/8),(32413)&7	;volatile
  7992  00301E  8AD3               	line	87
  7993                           ;main.c: 87:     IRCF0 = 1;
  7994                           	bsf	c:(32412/8),(32412)&7	;volatile
  7995  003020  88D3               	line	88
  7996                           	
  7997                           l3170:
  7998  003022                     ;main.c: 88:     RCON = 0x0000;
  7999                           	movlw	low(0)
  8000  003022  0E00               	movwf	((c:4048)),c	;volatile
  8001  003024  6ED0               	line	89
  8002                           	
  8003                           l141:
  8004  003026                     	return	;funcret
  8005  003026  0012               	opt stack 0
  8006                           GLOBAL	__end_of_OSCILLATOR_Initialize
  8007                           	__end_of_OSCILLATOR_Initialize:
  8008  003028                     	signat	_OSCILLATOR_Initialize,89
  8009                           	global	_MapRGB
  8010                           
  8011 ;; *************** function _MapRGB *****************
  8012 ;; Defined at:
  8013 ;;		line 103 in file "main.c"
  8014 ;; Parameters:    Size  Location     Type
  8015 ;;  min             4   74[COMRAM] unsigned long 
  8016 ;;  max             4   78[COMRAM] unsigned long 
  8017 ;;  count           4   82[COMRAM] unsigned long 
  8018 ;; Auto vars:     Size  Location     Type
  8019 ;;  val             2   94[COMRAM] unsigned int 
  8020 ;; Return value:  Size  Location     Type
  8021 ;;                  2   74[COMRAM] unsigned int 
  8022 ;; Registers used:
  8023 ;;		wreg, status,2, status,0, prodl, prodh, cstack
  8024 ;; Tracked objects:
  8025 ;;		On entry : 0/0
  8026 ;;		On exit  : 0/0
  8027 ;;		Unchanged: 0/0
  8028 ;; Data sizes:     COMRAM   BANK0   BANK1   BANK2   BANK3   BANK4   BANK5
  8029 ;;      Params:        12       0       0       0       0       0       0
  8030 ;;      Locals:         2       0       0       0       0       0       0
  8031 ;;      Temps:          8       0       0       0       0       0       0
  8032 ;;      Totals:        22       0       0       0       0       0       0
  8033 ;;Total ram usage:       22 bytes
  8034 ;; Hardware stack levels used:    1
  8035 ;; Hardware stack levels required when called:    2
  8036 ;; This function calls:
  8037 ;;		___fldiv
  8038 ;;		___flmul
  8039 ;;		___fltol
  8040 ;;		___xxtofl
  8041 ;; This function is called by:
  8042 ;;		_main
  8043 ;; This function uses a non-reentrant model
  8044 ;;
  8045                           psect	text22,class=CODE,space=0,reloc=2,group=0
  8046                           	line	103
  8047                           global __ptext22
  8048                           __ptext22:
  8049  0028AC                     psect	text22
  8050                           	file	"main.c"
  8051                           	line	103
  8052                           	global	__size_of_MapRGB
  8053                           	__size_of_MapRGB	equ	__end_of_MapRGB-_MapRGB
  8054  0000                     	
  8055                           _MapRGB:
  8056  0028AC                     ;incstack = 0
  8057                           	opt	stack 28
  8058                           	line	106
  8059                           	
  8060                           l3198:
  8061  0028AC                     ;main.c: 103: unsigned int MapRGB(unsigned long min, unsigned long max,unsigned long cou
                                 nt);main.c: 104: {;main.c: 105:     unsigned int val;;main.c: 106:     val = 255*(float)
                                 ((float)(count - min)/(float)(max-min));
  8062                           	movlw	low(normalize32(0x437f0000))
  8063  0028AC  0E00               	movwf	((c:___flmul@a)),c
  8064  0028AE  6E2C               	movlw	high(normalize32(0x437f0000))
  8065  0028B0  0E00               	movwf	((c:___flmul@a+1)),c
  8066  0028B2  6E2D               	movlw	low highword(normalize32(0x437f0000))
  8067  0028B4  0E7F               	movwf	((c:___flmul@a+2)),c
  8068  0028B6  6E2E               	movlw	high highword(normalize32(0x437f0000))
  8069  0028B8  0E43               	movwf	((c:___flmul@a+3)),c
  8070  0028BA  6E2F               	movff	(c:MapRGB@min),??_MapRGB+0+0
  8071  0028BC  C04B  F057         	movff	(c:MapRGB@min+1),??_MapRGB+0+0+1
  8072  0028C0  C04C  F058         	movff	(c:MapRGB@min+2),??_MapRGB+0+0+2
  8073  0028C4  C04D  F059         	movff	(c:MapRGB@min+3),??_MapRGB+0+0+3
  8074  0028C8  C04E  F05A         	comf	(??_MapRGB+0+0),c
  8075  0028CC  1E57               	comf	(??_MapRGB+0+1),c
  8076  0028CE  1E58               	comf	(??_MapRGB+0+2),c
  8077  0028D0  1E59               	comf	(??_MapRGB+0+3),c
  8078  0028D2  1E5A               	incf	(??_MapRGB+0+0),c
  8079  0028D4  2A57               	movlw	0
  8080  0028D6  0E00               	addwfc	(??_MapRGB+0+1),c
  8081  0028D8  2258               	addwfc	(??_MapRGB+0+2),c
  8082  0028DA  2259               	addwfc	(??_MapRGB+0+3),c
  8083  0028DC  225A               	movf	((c:MapRGB@max)),c,w
  8084  0028DE  504F               	addwf	(??_MapRGB+0+0),c,w
  8085  0028E0  2457               	movwf	((c:___xxtofl@val)),c
  8086  0028E2  6E01               	movf	((c:MapRGB@max+1)),c,w
  8087  0028E4  5050               	addwfc	(??_MapRGB+0+1),c,w
  8088  0028E6  2058               	movwf	1+((c:___xxtofl@val)),c
  8089  0028E8  6E02               	
  8090                           	movf	((c:MapRGB@max+2)),c,w
  8091  0028EA  5051               	addwfc	(??_MapRGB+0+2),c,w
  8092  0028EC  2059               	movwf	2+((c:___xxtofl@val)),c
  8093  0028EE  6E03               	
  8094                           	movf	((c:MapRGB@max+3)),c,w
  8095  0028F0  5052               	addwfc	(??_MapRGB+0+3),c,w
  8096  0028F2  205A               	movwf	3+((c:___xxtofl@val)),c
  8097  0028F4  6E04               	movlw	(0)&0ffh
  8098  0028F6  0E00               	
  8099                           	call	___xxtofl
  8100  0028F8  EC5C  F00F         	movff	0+?___xxtofl,(c:___fldiv@a)
  8101  0028FC  C001  F013         	movff	1+?___xxtofl,(c:___fldiv@a+1)
  8102  002900  C002  F014         	movff	2+?___xxtofl,(c:___fldiv@a+2)
  8103  002904  C003  F015         	movff	3+?___xxtofl,(c:___fldiv@a+3)
  8104  002908  C004  F016         	
  8105                           	movff	(c:MapRGB@min),??_MapRGB+4+0
  8106  00290C  C04B  F05B         	movff	(c:MapRGB@min+1),??_MapRGB+4+0+1
  8107  002910  C04C  F05C         	movff	(c:MapRGB@min+2),??_MapRGB+4+0+2
  8108  002914  C04D  F05D         	movff	(c:MapRGB@min+3),??_MapRGB+4+0+3
  8109  002918  C04E  F05E         	comf	(??_MapRGB+4+0),c
  8110  00291C  1E5B               	comf	(??_MapRGB+4+1),c
  8111  00291E  1E5C               	comf	(??_MapRGB+4+2),c
  8112  002920  1E5D               	comf	(??_MapRGB+4+3),c
  8113  002922  1E5E               	incf	(??_MapRGB+4+0),c
  8114  002924  2A5B               	movlw	0
  8115  002926  0E00               	addwfc	(??_MapRGB+4+1),c
  8116  002928  225C               	addwfc	(??_MapRGB+4+2),c
  8117  00292A  225D               	addwfc	(??_MapRGB+4+3),c
  8118  00292C  225E               	movf	((c:MapRGB@count)),c,w
  8119  00292E  5053               	addwf	(??_MapRGB+4+0),c,w
  8120  002930  245B               	movwf	((c:___xxtofl@val)),c
  8121  002932  6E01               	movf	((c:MapRGB@count+1)),c,w
  8122  002934  5054               	addwfc	(??_MapRGB+4+1),c,w
  8123  002936  205C               	movwf	1+((c:___xxtofl@val)),c
  8124  002938  6E02               	
  8125                           	movf	((c:MapRGB@count+2)),c,w
  8126  00293A  5055               	addwfc	(??_MapRGB+4+2),c,w
  8127  00293C  205D               	movwf	2+((c:___xxtofl@val)),c
  8128  00293E  6E03               	
  8129                           	movf	((c:MapRGB@count+3)),c,w
  8130  002940  5056               	addwfc	(??_MapRGB+4+3),c,w
  8131  002942  205E               	movwf	3+((c:___xxtofl@val)),c
  8132  002944  6E04               	movlw	(0)&0ffh
  8133  002946  0E00               	
  8134                           	call	___xxtofl
  8135  002948  EC5C  F00F         	movff	0+?___xxtofl,(c:___fldiv@b)
  8136  00294C  C001  F00F         	movff	1+?___xxtofl,(c:___fldiv@b+1)
  8137  002950  C002  F010         	movff	2+?___xxtofl,(c:___fldiv@b+2)
  8138  002954  C003  F011         	movff	3+?___xxtofl,(c:___fldiv@b+3)
  8139  002958  C004  F012         	
  8140                           	call	___fldiv	;wreg free
  8141  00295C  EC9D  F00A         	movff	0+?___fldiv,(c:___flmul@b)
  8142  002960  C00F  F028         	movff	1+?___fldiv,(c:___flmul@b+1)
  8143  002964  C010  F029         	movff	2+?___fldiv,(c:___flmul@b+2)
  8144  002968  C011  F02A         	movff	3+?___fldiv,(c:___flmul@b+3)
  8145  00296C  C012  F02B         	
  8146                           	call	___flmul	;wreg free
  8147  002970  EC66  F008         	movff	0+?___flmul,(c:___fltol@f1)
  8148  002974  C028  F041         	movff	1+?___flmul,(c:___fltol@f1+1)
  8149  002978  C029  F042         	movff	2+?___flmul,(c:___fltol@f1+2)
  8150  00297C  C02A  F043         	movff	3+?___flmul,(c:___fltol@f1+3)
  8151  002980  C02B  F044         	
  8152                           	call	___fltol	;wreg free
  8153  002984  ECAD  F013         	movff	0+?___fltol,(c:MapRGB@val)
  8154  002988  C041  F05F         	movff	1+?___fltol,(c:MapRGB@val+1)
  8155  00298C  C042  F060         	line	107
  8156                           	
  8157                           l3200:
  8158  002990                     ;main.c: 107:     return val;
  8159                           	movff	(c:MapRGB@val),(c:?_MapRGB)
  8160  002990  C05F  F04B         	movff	(c:MapRGB@val+1),(c:?_MapRGB+1)
  8161  002994  C060  F04C         	goto	l147
  8162  002998  EFCE  F014         	
  8163                           l3202:
  8164  00299C                     	line	108
  8165                           	
  8166                           l147:
  8167  00299C                     	return	;funcret
  8168  00299C  0012               	opt stack 0
  8169                           GLOBAL	__end_of_MapRGB
  8170                           	__end_of_MapRGB:
  8171  00299E                     	signat	_MapRGB,12410
  8172                           	global	___xxtofl
  8173                           
  8174 ;; *************** function ___xxtofl *****************
  8175 ;; Defined at:
  8176 ;;		line 10 in file "C:\Program Files (x86)\Microchip\xc8\v2.00\pic\sources\c99\common\xxtofl.c"
  8177 ;; Parameters:    Size  Location     Type
  8178 ;;  sign            1    wreg     unsigned char 
  8179 ;;  val             4    0[COMRAM] long 
  8180 ;; Auto vars:     Size  Location     Type
  8181 ;;  sign            1    8[COMRAM] unsigned char 
  8182 ;;  arg             4   10[COMRAM] unsigned long 
  8183 ;;  exp             1    9[COMRAM] unsigned char 
  8184 ;; Return value:  Size  Location     Type
  8185 ;;                  4    0[COMRAM] unsigned char 
  8186 ;; Registers used:
  8187 ;;		wreg, status,2, status,0
  8188 ;; Tracked objects:
  8189 ;;		On entry : 0/0
  8190 ;;		On exit  : 0/0
  8191 ;;		Unchanged: 0/0
  8192 ;; Data sizes:     COMRAM   BANK0   BANK1   BANK2   BANK3   BANK4   BANK5
  8193 ;;      Params:         4       0       0       0       0       0       0
  8194 ;;      Locals:         6       0       0       0       0       0       0
  8195 ;;      Temps:          4       0       0       0       0       0       0
  8196 ;;      Totals:        14       0       0       0       0       0       0
  8197 ;;Total ram usage:       14 bytes
  8198 ;; Hardware stack levels used:    1
  8199 ;; Hardware stack levels required when called:    1
  8200 ;; This function calls:
  8201 ;;		Nothing
  8202 ;; This function is called by:
  8203 ;;		_MapRGB
  8204 ;;		_USART_Init
  8205 ;; This function uses a non-reentrant model
  8206 ;;
  8207                           psect	text23,class=CODE,space=0,reloc=2,group=1
  8208                           	file	"C:\Program Files (x86)\Microchip\xc8\v2.00\pic\sources\c99\common\xxtofl.c"
  8209                           	line	10
  8210                           global __ptext23
  8211                           __ptext23:
  8212  001EB8                     psect	text23
  8213                           	file	"C:\Program Files (x86)\Microchip\xc8\v2.00\pic\sources\c99\common\xxtofl.c"
  8214                           	line	10
  8215                           	global	__size_of___xxtofl
  8216                           	__size_of___xxtofl	equ	__end_of___xxtofl-___xxtofl
  8217  0000                     	
  8218                           ___xxtofl:
  8219  001EB8                     ;incstack = 0
  8220                           	opt	stack 28
  8221                           ;___xxtofl@sign stored from wreg
  8222                           	movwf	((c:___xxtofl@sign)),c
  8223  001EB8  6E09               	line	15
  8224                           	
  8225                           l2988:
  8226  001EBA                     	movf	((c:___xxtofl@sign)),c,w
  8227  001EBA  5009               	btfsc	status,2
  8228  001EBC  B4D8               	goto	u3561
  8229  001EBE  EF63  F00F         	goto	u3560
  8230  001EC2  EF65  F00F         u3561:
  8231  001EC6                     	goto	l933
  8232  001EC6  EF87  F00F         u3560:
  8233  001ECA                     	
  8234                           l2990:
  8235  001ECA                     	btfsc	((c:___xxtofl@val+3)),c,7
  8236  001ECA  BE04               	goto	u3570
  8237  001ECC  EF6C  F00F         	goto	u3571
  8238  001ED0  EF6A  F00F         
  8239                           u3571:
  8240  001ED4                     	goto	l933
  8241  001ED4  EF87  F00F         u3570:
  8242  001ED8                     	line	16
  8243                           	
  8244                           l2992:
  8245  001ED8                     	movff	(c:___xxtofl@val),??___xxtofl+0+0
  8246  001ED8  C001  F005         	movff	(c:___xxtofl@val+1),??___xxtofl+0+0+1
  8247  001EDC  C002  F006         	movff	(c:___xxtofl@val+2),??___xxtofl+0+0+2
  8248  001EE0  C003  F007         	movff	(c:___xxtofl@val+3),??___xxtofl+0+0+3
  8249  001EE4  C004  F008         	comf	(??___xxtofl+0+0),c
  8250  001EE8  1E05               	comf	(??___xxtofl+0+1),c
  8251  001EEA  1E06               	comf	(??___xxtofl+0+2),c
  8252  001EEC  1E07               	comf	(??___xxtofl+0+3),c
  8253  001EEE  1E08               	incf	(??___xxtofl+0+0),c
  8254  001EF0  2A05               	movlw	0
  8255  001EF2  0E00               	addwfc	(??___xxtofl+0+1),c
  8256  001EF4  2206               	addwfc	(??___xxtofl+0+2),c
  8257  001EF6  2207               	addwfc	(??___xxtofl+0+3),c
  8258  001EF8  2208               	movff	??___xxtofl+0+0,(c:___xxtofl@arg)
  8259  001EFA  C005  F00B         	movff	??___xxtofl+0+1,(c:___xxtofl@arg+1)
  8260  001EFE  C006  F00C         	movff	??___xxtofl+0+2,(c:___xxtofl@arg+2)
  8261  001F02  C007  F00D         	movff	??___xxtofl+0+3,(c:___xxtofl@arg+3)
  8262  001F06  C008  F00E         	line	17
  8263                           	goto	l2994
  8264  001F0A  EF91  F00F         	line	18
  8265                           	
  8266                           l933:
  8267  001F0E                     	line	19
  8268                           	movff	(c:___xxtofl@val),(c:___xxtofl@arg)
  8269  001F0E  C001  F00B         	movff	(c:___xxtofl@val+1),(c:___xxtofl@arg+1)
  8270  001F12  C002  F00C         	movff	(c:___xxtofl@val+2),(c:___xxtofl@arg+2)
  8271  001F16  C003  F00D         	movff	(c:___xxtofl@val+3),(c:___xxtofl@arg+3)
  8272  001F1A  C004  F00E         	goto	l2994
  8273  001F1E  EF91  F00F         	line	20
  8274                           	
  8275                           l934:
  8276  001F22                     	line	21
  8277                           	
  8278                           l2994:
  8279  001F22                     	movf	((c:___xxtofl@val)),c,w
  8280  001F22  5001               iorwf	((c:___xxtofl@val+1)),c,w
  8281  001F24  1002               iorwf	((c:___xxtofl@val+2)),c,w
  8282  001F26  1003               iorwf	((c:___xxtofl@val+3)),c,w
  8283  001F28  1004               	btfss	status,2
  8284  001F2A  A4D8               	goto	u3581
  8285  001F2C  EF9A  F00F         	goto	u3580
  8286  001F30  EF9C  F00F         
  8287                           u3581:
  8288  001F34                     	goto	l3000
  8289  001F34  EFA8  F00F         u3580:
  8290  001F38                     	line	22
  8291                           	
  8292                           l2996:
  8293  001F38                     	movlw	low(normalize32(0x0))
  8294  001F38  0E00               	movwf	((c:?___xxtofl)),c
  8295  001F3A  6E01               	movlw	high(normalize32(0x0))
  8296  001F3C  0E00               	movwf	((c:?___xxtofl+1)),c
  8297  001F3E  6E02               	movlw	low highword(normalize32(0x0))
  8298  001F40  0E00               	movwf	((c:?___xxtofl+2)),c
  8299  001F42  6E03               	movlw	high highword(normalize32(0x0))
  8300  001F44  0E00               	movwf	((c:?___xxtofl+3)),c
  8301  001F46  6E04               	goto	l936
  8302  001F48  EF49  F010         	
  8303                           l2998:
  8304  001F4C                     	goto	l936
  8305  001F4C  EF49  F010         	
  8306                           l935:
  8307  001F50                     	line	23
  8308                           	
  8309                           l3000:
  8310  001F50                     	movlw	low(096h)
  8311  001F50  0E96               	movwf	((c:___xxtofl@exp)),c
  8312  001F52  6E0A               	line	24
  8313                           	goto	l3004
  8314  001F54  EFB4  F00F         	
  8315                           l938:
  8316  001F58                     	line	25
  8317                           	
  8318                           l3002:
  8319  001F58                     	incf	((c:___xxtofl@exp)),c
  8320  001F58  2A0A               	line	26
  8321                           	bcf	status,0
  8322  001F5A  90D8               	rrcf	((c:___xxtofl@arg+3)),c
  8323  001F5C  320E               	rrcf	((c:___xxtofl@arg+2)),c
  8324  001F5E  320D               	rrcf	((c:___xxtofl@arg+1)),c
  8325  001F60  320C               	rrcf	((c:___xxtofl@arg)),c
  8326  001F62  320B               	goto	l3004
  8327  001F64  EFB4  F00F         	line	27
  8328                           	
  8329                           l937:
  8330  001F68                     	line	24
  8331                           	
  8332                           l3004:
  8333  001F68                     	movlw	0
  8334  001F68  0E00               	andwf	((c:___xxtofl@arg)),c,w
  8335  001F6A  140B               	movwf	(??___xxtofl+0+0)&0ffh,c
  8336  001F6C  6E05               	movlw	0
  8337  001F6E  0E00               	andwf	((c:___xxtofl@arg+1)),c,w
  8338  001F70  140C               	movwf	1+(??___xxtofl+0+0)&0ffh,c
  8339  001F72  6E06               	
  8340                           	movlw	0
  8341  001F74  0E00               	andwf	((c:___xxtofl@arg+2)),c,w
  8342  001F76  140D               	movwf	2+(??___xxtofl+0+0)&0ffh,c
  8343  001F78  6E07               	
  8344                           	movlw	0FEh
  8345  001F7A  0EFE               	andwf	((c:___xxtofl@arg+3)),c,w
  8346  001F7C  140E               	movwf	3+(??___xxtofl+0+0)&0ffh,c
  8347  001F7E  6E08               	movf	(??___xxtofl+0+0),c,w
  8348  001F80  5005               iorwf	(??___xxtofl+0+1),c,w
  8349  001F82  1006               iorwf	(??___xxtofl+0+2),c,w
  8350  001F84  1007               iorwf	(??___xxtofl+0+3),c,w
  8351  001F86  1008               	btfss	status,2
  8352  001F88  A4D8               	goto	u3591
  8353  001F8A  EFC9  F00F         	goto	u3590
  8354  001F8E  EFCB  F00F         
  8355                           u3591:
  8356  001F92                     	goto	l3002
  8357  001F92  EFAC  F00F         u3590:
  8358  001F96                     	goto	l940
  8359  001F96  EFDB  F00F         	
  8360                           l939:
  8361  001F9A                     	line	28
  8362                           	goto	l940
  8363  001F9A  EFDB  F00F         	
  8364                           l941:
  8365  001F9E                     	line	29
  8366                           	
  8367                           l3006:
  8368  001F9E                     	incf	((c:___xxtofl@exp)),c
  8369  001F9E  2A0A               	line	30
  8370                           	
  8371                           l3008:
  8372  001FA0                     	movlw	low(01h)
  8373  001FA0  0E01               	addwf	((c:___xxtofl@arg)),c
  8374  001FA2  260B               	movlw	0
  8375  001FA4  0E00               	addwfc	((c:___xxtofl@arg+1)),c
  8376  001FA6  220C               	addwfc	((c:___xxtofl@arg+2)),c
  8377  001FA8  220D               	addwfc	((c:___xxtofl@arg+3)),c
  8378  001FAA  220E               	line	31
  8379                           	
  8380                           l3010:
  8381  001FAC                     	bcf	status,0
  8382  001FAC  90D8               	rrcf	((c:___xxtofl@arg+3)),c
  8383  001FAE  320E               	rrcf	((c:___xxtofl@arg+2)),c
  8384  001FB0  320D               	rrcf	((c:___xxtofl@arg+1)),c
  8385  001FB2  320C               	rrcf	((c:___xxtofl@arg)),c
  8386  001FB4  320B               	line	32
  8387                           	
  8388                           l940:
  8389  001FB6                     	line	28
  8390                           	movlw	0
  8391  001FB6  0E00               	andwf	((c:___xxtofl@arg)),c,w
  8392  001FB8  140B               	movwf	(??___xxtofl+0+0)&0ffh,c
  8393  001FBA  6E05               	movlw	0
  8394  001FBC  0E00               	andwf	((c:___xxtofl@arg+1)),c,w
  8395  001FBE  140C               	movwf	1+(??___xxtofl+0+0)&0ffh,c
  8396  001FC0  6E06               	
  8397                           	movlw	0
  8398  001FC2  0E00               	andwf	((c:___xxtofl@arg+2)),c,w
  8399  001FC4  140D               	movwf	2+(??___xxtofl+0+0)&0ffh,c
  8400  001FC6  6E07               	
  8401                           	movlw	0FFh
  8402  001FC8  0EFF               	andwf	((c:___xxtofl@arg+3)),c,w
  8403  001FCA  140E               	movwf	3+(??___xxtofl+0+0)&0ffh,c
  8404  001FCC  6E08               	movf	(??___xxtofl+0+0),c,w
  8405  001FCE  5005               iorwf	(??___xxtofl+0+1),c,w
  8406  001FD0  1006               iorwf	(??___xxtofl+0+2),c,w
  8407  001FD2  1007               iorwf	(??___xxtofl+0+3),c,w
  8408  001FD4  1008               	btfss	status,2
  8409  001FD6  A4D8               	goto	u3601
  8410  001FD8  EFF0  F00F         	goto	u3600
  8411  001FDC  EFF2  F00F         
  8412                           u3601:
  8413  001FE0                     	goto	l3006
  8414  001FE0  EFCF  F00F         u3600:
  8415  001FE4                     	goto	l3014
  8416  001FE4  EFFE  F00F         	
  8417                           l942:
  8418  001FE8                     	line	33
  8419                           	goto	l3014
  8420  001FE8  EFFE  F00F         	
  8421                           l944:
  8422  001FEC                     	line	34
  8423                           	
  8424                           l3012:
  8425  001FEC                     	decf	((c:___xxtofl@exp)),c
  8426  001FEC  060A               	line	35
  8427                           	bcf	status,0
  8428  001FEE  90D8               	rlcf	((c:___xxtofl@arg)),c
  8429  001FF0  360B               	rlcf	((c:___xxtofl@arg+1)),c
  8430  001FF2  360C               	rlcf	((c:___xxtofl@arg+2)),c
  8431  001FF4  360D               	rlcf	((c:___xxtofl@arg+3)),c
  8432  001FF6  360E               	goto	l3014
  8433  001FF8  EFFE  F00F         	line	36
  8434                           	
  8435                           l943:
  8436  001FFC                     	line	33
  8437                           	
  8438                           l3014:
  8439  001FFC                     	
  8440                           	btfsc	((c:___xxtofl@arg+2)),c,(23)&7
  8441  001FFC  BE0D               	goto	u3611
  8442  001FFE  EF03  F010         	goto	u3610
  8443  002002  EF05  F010         u3611:
  8444  002006                     	goto	l947
  8445  002006  EF0F  F010         u3610:
  8446  00200A                     	
  8447                           l3016:
  8448  00200A                     		movlw	02h-0
  8449  00200A  0E02               	cpfslt	((c:___xxtofl@exp)),c
  8450  00200C  600A               	goto	u3621
  8451  00200E  EF0B  F010         	goto	u3620
  8452  002012  EF0D  F010         
  8453                           u3621:
  8454  002016                     	goto	l3012
  8455  002016  EFF6  F00F         u3620:
  8456  00201A                     	goto	l947
  8457  00201A  EF0F  F010         	
  8458                           l946:
  8459  00201E                     	
  8460                           l947:
  8461  00201E                     	line	37
  8462                           	
  8463                           	btfsc	((c:___xxtofl@exp)),c,(0)&7
  8464  00201E  B00A               	goto	u3631
  8465  002020  EF14  F010         	goto	u3630
  8466  002024  EF16  F010         u3631:
  8467  002028                     	goto	l3020
  8468  002028  EF19  F010         u3630:
  8469  00202C                     	line	38
  8470                           	
  8471                           l3018:
  8472  00202C                     	bcf	(0+(23/8)+(c:___xxtofl@arg)),c,(23)&7
  8473  00202C  9E0D               	goto	l3020
  8474  00202E  EF19  F010         	
  8475                           l948:
  8476  002032                     	line	39
  8477                           	
  8478                           l3020:
  8479  002032                     	bcf status,0
  8480  002032  90D8               	rrcf	((c:___xxtofl@exp)),c
  8481  002034  320A               
  8482                           	line	40
  8483                           	
  8484                           l3022:
  8485  002036                     	movff	(c:___xxtofl@exp),??___xxtofl+0+0
  8486  002036  C00A  F005         	clrf	(??___xxtofl+0+0+1)&0ffh,c
  8487  00203A  6A06               	clrf	(??___xxtofl+0+0+2)&0ffh,c
  8488  00203C  6A07               	clrf	(??___xxtofl+0+0+3)&0ffh,c
  8489  00203E  6A08               	movff	??___xxtofl+0+0,??___xxtofl+0+3
  8490  002040  C005  F008         	clrf	(??___xxtofl+0+2),c
  8491  002044  6A07               	clrf	(??___xxtofl+0+1),c
  8492  002046  6A06               	clrf	(??___xxtofl+0+0),c
  8493  002048  6A05               	movf	(??___xxtofl+0+0),c,w
  8494  00204A  5005               	iorwf	((c:___xxtofl@arg)),c
  8495  00204C  120B               	movf	(??___xxtofl+0+1),c,w
  8496  00204E  5006               	iorwf	((c:___xxtofl@arg+1)),c
  8497  002050  120C               	movf	(??___xxtofl+0+2),c,w
  8498  002052  5007               	iorwf	((c:___xxtofl@arg+2)),c
  8499  002054  120D               	movf	(??___xxtofl+0+3),c,w
  8500  002056  5008               	iorwf	((c:___xxtofl@arg+3)),c
  8501  002058  120E               
  8502                           	line	41
  8503                           	
  8504                           l3024:
  8505  00205A                     	movf	((c:___xxtofl@sign)),c,w
  8506  00205A  5009               	btfsc	status,2
  8507  00205C  B4D8               	goto	u3641
  8508  00205E  EF33  F010         	goto	u3640
  8509  002062  EF35  F010         u3641:
  8510  002066                     	goto	l3030
  8511  002066  EF3F  F010         u3640:
  8512  00206A                     	
  8513                           l3026:
  8514  00206A                     	btfsc	((c:___xxtofl@val+3)),c,7
  8515  00206A  BE04               	goto	u3650
  8516  00206C  EF3C  F010         	goto	u3651
  8517  002070  EF3A  F010         
  8518                           u3651:
  8519  002074                     	goto	l3030
  8520  002074  EF3F  F010         u3650:
  8521  002078                     	line	42
  8522                           	
  8523                           l3028:
  8524  002078                     	bsf	(0+(31/8)+(c:___xxtofl@arg)),c,(31)&7
  8525  002078  8E0E               	goto	l3030
  8526  00207A  EF3F  F010         	
  8527                           l949:
  8528  00207E                     	line	43
  8529                           	
  8530                           l3030:
  8531  00207E                     	movff	(c:___xxtofl@arg),(c:?___xxtofl)
  8532  00207E  C00B  F001         	movff	(c:___xxtofl@arg+1),(c:?___xxtofl+1)
  8533  002082  C00C  F002         	movff	(c:___xxtofl@arg+2),(c:?___xxtofl+2)
  8534  002086  C00D  F003         	movff	(c:___xxtofl@arg+3),(c:?___xxtofl+3)
  8535  00208A  C00E  F004         	goto	l936
  8536  00208E  EF49  F010         	
  8537                           l3032:
  8538  002092                     	line	44
  8539                           	
  8540                           l936:
  8541  002092                     	return	;funcret
  8542  002092  0012               	opt stack 0
  8543                           GLOBAL	__end_of___xxtofl
  8544                           	__end_of___xxtofl:
  8545  002094                     	signat	___xxtofl,8316
  8546                           	global	___fltol
  8547                           
  8548 ;; *************** function ___fltol *****************
  8549 ;; Defined at:
  8550 ;;		line 43 in file "C:\Program Files (x86)\Microchip\xc8\v2.00\pic\sources\c99\common\fltol.c"
  8551 ;; Parameters:    Size  Location     Type
  8552 ;;  f1              4   64[COMRAM] unsigned char 
  8553 ;; Auto vars:     Size  Location     Type
  8554 ;;  exp1            1   73[COMRAM] unsigned char 
  8555 ;;  sign1           1   72[COMRAM] unsigned char 
  8556 ;; Return value:  Size  Location     Type
  8557 ;;                  4   64[COMRAM] long 
  8558 ;; Registers used:
  8559 ;;		wreg, status,2, status,0
  8560 ;; Tracked objects:
  8561 ;;		On entry : 0/0
  8562 ;;		On exit  : 0/0
  8563 ;;		Unchanged: 0/0
  8564 ;; Data sizes:     COMRAM   BANK0   BANK1   BANK2   BANK3   BANK4   BANK5
  8565 ;;      Params:         4       0       0       0       0       0       0
  8566 ;;      Locals:         2       0       0       0       0       0       0
  8567 ;;      Temps:          4       0       0       0       0       0       0
  8568 ;;      Totals:        10       0       0       0       0       0       0
  8569 ;;Total ram usage:       10 bytes
  8570 ;; Hardware stack levels used:    1
  8571 ;; Hardware stack levels required when called:    1
  8572 ;; This function calls:
  8573 ;;		Nothing
  8574 ;; This function is called by:
  8575 ;;		_MapRGB
  8576 ;;		_USART_Init
  8577 ;; This function uses a non-reentrant model
  8578 ;;
  8579                           psect	text24,class=CODE,space=0,reloc=2,group=1
  8580                           	file	"C:\Program Files (x86)\Microchip\xc8\v2.00\pic\sources\c99\common\fltol.c"
  8581                           	line	43
  8582                           global __ptext24
  8583                           __ptext24:
  8584  00275A                     psect	text24
  8585                           	file	"C:\Program Files (x86)\Microchip\xc8\v2.00\pic\sources\c99\common\fltol.c"
  8586                           	line	43
  8587                           	global	__size_of___fltol
  8588                           	__size_of___fltol	equ	__end_of___fltol-___fltol
  8589  0000                     	
  8590                           ___fltol:
  8591  00275A                     ;incstack = 0
  8592                           	opt	stack 28
  8593                           	line	47
  8594                           	
  8595                           l2944:
  8596  00275A                     	rlcf	((c:___fltol@f1+2)),c,w
  8597  00275A  3443               	rlcf	((c:___fltol@f1+3)),c,w
  8598  00275C  3444               	movwf	((c:___fltol@exp1)),c
  8599  00275E  6E4A               	movf	((c:___fltol@exp1)),c,w
  8600  002760  504A               	btfss	status,2
  8601  002762  A4D8               	goto	u3491
  8602  002764  EFB6  F013         	goto	u3490
  8603  002768  EFB8  F013         u3491:
  8604  00276C                     	goto	l2950
  8605  00276C  EFC4  F013         u3490:
  8606  002770                     	line	48
  8607                           	
  8608                           l2946:
  8609  002770                     	movlw	low(0)
  8610  002770  0E00               	movwf	((c:?___fltol)),c
  8611  002772  6E41               	movlw	high(0)
  8612  002774  0E00               	movwf	((c:?___fltol+1)),c
  8613  002776  6E42               	movlw	low highword(0)
  8614  002778  0E00               	movwf	((c:?___fltol+2)),c
  8615  00277A  6E43               	movlw	high highword(0)
  8616  00277C  0E00               	movwf	((c:?___fltol+3)),c
  8617  00277E  6E44               	goto	l575
  8618  002780  EF55  F014         	
  8619                           l2948:
  8620  002784                     	goto	l575
  8621  002784  EF55  F014         	
  8622                           l574:
  8623  002788                     	line	49
  8624                           	
  8625                           l2950:
  8626  002788                     	movff	(c:___fltol@f1),??___fltol+0+0
  8627  002788  C041  F045         	movff	(c:___fltol@f1+1),??___fltol+0+0+1
  8628  00278C  C042  F046         	movff	(c:___fltol@f1+2),??___fltol+0+0+2
  8629  002790  C043  F047         	movff	(c:___fltol@f1+3),??___fltol+0+0+3
  8630  002794  C044  F048         	movlw	01Fh+1
  8631  002798  0E20               	goto	u3500
  8632  00279A  EFD4  F013         u3505:
  8633  00279E                     	bcf	status,0
  8634  00279E  90D8               	rrcf	(??___fltol+0+3),c
  8635  0027A0  3248               	rrcf	(??___fltol+0+2),c
  8636  0027A2  3247               	rrcf	(??___fltol+0+1),c
  8637  0027A4  3246               	rrcf	(??___fltol+0+0),c
  8638  0027A6  3245               u3500:
  8639  0027A8                     	decfsz	wreg
  8640  0027A8  2EE8               	goto	u3505
  8641  0027AA  EFCF  F013         	movf	(??___fltol+0+0),c,w
  8642  0027AE  5045               	movwf	((c:___fltol@sign1)),c
  8643  0027B0  6E49               	line	50
  8644                           	
  8645                           l2952:
  8646  0027B2                     	bsf	(0+(23/8)+(c:___fltol@f1)),c,(23)&7
  8647  0027B2  8E43               	line	51
  8648                           	
  8649                           l2954:
  8650  0027B4                     	movlw	0FFh
  8651  0027B4  0EFF               	andwf	((c:___fltol@f1)),c
  8652  0027B6  1641               	movlw	0FFh
  8653  0027B8  0EFF               	andwf	((c:___fltol@f1+1)),c
  8654  0027BA  1642               	movlw	0FFh
  8655  0027BC  0EFF               	andwf	((c:___fltol@f1+2)),c
  8656  0027BE  1643               	movlw	0
  8657  0027C0  0E00               	andwf	((c:___fltol@f1+3)),c
  8658  0027C2  1644               	line	52
  8659                           	
  8660                           l2956:
  8661  0027C4                     	movlw	(096h)&0ffh
  8662  0027C4  0E96               	subwf	((c:___fltol@exp1)),c
  8663  0027C6  5E4A               	line	53
  8664                           	
  8665                           l2958:
  8666  0027C8                     	btfsc	((c:___fltol@exp1)),c,7
  8667  0027C8  BE4A               	goto	u3510
  8668  0027CA  EFEB  F013         	goto	u3511
  8669  0027CE  EFE9  F013         
  8670                           u3511:
  8671  0027D2                     	goto	l2970
  8672  0027D2  EF0F  F014         u3510:
  8673  0027D6                     	line	54
  8674                           	
  8675                           l2960:
  8676  0027D6                     		movf	((c:___fltol@exp1)),c,w
  8677  0027D6  504A               	xorlw	80h
  8678  0027D8  0A80               	addlw	-(80h^-23)
  8679  0027DA  0F97               	btfsc	status,0
  8680  0027DC  B0D8               	goto	u3521
  8681  0027DE  EFF3  F013         	goto	u3520
  8682  0027E2  EFF5  F013         
  8683                           u3521:
  8684  0027E6                     	goto	l2966
  8685  0027E6  EF03  F014         u3520:
  8686  0027EA                     	line	55
  8687                           	
  8688                           l2962:
  8689  0027EA                     	movlw	low(0)
  8690  0027EA  0E00               	movwf	((c:?___fltol)),c
  8691  0027EC  6E41               	movlw	high(0)
  8692  0027EE  0E00               	movwf	((c:?___fltol+1)),c
  8693  0027F0  6E42               	movlw	low highword(0)
  8694  0027F2  0E00               	movwf	((c:?___fltol+2)),c
  8695  0027F4  6E43               	movlw	high highword(0)
  8696  0027F6  0E00               	movwf	((c:?___fltol+3)),c
  8697  0027F8  6E44               	goto	l575
  8698  0027FA  EF55  F014         	
  8699                           l2964:
  8700  0027FE                     	goto	l575
  8701  0027FE  EF55  F014         	
  8702                           l577:
  8703  002802                     	goto	l2966
  8704  002802  EF03  F014         	line	56
  8705                           	
  8706                           l578:
  8707  002806                     	line	57
  8708                           	
  8709                           l2966:
  8710  002806                     	bcf	status,0
  8711  002806  90D8               	rrcf	((c:___fltol@f1+3)),c
  8712  002808  3244               	rrcf	((c:___fltol@f1+2)),c
  8713  00280A  3243               	rrcf	((c:___fltol@f1+1)),c
  8714  00280C  3242               	rrcf	((c:___fltol@f1)),c
  8715  00280E  3241               	
  8716                           l2968:
  8717  002810                     	incfsz	((c:___fltol@exp1)),c
  8718  002810  3E4A               	
  8719                           	goto	l2966
  8720  002812  EF03  F014         	goto	l2980
  8721  002816  EF39  F014         	
  8722                           l579:
  8723  00281A                     	line	59
  8724                           	goto	l2980
  8725  00281A  EF39  F014         	
  8726                           l576:
  8727  00281E                     	line	60
  8728                           	
  8729                           l2970:
  8730  00281E                     		movlw	020h-1
  8731  00281E  0E1F               	cpfsgt	((c:___fltol@exp1)),c
  8732  002820  644A               	goto	u3531
  8733  002822  EF15  F014         	goto	u3530
  8734  002826  EF17  F014         
  8735                           u3531:
  8736  00282A                     	goto	l2978
  8737  00282A  EF2D  F014         u3530:
  8738  00282E                     	line	61
  8739                           	
  8740                           l2972:
  8741  00282E                     	movlw	low(0)
  8742  00282E  0E00               	movwf	((c:?___fltol)),c
  8743  002830  6E41               	movlw	high(0)
  8744  002832  0E00               	movwf	((c:?___fltol+1)),c
  8745  002834  6E42               	movlw	low highword(0)
  8746  002836  0E00               	movwf	((c:?___fltol+2)),c
  8747  002838  6E43               	movlw	high highword(0)
  8748  00283A  0E00               	movwf	((c:?___fltol+3)),c
  8749  00283C  6E44               	goto	l575
  8750  00283E  EF55  F014         	
  8751                           l2974:
  8752  002842                     	goto	l575
  8753  002842  EF55  F014         	
  8754                           l581:
  8755  002846                     	line	62
  8756                           	goto	l2978
  8757  002846  EF2D  F014         	
  8758                           l583:
  8759  00284A                     	line	63
  8760                           	
  8761                           l2976:
  8762  00284A                     	bcf	status,0
  8763  00284A  90D8               	rlcf	((c:___fltol@f1)),c
  8764  00284C  3641               	rlcf	((c:___fltol@f1+1)),c
  8765  00284E  3642               	rlcf	((c:___fltol@f1+2)),c
  8766  002850  3643               	rlcf	((c:___fltol@f1+3)),c
  8767  002852  3644               	line	64
  8768                           	decf	((c:___fltol@exp1)),c
  8769  002854  064A               	goto	l2978
  8770  002856  EF2D  F014         	line	65
  8771                           	
  8772                           l582:
  8773  00285A                     	line	62
  8774                           	
  8775                           l2978:
  8776  00285A                     	movf	((c:___fltol@exp1)),c,w
  8777  00285A  504A               	btfss	status,2
  8778  00285C  A4D8               	goto	u3541
  8779  00285E  EF33  F014         	goto	u3540
  8780  002862  EF35  F014         u3541:
  8781  002866                     	goto	l2976
  8782  002866  EF25  F014         u3540:
  8783  00286A                     	goto	l2980
  8784  00286A  EF39  F014         	
  8785                           l584:
  8786  00286E                     	goto	l2980
  8787  00286E  EF39  F014         	line	66
  8788                           	
  8789                           l580:
  8790  002872                     	line	67
  8791                           	
  8792                           l2980:
  8793  002872                     	movf	((c:___fltol@sign1)),c,w
  8794  002872  5049               	btfsc	status,2
  8795  002874  B4D8               	goto	u3551
  8796  002876  EF3F  F014         	goto	u3550
  8797  00287A  EF41  F014         u3551:
  8798  00287E                     	goto	l2984
  8799  00287E  EF4B  F014         u3550:
  8800  002882                     	line	68
  8801                           	
  8802                           l2982:
  8803  002882                     	comf	((c:___fltol@f1+3)),c
  8804  002882  1E44               	comf	((c:___fltol@f1+2)),c
  8805  002884  1E43               	comf	((c:___fltol@f1+1)),c
  8806  002886  1E42               	negf	((c:___fltol@f1)),c
  8807  002888  6C41               	movlw	0
  8808  00288A  0E00               	addwfc	((c:___fltol@f1+1)),c
  8809  00288C  2242               	addwfc	((c:___fltol@f1+2)),c
  8810  00288E  2243               	addwfc	((c:___fltol@f1+3)),c
  8811  002890  2244               	goto	l2984
  8812  002892  EF4B  F014         	
  8813                           l585:
  8814  002896                     	line	69
  8815                           	
  8816                           l2984:
  8817  002896                     	movff	(c:___fltol@f1),(c:?___fltol)
  8818  002896  C041  F041         	movff	(c:___fltol@f1+1),(c:?___fltol+1)
  8819  00289A  C042  F042         	movff	(c:___fltol@f1+2),(c:?___fltol+2)
  8820  00289E  C043  F043         	movff	(c:___fltol@f1+3),(c:?___fltol+3)
  8821  0028A2  C044  F044         	goto	l575
  8822  0028A6  EF55  F014         	
  8823                           l2986:
  8824  0028AA                     	line	70
  8825                           	
  8826                           l575:
  8827  0028AA                     	return	;funcret
  8828  0028AA  0012               	opt stack 0
  8829                           GLOBAL	__end_of___fltol
  8830                           	__end_of___fltol:
  8831  0028AC                     	signat	___fltol,4220
  8832                           	global	___flmul
  8833                           
  8834 ;; *************** function ___flmul *****************
  8835 ;; Defined at:
  8836 ;;		line 8 in file "C:\Program Files (x86)\Microchip\xc8\v2.00\pic\sources\c99\common\sprcmul.c"
  8837 ;; Parameters:    Size  Location     Type
  8838 ;;  b               4   39[COMRAM] long 
  8839 ;;  a               4   43[COMRAM] long 
  8840 ;; Auto vars:     Size  Location     Type
  8841 ;;  prod            4   58[COMRAM] struct .
  8842 ;;  grs             4   52[COMRAM] unsigned long 
  8843 ;;  temp            2   62[COMRAM] struct .
  8844 ;;  bexp            1   57[COMRAM] unsigned char 
  8845 ;;  aexp            1   56[COMRAM] unsigned char 
  8846 ;;  sign            1   51[COMRAM] unsigned char 
  8847 ;; Return value:  Size  Location     Type
  8848 ;;                  4   39[COMRAM] unsigned char 
  8849 ;; Registers used:
  8850 ;;		wreg, status,2, status,0, prodl, prodh
  8851 ;; Tracked objects:
  8852 ;;		On entry : 0/0
  8853 ;;		On exit  : 0/0
  8854 ;;		Unchanged: 0/0
  8855 ;; Data sizes:     COMRAM   BANK0   BANK1   BANK2   BANK3   BANK4   BANK5
  8856 ;;      Params:         8       0       0       0       0       0       0
  8857 ;;      Locals:        13       0       0       0       0       0       0
  8858 ;;      Temps:          4       0       0       0       0       0       0
  8859 ;;      Totals:        25       0       0       0       0       0       0
  8860 ;;Total ram usage:       25 bytes
  8861 ;; Hardware stack levels used:    1
  8862 ;; Hardware stack levels required when called:    1
  8863 ;; This function calls:
  8864 ;;		Nothing
  8865 ;; This function is called by:
  8866 ;;		_MapRGB
  8867 ;; This function uses a non-reentrant model
  8868 ;;
  8869                           psect	text25,class=CODE,space=0,reloc=2,group=1
  8870                           	file	"C:\Program Files (x86)\Microchip\xc8\v2.00\pic\sources\c99\common\sprcmul.c"
  8871                           	line	8
  8872                           global __ptext25
  8873                           __ptext25:
  8874  0010CC                     psect	text25
  8875                           	file	"C:\Program Files (x86)\Microchip\xc8\v2.00\pic\sources\c99\common\sprcmul.c"
  8876                           	line	8
  8877                           	global	__size_of___flmul
  8878                           	__size_of___flmul	equ	__end_of___flmul-___flmul
  8879  0000                     	
  8880                           ___flmul:
  8881  0010CC                     ;incstack = 0
  8882                           	opt	stack 28
  8883                           	line	17
  8884                           	
  8885                           l2814:
  8886  0010CC                     	movf	(0+((c:___flmul@b)+03h)),c,w
  8887  0010CC  502B               	andlw	low(080h)
  8888  0010CE  0B80               	movwf	((c:___flmul@sign)),c
  8889  0010D0  6E34               	line	18
  8890                           	movf	(0+((c:___flmul@b)+03h)),c,w
  8891  0010D2  502B               	addwf	(0+((c:___flmul@b)+03h)),c,w
  8892  0010D4  242B               	movwf	((c:___flmul@bexp)),c
  8893  0010D6  6E3A               	line	19
  8894                           	
  8895                           l2816:
  8896  0010D8                     	
  8897                           	btfss	(0+((c:___flmul@b)+02h)),c,(7)&7
  8898  0010D8  AE2A               	goto	u3301
  8899  0010DA  EF71  F008         	goto	u3300
  8900  0010DE  EF73  F008         u3301:
  8901  0010E2                     	goto	l2820
  8902  0010E2  EF76  F008         u3300:
  8903  0010E6                     	line	20
  8904                           	
  8905                           l2818:
  8906  0010E6                     	bsf	(0+(0/8)+(c:___flmul@bexp)),c,(0)&7
  8907  0010E6  803A               	goto	l2820
  8908  0010E8  EF76  F008         	line	21
  8909                           	
  8910                           l885:
  8911  0010EC                     	line	24
  8912                           	
  8913                           l2820:
  8914  0010EC                     	movf	((c:___flmul@bexp)),c,w
  8915  0010EC  503A               	btfsc	status,2
  8916  0010EE  B4D8               	goto	u3311
  8917  0010F0  EF7C  F008         	goto	u3310
  8918  0010F4  EF7E  F008         u3311:
  8919  0010F8                     	goto	l2828
  8920  0010F8  EF93  F008         u3310:
  8921  0010FC                     	line	26
  8922                           	
  8923                           l2822:
  8924  0010FC                     		incf	((c:___flmul@bexp)),c,w
  8925  0010FC  283A               	btfss	status,2
  8926  0010FE  A4D8               	goto	u3321
  8927  001100  EF84  F008         	goto	u3320
  8928  001104  EF86  F008         
  8929                           u3321:
  8930  001108                     	goto	l2826
  8931  001108  EF90  F008         u3320:
  8932  00110C                     	line	28
  8933                           	
  8934                           l2824:
  8935  00110C                     	movlw	low(normalize32(0x0))
  8936  00110C  0E00               	movwf	((c:___flmul@b)),c
  8937  00110E  6E28               	movlw	high(normalize32(0x0))
  8938  001110  0E00               	movwf	((c:___flmul@b+1)),c
  8939  001112  6E29               	movlw	low highword(normalize32(0x0))
  8940  001114  0E00               	movwf	((c:___flmul@b+2)),c
  8941  001116  6E2A               	movlw	high highword(normalize32(0x0))
  8942  001118  0E00               	movwf	((c:___flmul@b+3)),c
  8943  00111A  6E2B               	goto	l2826
  8944  00111C  EF90  F008         	line	29
  8945                           	
  8946                           l887:
  8947  001120                     	line	31
  8948                           	
  8949                           l2826:
  8950  001120                     	bsf	(0+(23/8)+(c:___flmul@b)),c,(23)&7
  8951  001120  8E2A               	line	33
  8952                           	goto	l2830
  8953  001122  EF9D  F008         	line	34
  8954                           	
  8955                           l886:
  8956  001126                     	line	36
  8957                           	
  8958                           l2828:
  8959  001126                     	movlw	low(normalize32(0x0))
  8960  001126  0E00               	movwf	((c:___flmul@b)),c
  8961  001128  6E28               	movlw	high(normalize32(0x0))
  8962  00112A  0E00               	movwf	((c:___flmul@b+1)),c
  8963  00112C  6E29               	movlw	low highword(normalize32(0x0))
  8964  00112E  0E00               	movwf	((c:___flmul@b+2)),c
  8965  001130  6E2A               	movlw	high highword(normalize32(0x0))
  8966  001132  0E00               	movwf	((c:___flmul@b+3)),c
  8967  001134  6E2B               	goto	l2830
  8968  001136  EF9D  F008         	line	37
  8969                           	
  8970                           l888:
  8971  00113A                     	line	39
  8972                           	
  8973                           l2830:
  8974  00113A                     	movf	(0+((c:___flmul@a)+03h)),c,w
  8975  00113A  502F               	andlw	low(080h)
  8976  00113C  0B80               	xorwf	((c:___flmul@sign)),c
  8977  00113E  1A34               	line	40
  8978                           	
  8979                           l2832:
  8980  001140                     	movf	(0+((c:___flmul@a)+03h)),c,w
  8981  001140  502F               	addwf	(0+((c:___flmul@a)+03h)),c,w
  8982  001142  242F               	movwf	((c:___flmul@aexp)),c
  8983  001144  6E39               	line	41
  8984                           	
  8985                           l2834:
  8986  001146                     	
  8987                           	btfss	(0+((c:___flmul@a)+02h)),c,(7)&7
  8988  001146  AE2E               	goto	u3331
  8989  001148  EFA8  F008         	goto	u3330
  8990  00114C  EFAA  F008         u3331:
  8991  001150                     	goto	l2838
  8992  001150  EFAD  F008         u3330:
  8993  001154                     	line	42
  8994                           	
  8995                           l2836:
  8996  001154                     	bsf	(0+(0/8)+(c:___flmul@aexp)),c,(0)&7
  8997  001154  8039               	goto	l2838
  8998  001156  EFAD  F008         	line	43
  8999                           	
  9000                           l889:
  9001  00115A                     	line	45
  9002                           	
  9003                           l2838:
  9004  00115A                     	movf	((c:___flmul@aexp)),c,w
  9005  00115A  5039               	btfsc	status,2
  9006  00115C  B4D8               	goto	u3341
  9007  00115E  EFB3  F008         	goto	u3340
  9008  001162  EFB5  F008         u3341:
  9009  001166                     	goto	l2846
  9010  001166  EFCA  F008         u3340:
  9011  00116A                     	line	48
  9012                           	
  9013                           l2840:
  9014  00116A                     		incf	((c:___flmul@aexp)),c,w
  9015  00116A  2839               	btfss	status,2
  9016  00116C  A4D8               	goto	u3351
  9017  00116E  EFBB  F008         	goto	u3350
  9018  001172  EFBD  F008         
  9019                           u3351:
  9020  001176                     	goto	l2844
  9021  001176  EFC7  F008         u3350:
  9022  00117A                     	line	50
  9023                           	
  9024                           l2842:
  9025  00117A                     	movlw	low(normalize32(0x0))
  9026  00117A  0E00               	movwf	((c:___flmul@a)),c
  9027  00117C  6E2C               	movlw	high(normalize32(0x0))
  9028  00117E  0E00               	movwf	((c:___flmul@a+1)),c
  9029  001180  6E2D               	movlw	low highword(normalize32(0x0))
  9030  001182  0E00               	movwf	((c:___flmul@a+2)),c
  9031  001184  6E2E               	movlw	high highword(normalize32(0x0))
  9032  001186  0E00               	movwf	((c:___flmul@a+3)),c
  9033  001188  6E2F               	goto	l2844
  9034  00118A  EFC7  F008         	line	51
  9035                           	
  9036                           l891:
  9037  00118E                     	line	53
  9038                           	
  9039                           l2844:
  9040  00118E                     	bsf	(0+(23/8)+(c:___flmul@a)),c,(23)&7
  9041  00118E  8E2E               	line	54
  9042                           	goto	l892
  9043  001190  EFD2  F008         	line	55
  9044                           	
  9045                           l890:
  9046  001194                     	line	57
  9047                           	
  9048                           l2846:
  9049  001194                     	movlw	low(normalize32(0x0))
  9050  001194  0E00               	movwf	((c:___flmul@a)),c
  9051  001196  6E2C               	movlw	high(normalize32(0x0))
  9052  001198  0E00               	movwf	((c:___flmul@a+1)),c
  9053  00119A  6E2D               	movlw	low highword(normalize32(0x0))
  9054  00119C  0E00               	movwf	((c:___flmul@a+2)),c
  9055  00119E  6E2E               	movlw	high highword(normalize32(0x0))
  9056  0011A0  0E00               	movwf	((c:___flmul@a+3)),c
  9057  0011A2  6E2F               	line	58
  9058                           	
  9059                           l892:
  9060  0011A4                     	line	65
  9061                           	movf	((c:___flmul@aexp)),c,w
  9062  0011A4  5039               	btfsc	status,2
  9063  0011A6  B4D8               	goto	u3361
  9064  0011A8  EFD8  F008         	goto	u3360
  9065  0011AC  EFDA  F008         u3361:
  9066  0011B0                     	goto	l2850
  9067  0011B0  EFE4  F008         u3360:
  9068  0011B4                     	
  9069                           l2848:
  9070  0011B4                     	movf	((c:___flmul@bexp)),c,w
  9071  0011B4  503A               	btfss	status,2
  9072  0011B6  A4D8               	goto	u3371
  9073  0011B8  EFE0  F008         	goto	u3370
  9074  0011BC  EFE2  F008         u3371:
  9075  0011C0                     	goto	l2854
  9076  0011C0  EFF0  F008         u3370:
  9077  0011C4                     	goto	l2850
  9078  0011C4  EFE4  F008         	
  9079                           l895:
  9080  0011C8                     	line	66
  9081                           	
  9082                           l2850:
  9083  0011C8                     	movlw	low(normalize32(0x0))
  9084  0011C8  0E00               	movwf	((c:?___flmul)),c
  9085  0011CA  6E28               	movlw	high(normalize32(0x0))
  9086  0011CC  0E00               	movwf	((c:?___flmul+1)),c
  9087  0011CE  6E29               	movlw	low highword(normalize32(0x0))
  9088  0011D0  0E00               	movwf	((c:?___flmul+2)),c
  9089  0011D2  6E2A               	movlw	high highword(normalize32(0x0))
  9090  0011D4  0E00               	movwf	((c:?___flmul+3)),c
  9091  0011D6  6E2B               	goto	l896
  9092  0011D8  EF9C  F00A         	
  9093                           l2852:
  9094  0011DC                     	goto	l896
  9095  0011DC  EF9C  F00A         	line	67
  9096                           	
  9097                           l893:
  9098  0011E0                     	line	95
  9099                           	
  9100                           l2854:
  9101  0011E0                     	movf	(0+((c:___flmul@a)+02h)),c,w
  9102  0011E0  502E               	mulwf	((c:___flmul@b)),c
  9103  0011E2  0228               	movff	prodl,(c:___flmul@temp)
  9104  0011E4  CFF3 F03F          	movff	prodh,(c:___flmul@temp+1)
  9105  0011E8  CFF4 F040          	line	96
  9106                           	
  9107                           l2856:
  9108  0011EC                     	movf	((c:___flmul@temp)),c,w
  9109  0011EC  503F               	movwf	((c:___flmul@grs)),c
  9110  0011EE  6E35               	clrf	((c:___flmul@grs+1)),c
  9111  0011F0  6A36               	clrf	((c:___flmul@grs+2)),c
  9112  0011F2  6A37               	clrf	((c:___flmul@grs+3)),c
  9113  0011F4  6A38               
  9114                           	line	97
  9115                           	
  9116                           l2858:
  9117  0011F6                     	movf	(0+((c:___flmul@temp)+01h)),c,w
  9118  0011F6  5040               	movwf	((c:___flmul@prod)),c
  9119  0011F8  6E3B               	clrf	((c:___flmul@prod+1)),c
  9120  0011FA  6A3C               	clrf	((c:___flmul@prod+2)),c
  9121  0011FC  6A3D               	clrf	((c:___flmul@prod+3)),c
  9122  0011FE  6A3E               
  9123                           	line	98
  9124                           	movf	(0+((c:___flmul@a)+01h)),c,w
  9125  001200  502D               	mulwf	(0+((c:___flmul@b)+01h)),c
  9126  001202  0229               	movff	prodl,(c:___flmul@temp)
  9127  001204  CFF3 F03F          	movff	prodh,(c:___flmul@temp+1)
  9128  001208  CFF4 F040          	line	99
  9129                           	
  9130                           l2860:
  9131  00120C                     	movf	((c:___flmul@temp)),c,w
  9132  00120C  503F               	addwf	((c:___flmul@grs)),c
  9133  00120E  2635               	movlw	0
  9134  001210  0E00               	addwfc	((c:___flmul@grs+1)),c
  9135  001212  2236               	addwfc	((c:___flmul@grs+2)),c
  9136  001214  2237               	addwfc	((c:___flmul@grs+3)),c
  9137  001216  2238               	line	100
  9138                           	
  9139                           l2862:
  9140  001218                     	movf	(0+((c:___flmul@temp)+01h)),c,w
  9141  001218  5040               	addwf	((c:___flmul@prod)),c
  9142  00121A  263B               	movlw	0
  9143  00121C  0E00               	addwfc	((c:___flmul@prod+1)),c
  9144  00121E  223C               	addwfc	((c:___flmul@prod+2)),c
  9145  001220  223D               	addwfc	((c:___flmul@prod+3)),c
  9146  001222  223E               	line	101
  9147                           	movf	((c:___flmul@a)),c,w
  9148  001224  502C               	mulwf	(0+((c:___flmul@b)+02h)),c
  9149  001226  022A               	movff	prodl,(c:___flmul@temp)
  9150  001228  CFF3 F03F          	movff	prodh,(c:___flmul@temp+1)
  9151  00122C  CFF4 F040          	line	102
  9152                           	
  9153                           l2864:
  9154  001230                     	movf	((c:___flmul@temp)),c,w
  9155  001230  503F               	addwf	((c:___flmul@grs)),c
  9156  001232  2635               	movlw	0
  9157  001234  0E00               	addwfc	((c:___flmul@grs+1)),c
  9158  001236  2236               	addwfc	((c:___flmul@grs+2)),c
  9159  001238  2237               	addwfc	((c:___flmul@grs+3)),c
  9160  00123A  2238               	line	103
  9161                           	
  9162                           l2866:
  9163  00123C                     	movf	(0+((c:___flmul@temp)+01h)),c,w
  9164  00123C  5040               	addwf	((c:___flmul@prod)),c
  9165  00123E  263B               	movlw	0
  9166  001240  0E00               	addwfc	((c:___flmul@prod+1)),c
  9167  001242  223C               	addwfc	((c:___flmul@prod+2)),c
  9168  001244  223D               	addwfc	((c:___flmul@prod+3)),c
  9169  001246  223E               	line	104
  9170                           	
  9171                           l2868:
  9172  001248                     	movff	(c:___flmul@grs+2),(c:___flmul@grs+3)
  9173  001248  C037  F038         	movff	(c:___flmul@grs+1),(c:___flmul@grs+2)
  9174  00124C  C036  F037         	movff	(c:___flmul@grs),(c:___flmul@grs+1)
  9175  001250  C035  F036         	clrf	((c:___flmul@grs)),c
  9176  001254  6A35               	line	105
  9177                           	
  9178                           l2870:
  9179  001256                     	movf	((c:___flmul@a)),c,w
  9180  001256  502C               	mulwf	(0+((c:___flmul@b)+01h)),c
  9181  001258  0229               	movff	prodl,(c:___flmul@temp)
  9182  00125A  CFF3 F03F          	movff	prodh,(c:___flmul@temp+1)
  9183  00125E  CFF4 F040          	line	106
  9184                           	
  9185                           l2872:
  9186  001262                     	movf	((c:___flmul@temp)),c,w
  9187  001262  503F               	addwf	((c:___flmul@grs)),c
  9188  001264  2635               	movf	((c:___flmul@temp+1)),c,w
  9189  001266  5040               	addwfc	((c:___flmul@grs+1)),c
  9190  001268  2236               	movlw	0
  9191  00126A  0E00               	addwfc	((c:___flmul@grs+2)),c
  9192  00126C  2237               	movlw	0
  9193  00126E  0E00               	addwfc	((c:___flmul@grs+3)),c
  9194  001270  2238               
  9195                           	line	107
  9196                           	
  9197                           l2874:
  9198  001272                     	movf	(0+((c:___flmul@a)+01h)),c,w
  9199  001272  502D               	mulwf	((c:___flmul@b)),c
  9200  001274  0228               	movff	prodl,(c:___flmul@temp)
  9201  001276  CFF3 F03F          	movff	prodh,(c:___flmul@temp+1)
  9202  00127A  CFF4 F040          	line	108
  9203                           	
  9204                           l2876:
  9205  00127E                     	movf	((c:___flmul@temp)),c,w
  9206  00127E  503F               	addwf	((c:___flmul@grs)),c
  9207  001280  2635               	movf	((c:___flmul@temp+1)),c,w
  9208  001282  5040               	addwfc	((c:___flmul@grs+1)),c
  9209  001284  2236               	movlw	0
  9210  001286  0E00               	addwfc	((c:___flmul@grs+2)),c
  9211  001288  2237               	movlw	0
  9212  00128A  0E00               	addwfc	((c:___flmul@grs+3)),c
  9213  00128C  2238               
  9214                           	line	109
  9215                           	
  9216                           l2878:
  9217  00128E                     	movff	(c:___flmul@grs+2),(c:___flmul@grs+3)
  9218  00128E  C037  F038         	movff	(c:___flmul@grs+1),(c:___flmul@grs+2)
  9219  001292  C036  F037         	movff	(c:___flmul@grs),(c:___flmul@grs+1)
  9220  001296  C035  F036         	clrf	((c:___flmul@grs)),c
  9221  00129A  6A35               	line	110
  9222                           	movf	((c:___flmul@a)),c,w
  9223  00129C  502C               	mulwf	((c:___flmul@b)),c
  9224  00129E  0228               	movff	prodl,(c:___flmul@temp)
  9225  0012A0  CFF3 F03F          	movff	prodh,(c:___flmul@temp+1)
  9226  0012A4  CFF4 F040          	line	111
  9227                           	
  9228                           l2880:
  9229  0012A8                     	movf	((c:___flmul@temp)),c,w
  9230  0012A8  503F               	addwf	((c:___flmul@grs)),c
  9231  0012AA  2635               	movf	((c:___flmul@temp+1)),c,w
  9232  0012AC  5040               	addwfc	((c:___flmul@grs+1)),c
  9233  0012AE  2236               	movlw	0
  9234  0012B0  0E00               	addwfc	((c:___flmul@grs+2)),c
  9235  0012B2  2237               	movlw	0
  9236  0012B4  0E00               	addwfc	((c:___flmul@grs+3)),c
  9237  0012B6  2238               
  9238                           	line	112
  9239                           	
  9240                           l2882:
  9241  0012B8                     	movf	(0+((c:___flmul@a)+02h)),c,w
  9242  0012B8  502E               	mulwf	(0+((c:___flmul@b)+01h)),c
  9243  0012BA  0229               	movff	prodl,(c:___flmul@temp)
  9244  0012BC  CFF3 F03F          	movff	prodh,(c:___flmul@temp+1)
  9245  0012C0  CFF4 F040          	line	113
  9246                           	movf	((c:___flmul@temp)),c,w
  9247  0012C4  503F               	addwf	((c:___flmul@prod)),c
  9248  0012C6  263B               	movf	((c:___flmul@temp+1)),c,w
  9249  0012C8  5040               	addwfc	((c:___flmul@prod+1)),c
  9250  0012CA  223C               	movlw	0
  9251  0012CC  0E00               	addwfc	((c:___flmul@prod+2)),c
  9252  0012CE  223D               	movlw	0
  9253  0012D0  0E00               	addwfc	((c:___flmul@prod+3)),c
  9254  0012D2  223E               
  9255                           	line	114
  9256                           	
  9257                           l2884:
  9258  0012D4                     	movf	(0+((c:___flmul@a)+01h)),c,w
  9259  0012D4  502D               	mulwf	(0+((c:___flmul@b)+02h)),c
  9260  0012D6  022A               	movff	prodl,(c:___flmul@temp)
  9261  0012D8  CFF3 F03F          	movff	prodh,(c:___flmul@temp+1)
  9262  0012DC  CFF4 F040          	line	115
  9263                           	
  9264                           l2886:
  9265  0012E0                     	movf	((c:___flmul@temp)),c,w
  9266  0012E0  503F               	addwf	((c:___flmul@prod)),c
  9267  0012E2  263B               	movf	((c:___flmul@temp+1)),c,w
  9268  0012E4  5040               	addwfc	((c:___flmul@prod+1)),c
  9269  0012E6  223C               	movlw	0
  9270  0012E8  0E00               	addwfc	((c:___flmul@prod+2)),c
  9271  0012EA  223D               	movlw	0
  9272  0012EC  0E00               	addwfc	((c:___flmul@prod+3)),c
  9273  0012EE  223E               
  9274                           	line	116
  9275                           	movf	(0+((c:___flmul@a)+02h)),c,w
  9276  0012F0  502E               	mulwf	(0+((c:___flmul@b)+02h)),c
  9277  0012F2  022A               	movff	prodl,(c:___flmul@temp)
  9278  0012F4  CFF3 F03F          	movff	prodh,(c:___flmul@temp+1)
  9279  0012F8  CFF4 F040          	line	117
  9280                           	
  9281                           l2888:
  9282  0012FC                     	movf	((c:___flmul@temp)),c,w
  9283  0012FC  503F               	movwf	(??___flmul+0+0)&0ffh,c
  9284  0012FE  6E30               	movf	((c:___flmul@temp+1)),c,w
  9285  001300  5040               	movwf	1+(??___flmul+0+0)&0ffh,c
  9286  001302  6E31               	
  9287                           	clrf	2+(??___flmul+0+0)&0ffh,c
  9288  001304  6A32               	
  9289                           	clrf	3+(??___flmul+0+0)&0ffh,c
  9290  001306  6A33               	movff	??___flmul+0+2,??___flmul+0+3
  9291  001308  C032  F033         	movff	??___flmul+0+1,??___flmul+0+2
  9292  00130C  C031  F032         	movff	??___flmul+0+0,??___flmul+0+1
  9293  001310  C030  F031         	clrf	(??___flmul+0+0),c
  9294  001314  6A30               	movf	(??___flmul+0+0),c,w
  9295  001316  5030               	addwf	((c:___flmul@prod)),c
  9296  001318  263B               	movf	(??___flmul+0+1),c,w
  9297  00131A  5031               	addwfc	((c:___flmul@prod+1)),c
  9298  00131C  223C               	movf	(??___flmul+0+2),c,w
  9299  00131E  5032               	addwfc	((c:___flmul@prod+2)),c
  9300  001320  223D               	movf	(??___flmul+0+3),c,w
  9301  001322  5033               	addwfc	((c:___flmul@prod+3)),c
  9302  001324  223E               
  9303                           	line	145
  9304                           	
  9305                           l2890:
  9306  001326                     	movff	(c:___flmul@grs),??___flmul+0+0
  9307  001326  C035  F030         	movff	(c:___flmul@grs+1),??___flmul+0+0+1
  9308  00132A  C036  F031         	movff	(c:___flmul@grs+2),??___flmul+0+0+2
  9309  00132E  C037  F032         	movff	(c:___flmul@grs+3),??___flmul+0+0+3
  9310  001332  C038  F033         	movlw	018h+1
  9311  001336  0E19               	goto	u3380
  9312  001338  EFA3  F009         u3385:
  9313  00133C                     	bcf	status,0
  9314  00133C  90D8               	rrcf	(??___flmul+0+3),c
  9315  00133E  3233               	rrcf	(??___flmul+0+2),c
  9316  001340  3232               	rrcf	(??___flmul+0+1),c
  9317  001342  3231               	rrcf	(??___flmul+0+0),c
  9318  001344  3230               u3380:
  9319  001346                     	decfsz	wreg
  9320  001346  2EE8               	goto	u3385
  9321  001348  EF9E  F009         	movf	(??___flmul+0+0),c,w
  9322  00134C  5030               	addwf	((c:___flmul@prod)),c
  9323  00134E  263B               	movf	(??___flmul+0+1),c,w
  9324  001350  5031               	addwfc	((c:___flmul@prod+1)),c
  9325  001352  223C               	movf	(??___flmul+0+2),c,w
  9326  001354  5032               	addwfc	((c:___flmul@prod+2)),c
  9327  001356  223D               	movf	(??___flmul+0+3),c,w
  9328  001358  5033               	addwfc	((c:___flmul@prod+3)),c
  9329  00135A  223E               
  9330                           	line	146
  9331                           	
  9332                           l2892:
  9333  00135C                     	movff	(c:___flmul@grs+2),(c:___flmul@grs+3)
  9334  00135C  C037  F038         	movff	(c:___flmul@grs+1),(c:___flmul@grs+2)
  9335  001360  C036  F037         	movff	(c:___flmul@grs),(c:___flmul@grs+1)
  9336  001364  C035  F036         	clrf	((c:___flmul@grs)),c
  9337  001368  6A35               	line	149
  9338                           	
  9339                           l2894:
  9340  00136A                     	movf	((c:___flmul@aexp)),c,w
  9341  00136A  5039               	movff	(c:___flmul@bexp),??___flmul+0+0
  9342  00136C  C03A  F030         	clrf	(??___flmul+0+0+1)&0ffh,c
  9343  001370  6A31               	addwf	(??___flmul+0+0),c
  9344  001372  2630               	movlw	0
  9345  001374  0E00               	addwfc	(??___flmul+0+1),c
  9346  001376  2231               	movlw	low(-126)
  9347  001378  0E82               	addwf	(??___flmul+0+0),c,w
  9348  00137A  2430               	movwf	((c:___flmul@temp)),c
  9349  00137C  6E3F               	movlw	high(-126)
  9350  00137E  0EFF               	addwfc	(??___flmul+0+1),c,w
  9351  001380  2031               	movwf	1+((c:___flmul@temp)),c
  9352  001382  6E40               	line	152
  9353                           	goto	l2902
  9354  001384  EFDB  F009         	
  9355                           l898:
  9356  001388                     	line	153
  9357                           	
  9358                           l2896:
  9359  001388                     	bcf	status,0
  9360  001388  90D8               	rlcf	((c:___flmul@prod)),c
  9361  00138A  363B               	rlcf	((c:___flmul@prod+1)),c
  9362  00138C  363C               	rlcf	((c:___flmul@prod+2)),c
  9363  00138E  363D               	rlcf	((c:___flmul@prod+3)),c
  9364  001390  363E               	line	154
  9365                           	
  9366                           l2898:
  9367  001392                     	
  9368                           	btfss	((c:___flmul@grs+3)),c,(31)&7
  9369  001392  AE38               	goto	u3391
  9370  001394  EFCE  F009         	goto	u3390
  9371  001398  EFD0  F009         u3391:
  9372  00139C                     	goto	l899
  9373  00139C  EFD1  F009         u3390:
  9374  0013A0                     	line	155
  9375                           	
  9376                           l2900:
  9377  0013A0                     	bsf	(0+(0/8)+(c:___flmul@prod)),c,(0)&7
  9378  0013A0  803B               	line	156
  9379                           	
  9380                           l899:
  9381  0013A2                     	line	157
  9382                           	bcf	status,0
  9383  0013A2  90D8               	rlcf	((c:___flmul@grs)),c
  9384  0013A4  3635               	rlcf	((c:___flmul@grs+1)),c
  9385  0013A6  3636               	rlcf	((c:___flmul@grs+2)),c
  9386  0013A8  3637               	rlcf	((c:___flmul@grs+3)),c
  9387  0013AA  3638               	line	158
  9388                           	decf	((c:___flmul@temp)),c
  9389  0013AC  063F               	btfss	status,0
  9390  0013AE  A0D8               	decf	((c:___flmul@temp+1)),c
  9391  0013B0  0640               	goto	l2902
  9392  0013B2  EFDB  F009         	line	159
  9393                           	
  9394                           l897:
  9395  0013B6                     	line	152
  9396                           	
  9397                           l2902:
  9398  0013B6                     	
  9399                           	btfss	((c:___flmul@prod+2)),c,(23)&7
  9400  0013B6  AE3D               	goto	u3401
  9401  0013B8  EFE0  F009         	goto	u3400
  9402  0013BC  EFE2  F009         u3401:
  9403  0013C0                     	goto	l2896
  9404  0013C0  EFC4  F009         u3400:
  9405  0013C4                     	goto	l2904
  9406  0013C4  EFE4  F009         	
  9407                           l900:
  9408  0013C8                     	line	163
  9409                           	
  9410                           l2904:
  9411  0013C8                     	movlw	low(0)
  9412  0013C8  0E00               	movwf	((c:___flmul@aexp)),c
  9413  0013CA  6E39               	line	164
  9414                           	
  9415                           l2906:
  9416  0013CC                     	
  9417                           	btfss	((c:___flmul@grs+3)),c,(31)&7
  9418  0013CC  AE38               	goto	u3411
  9419  0013CE  EFEB  F009         	goto	u3410
  9420  0013D2  EFED  F009         u3411:
  9421  0013D6                     	goto	l901
  9422  0013D6  EF15  F00A         u3410:
  9423  0013DA                     	line	165
  9424                           	
  9425                           l2908:
  9426  0013DA                     	movlw	0FFh
  9427  0013DA  0EFF               	andwf	((c:___flmul@grs)),c,w
  9428  0013DC  1435               	movwf	(??___flmul+0+0)&0ffh,c
  9429  0013DE  6E30               	movlw	0FFh
  9430  0013E0  0EFF               	andwf	((c:___flmul@grs+1)),c,w
  9431  0013E2  1436               	movwf	1+(??___flmul+0+0)&0ffh,c
  9432  0013E4  6E31               	
  9433                           	movlw	0FFh
  9434  0013E6  0EFF               	andwf	((c:___flmul@grs+2)),c,w
  9435  0013E8  1437               	movwf	2+(??___flmul+0+0)&0ffh,c
  9436  0013EA  6E32               	
  9437                           	movlw	07Fh
  9438  0013EC  0E7F               	andwf	((c:___flmul@grs+3)),c,w
  9439  0013EE  1438               	movwf	3+(??___flmul+0+0)&0ffh,c
  9440  0013F0  6E33               	movf	(??___flmul+0+0),c,w
  9441  0013F2  5030               iorwf	(??___flmul+0+1),c,w
  9442  0013F4  1031               iorwf	(??___flmul+0+2),c,w
  9443  0013F6  1032               iorwf	(??___flmul+0+3),c,w
  9444  0013F8  1033               	btfsc	status,2
  9445  0013FA  B4D8               	goto	u3421
  9446  0013FC  EF02  F00A         	goto	u3420
  9447  001400  EF04  F00A         
  9448                           u3421:
  9449  001404                     	goto	l902
  9450  001404  EF08  F00A         u3420:
  9451  001408                     	line	166
  9452                           	
  9453                           l2910:
  9454  001408                     	movlw	low(01h)
  9455  001408  0E01               	movwf	((c:___flmul@aexp)),c
  9456  00140A  6E39               	line	167
  9457                           	goto	l901
  9458  00140C  EF15  F00A         	line	168
  9459                           	
  9460                           l902:
  9461  001410                     	line	169
  9462                           	
  9463                           	btfss	((c:___flmul@prod)),c,(0)&7
  9464  001410  A03B               	goto	u3431
  9465  001412  EF0D  F00A         	goto	u3430
  9466  001416  EF0F  F00A         u3431:
  9467  00141A                     	goto	l901
  9468  00141A  EF15  F00A         u3430:
  9469  00141E                     	line	170
  9470                           	
  9471                           l2912:
  9472  00141E                     	movlw	low(01h)
  9473  00141E  0E01               	movwf	((c:___flmul@aexp)),c
  9474  001420  6E39               	goto	l901
  9475  001422  EF15  F00A         	line	171
  9476                           	
  9477                           l904:
  9478  001426                     	goto	l901
  9479  001426  EF15  F00A         	line	172
  9480                           	
  9481                           l903:
  9482  00142A                     	line	173
  9483                           	
  9484                           l901:
  9485  00142A                     	line	174
  9486                           	movf	((c:___flmul@aexp)),c,w
  9487  00142A  5039               	btfsc	status,2
  9488  00142C  B4D8               	goto	u3441
  9489  00142E  EF1B  F00A         	goto	u3440
  9490  001432  EF1D  F00A         u3441:
  9491  001436                     	goto	l2922
  9492  001436  EF45  F00A         u3440:
  9493  00143A                     	line	175
  9494                           	
  9495                           l2914:
  9496  00143A                     	movlw	low(01h)
  9497  00143A  0E01               	addwf	((c:___flmul@prod)),c
  9498  00143C  263B               	movlw	0
  9499  00143E  0E00               	addwfc	((c:___flmul@prod+1)),c
  9500  001440  223C               	addwfc	((c:___flmul@prod+2)),c
  9501  001442  223D               	addwfc	((c:___flmul@prod+3)),c
  9502  001444  223E               	line	176
  9503                           	
  9504                           l2916:
  9505  001446                     	
  9506                           	btfss	((c:___flmul@prod+3)),c,(24)&7
  9507  001446  A03E               	goto	u3451
  9508  001448  EF28  F00A         	goto	u3450
  9509  00144C  EF2A  F00A         u3451:
  9510  001450                     	goto	l2922
  9511  001450  EF45  F00A         u3450:
  9512  001454                     	line	177
  9513                           	
  9514                           l2918:
  9515  001454                     	movff	(c:___flmul@prod),??___flmul+0+0
  9516  001454  C03B  F030         	movff	(c:___flmul@prod+1),??___flmul+0+0+1
  9517  001458  C03C  F031         	movff	(c:___flmul@prod+2),??___flmul+0+0+2
  9518  00145C  C03D  F032         	movff	(c:___flmul@prod+3),??___flmul+0+0+3
  9519  001460  C03E  F033         	rlcf	(??___flmul+0+3),c,w
  9520  001464  3433               	rrcf	(??___flmul+0+3),c
  9521  001466  3233               	rrcf	(??___flmul+0+2),c
  9522  001468  3232               	rrcf	(??___flmul+0+1),c
  9523  00146A  3231               	rrcf	(??___flmul+0+0),c
  9524  00146C  3230               	movff	??___flmul+0+0,(c:___flmul@prod)
  9525  00146E  C030  F03B         	movff	??___flmul+0+1,(c:___flmul@prod+1)
  9526  001472  C031  F03C         	movff	??___flmul+0+2,(c:___flmul@prod+2)
  9527  001476  C032  F03D         	movff	??___flmul+0+3,(c:___flmul@prod+3)
  9528  00147A  C033  F03E         	line	178
  9529                           	
  9530                           l2920:
  9531  00147E                     	infsnz	((c:___flmul@temp)),c
  9532  00147E  4A3F               	incf	((c:___flmul@temp+1)),c
  9533  001480  2A40               	goto	l2922
  9534  001482  EF45  F00A         	line	179
  9535                           	
  9536                           l906:
  9537  001486                     	goto	l2922
  9538  001486  EF45  F00A         	line	180
  9539                           	
  9540                           l905:
  9541  00148A                     	line	183
  9542                           	
  9543                           l2922:
  9544  00148A                     	btfsc	((c:___flmul@temp+1)),c,7
  9545  00148A  BE40               	goto	u3461
  9546  00148C  EF50  F00A         	movf	((c:___flmul@temp+1)),c,w
  9547  001490  5040               	bnz	u3460
  9548  001492  E108               	incf	((c:___flmul@temp)),c,w
  9549  001494  283F               	btfss	status,0
  9550  001496  A0D8               	goto	u3461
  9551  001498  EF50  F00A         	goto	u3460
  9552  00149C  EF52  F00A         
  9553                           u3461:
  9554  0014A0                     	goto	l2926
  9555  0014A0  EF5C  F00A         u3460:
  9556  0014A4                     	line	184
  9557                           	
  9558                           l2924:
  9559  0014A4                     	movlw	low(07F800000h)
  9560  0014A4  0E00               	movwf	((c:___flmul@prod)),c
  9561  0014A6  6E3B               	movlw	high(07F800000h)
  9562  0014A8  0E00               	movwf	((c:___flmul@prod+1)),c
  9563  0014AA  6E3C               	movlw	low highword(07F800000h)
  9564  0014AC  0E80               	movwf	((c:___flmul@prod+2)),c
  9565  0014AE  6E3D               	movlw	high highword(07F800000h)
  9566  0014B0  0E7F               	movwf	((c:___flmul@prod+3)),c
  9567  0014B2  6E3E               	line	185
  9568                           	goto	l2938
  9569  0014B4  EF90  F00A         	line	187
  9570                           	
  9571                           l907:
  9572  0014B8                     	
  9573                           l2926:
  9574  0014B8                     	btfsc	((c:___flmul@temp+1)),c,7
  9575  0014B8  BE40               	goto	u3470
  9576  0014BA  EF69  F00A         	movf	((c:___flmul@temp+1)),c,w
  9577  0014BE  5040               	bnz	u3471
  9578  0014C0  E106               	decf	((c:___flmul@temp)),c,w
  9579  0014C2  043F               	btfsc	status,0
  9580  0014C4  B0D8               	goto	u3471
  9581  0014C6  EF67  F00A         	goto	u3470
  9582  0014CA  EF69  F00A         
  9583                           u3471:
  9584  0014CE                     	goto	l909
  9585  0014CE  EF75  F00A         u3470:
  9586  0014D2                     	line	188
  9587                           	
  9588                           l2928:
  9589  0014D2                     	movlw	low(0)
  9590  0014D2  0E00               	movwf	((c:___flmul@prod)),c
  9591  0014D4  6E3B               	movlw	high(0)
  9592  0014D6  0E00               	movwf	((c:___flmul@prod+1)),c
  9593  0014D8  6E3C               	movlw	low highword(0)
  9594  0014DA  0E00               	movwf	((c:___flmul@prod+2)),c
  9595  0014DC  6E3D               	movlw	high highword(0)
  9596  0014DE  0E00               	movwf	((c:___flmul@prod+3)),c
  9597  0014E0  6E3E               	line	190
  9598                           	movlw	low(0)
  9599  0014E2  0E00               	movwf	((c:___flmul@sign)),c
  9600  0014E4  6E34               	line	191
  9601                           	goto	l2938
  9602  0014E6  EF90  F00A         	line	192
  9603                           	
  9604                           l909:
  9605  0014EA                     	line	194
  9606                           	movff	(c:___flmul@temp),(c:___flmul@bexp)
  9607  0014EA  C03F  F03A         	line	195
  9608                           	
  9609                           l2930:
  9610  0014EE                     	movlw	0FFh
  9611  0014EE  0EFF               	andwf	((c:___flmul@prod)),c
  9612  0014F0  163B               	movlw	0FFh
  9613  0014F2  0EFF               	andwf	((c:___flmul@prod+1)),c
  9614  0014F4  163C               	movlw	07Fh
  9615  0014F6  0E7F               	andwf	((c:___flmul@prod+2)),c
  9616  0014F8  163D               	movlw	0
  9617  0014FA  0E00               	andwf	((c:___flmul@prod+3)),c
  9618  0014FC  163E               	line	196
  9619                           	
  9620                           l2932:
  9621  0014FE                     	
  9622                           	btfss	((c:___flmul@bexp)),c,(0)&7
  9623  0014FE  A03A               	goto	u3481
  9624  001500  EF84  F00A         	goto	u3480
  9625  001504  EF86  F00A         u3481:
  9626  001508                     	goto	l2936
  9627  001508  EF89  F00A         u3480:
  9628  00150C                     	line	197
  9629                           	
  9630                           l2934:
  9631  00150C                     	bsf	(0+(7/8)+0+((c:___flmul@prod)+02h)),c,(7)&7
  9632  00150C  8E3D               	goto	l2936
  9633  00150E  EF89  F00A         	line	198
  9634                           	
  9635                           l911:
  9636  001512                     	line	199
  9637                           	
  9638                           l2936:
  9639  001512                     	bcf	status,0
  9640  001512  90D8               	rrcf	((c:___flmul@bexp)),c,w
  9641  001514  303A               	movwf	(0+((c:___flmul@prod)+03h)),c
  9642  001516  6E3E               	goto	l2938
  9643  001518  EF90  F00A         	line	200
  9644                           	
  9645                           l910:
  9646  00151C                     	goto	l2938
  9647  00151C  EF90  F00A         	
  9648                           l908:
  9649  001520                     	line	201
  9650                           	
  9651                           l2938:
  9652  001520                     	movf	((c:___flmul@sign)),c,w
  9653  001520  5034               	iorwf	(0+((c:___flmul@prod)+03h)),c
  9654  001522  123E               	line	203
  9655                           	
  9656                           l2940:
  9657  001524                     	movff	(c:___flmul@prod),(c:?___flmul)
  9658  001524  C03B  F028         	movff	(c:___flmul@prod+1),(c:?___flmul+1)
  9659  001528  C03C  F029         	movff	(c:___flmul@prod+2),(c:?___flmul+2)
  9660  00152C  C03D  F02A         	movff	(c:___flmul@prod+3),(c:?___flmul+3)
  9661  001530  C03E  F02B         	goto	l896
  9662  001534  EF9C  F00A         	
  9663                           l2942:
  9664  001538                     	line	205
  9665                           	
  9666                           l896:
  9667  001538                     	return	;funcret
  9668  001538  0012               	opt stack 0
  9669                           GLOBAL	__end_of___flmul
  9670                           	__end_of___flmul:
  9671  00153A                     	signat	___flmul,8316
  9672                           	global	___fldiv
  9673                           
  9674 ;; *************** function ___fldiv *****************
  9675 ;; Defined at:
  9676 ;;		line 11 in file "C:\Program Files (x86)\Microchip\xc8\v2.00\pic\sources\c99\common\sprcdiv.c"
  9677 ;; Parameters:    Size  Location     Type
  9678 ;;  b               4   14[COMRAM] unsigned char 
  9679 ;;  a               4   18[COMRAM] unsigned char 
  9680 ;; Auto vars:     Size  Location     Type
  9681 ;;  grs             4   33[COMRAM] unsigned long 
  9682 ;;  rem             4   26[COMRAM] unsigned long 
  9683 ;;  new_exp         2   31[COMRAM] short 
  9684 ;;  aexp            1   38[COMRAM] unsigned char 
  9685 ;;  bexp            1   37[COMRAM] unsigned char 
  9686 ;;  sign            1   30[COMRAM] unsigned char 
  9687 ;; Return value:  Size  Location     Type
  9688 ;;                  4   14[COMRAM] unsigned char 
  9689 ;; Registers used:
  9690 ;;		wreg, status,2, status,0
  9691 ;; Tracked objects:
  9692 ;;		On entry : 0/0
  9693 ;;		On exit  : 0/0
  9694 ;;		Unchanged: 0/0
  9695 ;; Data sizes:     COMRAM   BANK0   BANK1   BANK2   BANK3   BANK4   BANK5
  9696 ;;      Params:         8       0       0       0       0       0       0
  9697 ;;      Locals:        13       0       0       0       0       0       0
  9698 ;;      Temps:          4       0       0       0       0       0       0
  9699 ;;      Totals:        25       0       0       0       0       0       0
  9700 ;;Total ram usage:       25 bytes
  9701 ;; Hardware stack levels used:    1
  9702 ;; Hardware stack levels required when called:    1
  9703 ;; This function calls:
  9704 ;;		Nothing
  9705 ;; This function is called by:
  9706 ;;		_MapRGB
  9707 ;;		_USART_Init
  9708 ;; This function uses a non-reentrant model
  9709 ;;
  9710                           psect	text26,class=CODE,space=0,reloc=2,group=1
  9711                           	file	"C:\Program Files (x86)\Microchip\xc8\v2.00\pic\sources\c99\common\sprcdiv.c"
  9712                           	line	11
  9713                           global __ptext26
  9714                           __ptext26:
  9715  00153A                     psect	text26
  9716                           	file	"C:\Program Files (x86)\Microchip\xc8\v2.00\pic\sources\c99\common\sprcdiv.c"
  9717                           	line	11
  9718                           	global	__size_of___fldiv
  9719                           	__size_of___fldiv	equ	__end_of___fldiv-___fldiv
  9720  0000                     	
  9721                           ___fldiv:
  9722  00153A                     ;incstack = 0
  9723                           	opt	stack 28
  9724                           	line	26
  9725                           	
  9726                           l2676:
  9727  00153A                     	movf	(0+((c:___fldiv@b)+03h)),c,w
  9728  00153A  5012               	andlw	low(080h)
  9729  00153C  0B80               	movwf	((c:___fldiv@sign)),c
  9730  00153E  6E1F               	line	27
  9731                           	movf	(0+((c:___fldiv@b)+03h)),c,w
  9732  001540  5012               	addwf	(0+((c:___fldiv@b)+03h)),c,w
  9733  001542  2412               	movwf	((c:___fldiv@bexp)),c
  9734  001544  6E26               	line	28
  9735                           	
  9736                           l2678:
  9737  001546                     	
  9738                           	btfss	(0+((c:___fldiv@b)+02h)),c,(7)&7
  9739  001546  AE11               	goto	u3071
  9740  001548  EFA8  F00A         	goto	u3070
  9741  00154C  EFAA  F00A         u3071:
  9742  001550                     	goto	l2682
  9743  001550  EFAD  F00A         u3070:
  9744  001554                     	line	29
  9745                           	
  9746                           l2680:
  9747  001554                     	bsf	(0+(0/8)+(c:___fldiv@bexp)),c,(0)&7
  9748  001554  8026               	goto	l2682
  9749  001556  EFAD  F00A         	line	30
  9750                           	
  9751                           l851:
  9752  00155A                     	line	33
  9753                           	
  9754                           l2682:
  9755  00155A                     	movf	((c:___fldiv@bexp)),c,w
  9756  00155A  5026               	btfsc	status,2
  9757  00155C  B4D8               	goto	u3081
  9758  00155E  EFB3  F00A         	goto	u3080
  9759  001562  EFB5  F00A         u3081:
  9760  001566                     	goto	l2692
  9761  001566  EFCC  F00A         u3080:
  9762  00156A                     	line	35
  9763                           	
  9764                           l2684:
  9765  00156A                     		incf	((c:___fldiv@bexp)),c,w
  9766  00156A  2826               	btfss	status,2
  9767  00156C  A4D8               	goto	u3091
  9768  00156E  EFBB  F00A         	goto	u3090
  9769  001572  EFBD  F00A         
  9770                           u3091:
  9771  001576                     	goto	l2688
  9772  001576  EFC7  F00A         u3090:
  9773  00157A                     	line	37
  9774                           	
  9775                           l2686:
  9776  00157A                     	movlw	low(normalize32(0x0))
  9777  00157A  0E00               	movwf	((c:___fldiv@b)),c
  9778  00157C  6E0F               	movlw	high(normalize32(0x0))
  9779  00157E  0E00               	movwf	((c:___fldiv@b+1)),c
  9780  001580  6E10               	movlw	low highword(normalize32(0x0))
  9781  001582  0E00               	movwf	((c:___fldiv@b+2)),c
  9782  001584  6E11               	movlw	high highword(normalize32(0x0))
  9783  001586  0E00               	movwf	((c:___fldiv@b+3)),c
  9784  001588  6E12               	goto	l2688
  9785  00158A  EFC7  F00A         	line	38
  9786                           	
  9787                           l853:
  9788  00158E                     	line	40
  9789                           	
  9790                           l2688:
  9791  00158E                     	bsf	(0+(23/8)+(c:___fldiv@b)),c,(23)&7
  9792  00158E  8E11               	line	42
  9793                           	
  9794                           l2690:
  9795  001590                     	movlw	low(0)
  9796  001590  0E00               	movwf	(0+((c:___fldiv@b)+03h)),c
  9797  001592  6E12               	line	43
  9798                           	goto	l2694
  9799  001594  EFD6  F00A         	line	44
  9800                           	
  9801                           l852:
  9802  001598                     	line	46
  9803                           	
  9804                           l2692:
  9805  001598                     	movlw	low(normalize32(0x0))
  9806  001598  0E00               	movwf	((c:___fldiv@b)),c
  9807  00159A  6E0F               	movlw	high(normalize32(0x0))
  9808  00159C  0E00               	movwf	((c:___fldiv@b+1)),c
  9809  00159E  6E10               	movlw	low highword(normalize32(0x0))
  9810  0015A0  0E00               	movwf	((c:___fldiv@b+2)),c
  9811  0015A2  6E11               	movlw	high highword(normalize32(0x0))
  9812  0015A4  0E00               	movwf	((c:___fldiv@b+3)),c
  9813  0015A6  6E12               	goto	l2694
  9814  0015A8  EFD6  F00A         	line	47
  9815                           	
  9816                           l854:
  9817  0015AC                     	line	49
  9818                           	
  9819                           l2694:
  9820  0015AC                     	movf	(0+((c:___fldiv@a)+03h)),c,w
  9821  0015AC  5016               	andlw	low(080h)
  9822  0015AE  0B80               	xorwf	((c:___fldiv@sign)),c
  9823  0015B0  1A1F               	line	50
  9824                           	
  9825                           l2696:
  9826  0015B2                     	movf	(0+((c:___fldiv@a)+03h)),c,w
  9827  0015B2  5016               	addwf	(0+((c:___fldiv@a)+03h)),c,w
  9828  0015B4  2416               	movwf	((c:___fldiv@aexp)),c
  9829  0015B6  6E27               	line	51
  9830                           	
  9831                           l2698:
  9832  0015B8                     	
  9833                           	btfss	(0+((c:___fldiv@a)+02h)),c,(7)&7
  9834  0015B8  AE15               	goto	u3101
  9835  0015BA  EFE1  F00A         	goto	u3100
  9836  0015BE  EFE3  F00A         u3101:
  9837  0015C2                     	goto	l2702
  9838  0015C2  EFE6  F00A         u3100:
  9839  0015C6                     	line	52
  9840                           	
  9841                           l2700:
  9842  0015C6                     	bsf	(0+(0/8)+(c:___fldiv@aexp)),c,(0)&7
  9843  0015C6  8027               	goto	l2702
  9844  0015C8  EFE6  F00A         	line	53
  9845                           	
  9846                           l855:
  9847  0015CC                     	line	56
  9848                           	
  9849                           l2702:
  9850  0015CC                     	movf	((c:___fldiv@aexp)),c,w
  9851  0015CC  5027               	btfsc	status,2
  9852  0015CE  B4D8               	goto	u3111
  9853  0015D0  EFEC  F00A         	goto	u3110
  9854  0015D4  EFEE  F00A         u3111:
  9855  0015D8                     	goto	l2712
  9856  0015D8  EF05  F00B         u3110:
  9857  0015DC                     	line	58
  9858                           	
  9859                           l2704:
  9860  0015DC                     		incf	((c:___fldiv@aexp)),c,w
  9861  0015DC  2827               	btfss	status,2
  9862  0015DE  A4D8               	goto	u3121
  9863  0015E0  EFF4  F00A         	goto	u3120
  9864  0015E4  EFF6  F00A         
  9865                           u3121:
  9866  0015E8                     	goto	l2708
  9867  0015E8  EF00  F00B         u3120:
  9868  0015EC                     	line	60
  9869                           	
  9870                           l2706:
  9871  0015EC                     	movlw	low(normalize32(0x0))
  9872  0015EC  0E00               	movwf	((c:___fldiv@a)),c
  9873  0015EE  6E13               	movlw	high(normalize32(0x0))
  9874  0015F0  0E00               	movwf	((c:___fldiv@a+1)),c
  9875  0015F2  6E14               	movlw	low highword(normalize32(0x0))
  9876  0015F4  0E00               	movwf	((c:___fldiv@a+2)),c
  9877  0015F6  6E15               	movlw	high highword(normalize32(0x0))
  9878  0015F8  0E00               	movwf	((c:___fldiv@a+3)),c
  9879  0015FA  6E16               	goto	l2708
  9880  0015FC  EF00  F00B         	line	61
  9881                           	
  9882                           l857:
  9883  001600                     	line	63
  9884                           	
  9885                           l2708:
  9886  001600                     	bsf	(0+(23/8)+(c:___fldiv@a)),c,(23)&7
  9887  001600  8E15               	line	65
  9888                           	
  9889                           l2710:
  9890  001602                     	movlw	low(0)
  9891  001602  0E00               	movwf	(0+((c:___fldiv@a)+03h)),c
  9892  001604  6E16               	line	66
  9893                           	goto	l2714
  9894  001606  EF0F  F00B         	line	67
  9895                           	
  9896                           l856:
  9897  00160A                     	line	69
  9898                           	
  9899                           l2712:
  9900  00160A                     	movlw	low(normalize32(0x0))
  9901  00160A  0E00               	movwf	((c:___fldiv@a)),c
  9902  00160C  6E13               	movlw	high(normalize32(0x0))
  9903  00160E  0E00               	movwf	((c:___fldiv@a+1)),c
  9904  001610  6E14               	movlw	low highword(normalize32(0x0))
  9905  001612  0E00               	movwf	((c:___fldiv@a+2)),c
  9906  001614  6E15               	movlw	high highword(normalize32(0x0))
  9907  001616  0E00               	movwf	((c:___fldiv@a+3)),c
  9908  001618  6E16               	goto	l2714
  9909  00161A  EF0F  F00B         	line	70
  9910                           	
  9911                           l858:
  9912  00161E                     	line	75
  9913                           	
  9914                           l2714:
  9915  00161E                     	movf	((c:___fldiv@a)),c,w
  9916  00161E  5013               iorwf	((c:___fldiv@a+1)),c,w
  9917  001620  1014               iorwf	((c:___fldiv@a+2)),c,w
  9918  001622  1015               iorwf	((c:___fldiv@a+3)),c,w
  9919  001624  1016               	btfss	status,2
  9920  001626  A4D8               	goto	u3131
  9921  001628  EF18  F00B         	goto	u3130
  9922  00162C  EF1A  F00B         
  9923                           u3131:
  9924  001630                     	goto	l2726
  9925  001630  EF34  F00B         u3130:
  9926  001634                     	line	76
  9927                           	
  9928                           l2716:
  9929  001634                     	movlw	low(0)
  9930  001634  0E00               	movwf	((c:___fldiv@b)),c
  9931  001636  6E0F               	movlw	high(0)
  9932  001638  0E00               	movwf	((c:___fldiv@b+1)),c
  9933  00163A  6E10               	movlw	low highword(0)
  9934  00163C  0E00               	movwf	((c:___fldiv@b+2)),c
  9935  00163E  6E11               	movlw	high highword(0)
  9936  001640  0E00               	movwf	((c:___fldiv@b+3)),c
  9937  001642  6E12               	line	77
  9938                           	
  9939                           l2718:
  9940  001644                     	movlw	low(07F80h)
  9941  001644  0E80               	iorwf	(0+((c:___fldiv@b)+02h)),c
  9942  001646  1211               	movlw	high(07F80h)
  9943  001648  0E7F               	iorwf	(1+((c:___fldiv@b)+02h)),c
  9944  00164A  1212               	line	78
  9945                           	
  9946                           l2720:
  9947  00164C                     	movf	((c:___fldiv@sign)),c,w
  9948  00164C  501F               	iorwf	(0+((c:___fldiv@b)+03h)),c
  9949  00164E  1212               	line	79
  9950                           	
  9951                           l2722:
  9952  001650                     	movff	(c:___fldiv@b),(c:?___fldiv)
  9953  001650  C00F  F00F         	movff	(c:___fldiv@b+1),(c:?___fldiv+1)
  9954  001654  C010  F010         	movff	(c:___fldiv@b+2),(c:?___fldiv+2)
  9955  001658  C011  F011         	movff	(c:___fldiv@b+3),(c:?___fldiv+3)
  9956  00165C  C012  F012         	goto	l860
  9957  001660  EFAC  F00C         	
  9958                           l2724:
  9959  001664                     	goto	l860
  9960  001664  EFAC  F00C         	line	80
  9961                           	
  9962                           l859:
  9963  001668                     	line	83
  9964                           	
  9965                           l2726:
  9966  001668                     	movf	((c:___fldiv@bexp)),c,w
  9967  001668  5026               	btfss	status,2
  9968  00166A  A4D8               	goto	u3141
  9969  00166C  EF3A  F00B         	goto	u3140
  9970  001670  EF3C  F00B         u3141:
  9971  001674                     	goto	l2734
  9972  001674  EF50  F00B         u3140:
  9973  001678                     	line	84
  9974                           	
  9975                           l2728:
  9976  001678                     	movlw	low(0)
  9977  001678  0E00               	movwf	((c:___fldiv@b)),c
  9978  00167A  6E0F               	movlw	high(0)
  9979  00167C  0E00               	movwf	((c:___fldiv@b+1)),c
  9980  00167E  6E10               	movlw	low highword(0)
  9981  001680  0E00               	movwf	((c:___fldiv@b+2)),c
  9982  001682  6E11               	movlw	high highword(0)
  9983  001684  0E00               	movwf	((c:___fldiv@b+3)),c
  9984  001686  6E12               	line	85
  9985                           	
  9986                           l2730:
  9987  001688                     	movff	(c:___fldiv@b),(c:?___fldiv)
  9988  001688  C00F  F00F         	movff	(c:___fldiv@b+1),(c:?___fldiv+1)
  9989  00168C  C010  F010         	movff	(c:___fldiv@b+2),(c:?___fldiv+2)
  9990  001690  C011  F011         	movff	(c:___fldiv@b+3),(c:?___fldiv+3)
  9991  001694  C012  F012         	goto	l860
  9992  001698  EFAC  F00C         	
  9993                           l2732:
  9994  00169C                     	goto	l860
  9995  00169C  EFAC  F00C         	line	86
  9996                           	
  9997                           l861:
  9998  0016A0                     	line	89
  9999                           	
 10000                           l2734:
 10001  0016A0                     	movf	((c:___fldiv@aexp)),c,w
 10002  0016A0  5027               	movwf	(??___fldiv+0+0)&0ffh,c
 10003  0016A2  6E17               	clrf	(??___fldiv+0+0+1)&0ffh,c
 10004  0016A4  6A18               
 10005                           	comf	(??___fldiv+0+0),c
 10006  0016A6  1E17               	comf	(??___fldiv+0+1),c
 10007  0016A8  1E18               	infsnz	(??___fldiv+0+0),c
 10008  0016AA  4A17               	incf	(??___fldiv+0+1),c
 10009  0016AC  2A18               	movf	((c:___fldiv@bexp)),c,w
 10010  0016AE  5026               	movwf	(??___fldiv+2+0)&0ffh,c
 10011  0016B0  6E19               	clrf	(??___fldiv+2+0+1)&0ffh,c
 10012  0016B2  6A1A               
 10013                           	movf	(??___fldiv+0+0),c,w
 10014  0016B4  5017               	addwf	(??___fldiv+2+0),c
 10015  0016B6  2619               	movf	(??___fldiv+0+1),c,w
 10016  0016B8  5018               	addwfc	(??___fldiv+2+1),c
 10017  0016BA  221A               	movlw	low(07Fh)
 10018  0016BC  0E7F               	addwf	(??___fldiv+2+0),c,w
 10019  0016BE  2419               	movwf	((c:___fldiv@new_exp)),c
 10020  0016C0  6E20               	movlw	high(07Fh)
 10021  0016C2  0E00               	addwfc	(??___fldiv+2+1),c,w
 10022  0016C4  201A               	movwf	1+((c:___fldiv@new_exp)),c
 10023  0016C6  6E21               	line	92
 10024                           	
 10025                           l2736:
 10026  0016C8                     	movff	(c:___fldiv@b),(c:___fldiv@rem)
 10027  0016C8  C00F  F01B         	movff	(c:___fldiv@b+1),(c:___fldiv@rem+1)
 10028  0016CC  C010  F01C         	movff	(c:___fldiv@b+2),(c:___fldiv@rem+2)
 10029  0016D0  C011  F01D         	movff	(c:___fldiv@b+3),(c:___fldiv@rem+3)
 10030  0016D4  C012  F01E         	line	93
 10031                           	
 10032                           l2738:
 10033  0016D8                     	movlw	low(0)
 10034  0016D8  0E00               	movwf	((c:___fldiv@b)),c
 10035  0016DA  6E0F               	movlw	high(0)
 10036  0016DC  0E00               	movwf	((c:___fldiv@b+1)),c
 10037  0016DE  6E10               	movlw	low highword(0)
 10038  0016E0  0E00               	movwf	((c:___fldiv@b+2)),c
 10039  0016E2  6E11               	movlw	high highword(0)
 10040  0016E4  0E00               	movwf	((c:___fldiv@b+3)),c
 10041  0016E6  6E12               	line	94
 10042                           	
 10043                           l2740:
 10044  0016E8                     	movlw	low(0)
 10045  0016E8  0E00               	movwf	((c:___fldiv@grs)),c
 10046  0016EA  6E22               	movlw	high(0)
 10047  0016EC  0E00               	movwf	((c:___fldiv@grs+1)),c
 10048  0016EE  6E23               	movlw	low highword(0)
 10049  0016F0  0E00               	movwf	((c:___fldiv@grs+2)),c
 10050  0016F2  6E24               	movlw	high highword(0)
 10051  0016F4  0E00               	movwf	((c:___fldiv@grs+3)),c
 10052  0016F6  6E25               	line	96
 10053                           	
 10054                           l2742:
 10055  0016F8                     	movlw	low(0)
 10056  0016F8  0E00               	movwf	((c:___fldiv@aexp)),c
 10057  0016FA  6E27               	line	97
 10058                           	goto	l862
 10059  0016FC  EFBC  F00B         	
 10060                           l863:
 10061  001700                     	line	100
 10062                           	
 10063                           l2744:
 10064  001700                     	movf	((c:___fldiv@aexp)),c,w
 10065  001700  5027               	btfsc	status,2
 10066  001702  B4D8               	goto	u3151
 10067  001704  EF86  F00B         	goto	u3150
 10068  001708  EF88  F00B         u3151:
 10069  00170C                     	goto	l2752
 10070  00170C  EFA1  F00B         u3150:
 10071  001710                     	line	101
 10072                           	
 10073                           l2746:
 10074  001710                     	bcf	status,0
 10075  001710  90D8               	rlcf	((c:___fldiv@rem)),c
 10076  001712  361B               	rlcf	((c:___fldiv@rem+1)),c
 10077  001714  361C               	rlcf	((c:___fldiv@rem+2)),c
 10078  001716  361D               	rlcf	((c:___fldiv@rem+3)),c
 10079  001718  361E               	line	102
 10080                           	bcf	status,0
 10081  00171A  90D8               	rlcf	((c:___fldiv@b)),c
 10082  00171C  360F               	rlcf	((c:___fldiv@b+1)),c
 10083  00171E  3610               	rlcf	((c:___fldiv@b+2)),c
 10084  001720  3611               	rlcf	((c:___fldiv@b+3)),c
 10085  001722  3612               	line	103
 10086                           	
 10087                           l2748:
 10088  001724                     	
 10089                           	btfss	((c:___fldiv@grs+3)),c,(31)&7
 10090  001724  AE25               	goto	u3161
 10091  001726  EF97  F00B         	goto	u3160
 10092  00172A  EF99  F00B         u3161:
 10093  00172E                     	goto	l865
 10094  00172E  EF9A  F00B         u3160:
 10095  001732                     	line	104
 10096                           	
 10097                           l2750:
 10098  001732                     	bsf	(0+(0/8)+(c:___fldiv@b)),c,(0)&7
 10099  001732  800F               	line	105
 10100                           	
 10101                           l865:
 10102  001734                     	line	106
 10103                           	bcf	status,0
 10104  001734  90D8               	rlcf	((c:___fldiv@grs)),c
 10105  001736  3622               	rlcf	((c:___fldiv@grs+1)),c
 10106  001738  3623               	rlcf	((c:___fldiv@grs+2)),c
 10107  00173A  3624               	rlcf	((c:___fldiv@grs+3)),c
 10108  00173C  3625               	goto	l2752
 10109  00173E  EFA1  F00B         	line	107
 10110                           	
 10111                           l864:
 10112  001742                     	line	112
 10113                           	
 10114                           l2752:
 10115  001742                     		movf	((c:___fldiv@a)),c,w
 10116  001742  5013               	subwf	((c:___fldiv@rem)),c,w
 10117  001744  5C1B               	movf	((c:___fldiv@a+1)),c,w
 10118  001746  5014               	subwfb	((c:___fldiv@rem+1)),c,w
 10119  001748  581C               	movf	((c:___fldiv@a+2)),c,w
 10120  00174A  5015               	subwfb	((c:___fldiv@rem+2)),c,w
 10121  00174C  581D               	movf	((c:___fldiv@a+3)),c,w
 10122  00174E  5016               	subwfb	((c:___fldiv@rem+3)),c,w
 10123  001750  581E               	btfss	status,0
 10124  001752  A0D8               	goto	u3171
 10125  001754  EFAE  F00B         	goto	u3170
 10126  001758  EFB0  F00B         
 10127                           u3171:
 10128  00175C                     	goto	l2758
 10129  00175C  EFBB  F00B         u3170:
 10130  001760                     	line	115
 10131                           	
 10132                           l2754:
 10133  001760                     	bsf	(0+(30/8)+(c:___fldiv@grs)),c,(30)&7
 10134  001760  8C25               	line	116
 10135                           	
 10136                           l2756:
 10137  001762                     	movf	((c:___fldiv@a)),c,w
 10138  001762  5013               	subwf	((c:___fldiv@rem)),c
 10139  001764  5E1B               	movf	((c:___fldiv@a+1)),c,w
 10140  001766  5014               	subwfb	((c:___fldiv@rem+1)),c
 10141  001768  5A1C               	movf	((c:___fldiv@a+2)),c,w
 10142  00176A  5015               	subwfb	((c:___fldiv@rem+2)),c
 10143  00176C  5A1D               	movf	((c:___fldiv@a+3)),c,w
 10144  00176E  5016               	subwfb	((c:___fldiv@rem+3)),c
 10145  001770  5A1E               	goto	l2758
 10146  001772  EFBB  F00B         	line	117
 10147                           	
 10148                           l866:
 10149  001776                     	line	118
 10150                           	
 10151                           l2758:
 10152  001776                     	incf	((c:___fldiv@aexp)),c
 10153  001776  2A27               	line	119
 10154                           	
 10155                           l862:
 10156  001778                     	line	97
 10157                           		movlw	01Ah-1
 10158  001778  0E19               	cpfsgt	((c:___fldiv@aexp)),c
 10159  00177A  6427               	goto	u3181
 10160  00177C  EFC2  F00B         	goto	u3180
 10161  001780  EFC4  F00B         
 10162                           u3181:
 10163  001784                     	goto	l2744
 10164  001784  EF80  F00B         u3180:
 10165  001788                     	goto	l2760
 10166  001788  EFC6  F00B         	
 10167                           l867:
 10168  00178C                     	line	122
 10169                           	
 10170                           l2760:
 10171  00178C                     	movf	((c:___fldiv@rem)),c,w
 10172  00178C  501B               iorwf	((c:___fldiv@rem+1)),c,w
 10173  00178E  101C               iorwf	((c:___fldiv@rem+2)),c,w
 10174  001790  101D               iorwf	((c:___fldiv@rem+3)),c,w
 10175  001792  101E               	btfsc	status,2
 10176  001794  B4D8               	goto	u3191
 10177  001796  EFCF  F00B         	goto	u3190
 10178  00179A  EFD1  F00B         
 10179                           u3191:
 10180  00179E                     	goto	l2770
 10181  00179E  EFED  F00B         u3190:
 10182  0017A2                     	line	123
 10183                           	
 10184                           l2762:
 10185  0017A2                     	bsf	(0+(0/8)+(c:___fldiv@grs)),c,(0)&7
 10186  0017A2  8022               	goto	l2770
 10187  0017A4  EFED  F00B         	line	124
 10188                           	
 10189                           l868:
 10190  0017A8                     	line	127
 10191                           	goto	l2770
 10192  0017A8  EFED  F00B         	
 10193                           l870:
 10194  0017AC                     	line	128
 10195                           	
 10196                           l2764:
 10197  0017AC                     	bcf	status,0
 10198  0017AC  90D8               	rlcf	((c:___fldiv@b)),c
 10199  0017AE  360F               	rlcf	((c:___fldiv@b+1)),c
 10200  0017B0  3610               	rlcf	((c:___fldiv@b+2)),c
 10201  0017B2  3611               	rlcf	((c:___fldiv@b+3)),c
 10202  0017B4  3612               	line	129
 10203                           	
 10204                           l2766:
 10205  0017B6                     	
 10206                           	btfss	((c:___fldiv@grs+3)),c,(31)&7
 10207  0017B6  AE25               	goto	u3201
 10208  0017B8  EFE0  F00B         	goto	u3200
 10209  0017BC  EFE2  F00B         u3201:
 10210  0017C0                     	goto	l871
 10211  0017C0  EFE3  F00B         u3200:
 10212  0017C4                     	line	130
 10213                           	
 10214                           l2768:
 10215  0017C4                     	bsf	(0+(0/8)+(c:___fldiv@b)),c,(0)&7
 10216  0017C4  800F               	line	131
 10217                           	
 10218                           l871:
 10219  0017C6                     	line	132
 10220                           	bcf	status,0
 10221  0017C6  90D8               	rlcf	((c:___fldiv@grs)),c
 10222  0017C8  3622               	rlcf	((c:___fldiv@grs+1)),c
 10223  0017CA  3623               	rlcf	((c:___fldiv@grs+2)),c
 10224  0017CC  3624               	rlcf	((c:___fldiv@grs+3)),c
 10225  0017CE  3625               	line	133
 10226                           	decf	((c:___fldiv@new_exp)),c
 10227  0017D0  0620               	btfss	status,0
 10228  0017D2  A0D8               	decf	((c:___fldiv@new_exp+1)),c
 10229  0017D4  0621               	goto	l2770
 10230  0017D6  EFED  F00B         	line	134
 10231                           	
 10232                           l869:
 10233  0017DA                     	line	127
 10234                           	
 10235                           l2770:
 10236  0017DA                     	
 10237                           	btfss	((c:___fldiv@b+2)),c,(23)&7
 10238  0017DA  AE11               	goto	u3211
 10239  0017DC  EFF2  F00B         	goto	u3210
 10240  0017E0  EFF4  F00B         u3211:
 10241  0017E4                     	goto	l2764
 10242  0017E4  EFD6  F00B         u3210:
 10243  0017E8                     	goto	l2772
 10244  0017E8  EFF6  F00B         	
 10245                           l872:
 10246  0017EC                     	line	139
 10247                           	
 10248                           l2772:
 10249  0017EC                     	movlw	low(0)
 10250  0017EC  0E00               	movwf	((c:___fldiv@aexp)),c
 10251  0017EE  6E27               	line	140
 10252                           	
 10253                           l2774:
 10254  0017F0                     	
 10255                           	btfss	((c:___fldiv@grs+3)),c,(31)&7
 10256  0017F0  AE25               	goto	u3221
 10257  0017F2  EFFD  F00B         	goto	u3220
 10258  0017F6  EFFF  F00B         u3221:
 10259  0017FA                     	goto	l873
 10260  0017FA  EF27  F00C         u3220:
 10261  0017FE                     	line	141
 10262                           	
 10263                           l2776:
 10264  0017FE                     	movlw	0FFh
 10265  0017FE  0EFF               	andwf	((c:___fldiv@grs)),c,w
 10266  001800  1422               	movwf	(??___fldiv+0+0)&0ffh,c
 10267  001802  6E17               	movlw	0FFh
 10268  001804  0EFF               	andwf	((c:___fldiv@grs+1)),c,w
 10269  001806  1423               	movwf	1+(??___fldiv+0+0)&0ffh,c
 10270  001808  6E18               	
 10271                           	movlw	0FFh
 10272  00180A  0EFF               	andwf	((c:___fldiv@grs+2)),c,w
 10273  00180C  1424               	movwf	2+(??___fldiv+0+0)&0ffh,c
 10274  00180E  6E19               	
 10275                           	movlw	07Fh
 10276  001810  0E7F               	andwf	((c:___fldiv@grs+3)),c,w
 10277  001812  1425               	movwf	3+(??___fldiv+0+0)&0ffh,c
 10278  001814  6E1A               	movf	(??___fldiv+0+0),c,w
 10279  001816  5017               iorwf	(??___fldiv+0+1),c,w
 10280  001818  1018               iorwf	(??___fldiv+0+2),c,w
 10281  00181A  1019               iorwf	(??___fldiv+0+3),c,w
 10282  00181C  101A               	btfsc	status,2
 10283  00181E  B4D8               	goto	u3231
 10284  001820  EF14  F00C         	goto	u3230
 10285  001824  EF16  F00C         
 10286                           u3231:
 10287  001828                     	goto	l874
 10288  001828  EF1A  F00C         u3230:
 10289  00182C                     	line	142
 10290                           	
 10291                           l2778:
 10292  00182C                     	movlw	low(01h)
 10293  00182C  0E01               	movwf	((c:___fldiv@aexp)),c
 10294  00182E  6E27               	line	143
 10295                           	goto	l873
 10296  001830  EF27  F00C         	line	144
 10297                           	
 10298                           l874:
 10299  001834                     	line	145
 10300                           	
 10301                           	btfss	((c:___fldiv@b)),c,(0)&7
 10302  001834  A00F               	goto	u3241
 10303  001836  EF1F  F00C         	goto	u3240
 10304  00183A  EF21  F00C         u3241:
 10305  00183E                     	goto	l873
 10306  00183E  EF27  F00C         u3240:
 10307  001842                     	line	146
 10308                           	
 10309                           l2780:
 10310  001842                     	movlw	low(01h)
 10311  001842  0E01               	movwf	((c:___fldiv@aexp)),c
 10312  001844  6E27               	goto	l873
 10313  001846  EF27  F00C         	line	147
 10314                           	
 10315                           l876:
 10316  00184A                     	goto	l873
 10317  00184A  EF27  F00C         	line	148
 10318                           	
 10319                           l875:
 10320  00184E                     	line	149
 10321                           	
 10322                           l873:
 10323  00184E                     	line	150
 10324                           	movf	((c:___fldiv@aexp)),c,w
 10325  00184E  5027               	btfsc	status,2
 10326  001850  B4D8               	goto	u3251
 10327  001852  EF2D  F00C         	goto	u3250
 10328  001856  EF2F  F00C         u3251:
 10329  00185A                     	goto	l2790
 10330  00185A  EF57  F00C         u3250:
 10331  00185E                     	line	151
 10332                           	
 10333                           l2782:
 10334  00185E                     	movlw	low(01h)
 10335  00185E  0E01               	addwf	((c:___fldiv@b)),c
 10336  001860  260F               	movlw	0
 10337  001862  0E00               	addwfc	((c:___fldiv@b+1)),c
 10338  001864  2210               	addwfc	((c:___fldiv@b+2)),c
 10339  001866  2211               	addwfc	((c:___fldiv@b+3)),c
 10340  001868  2212               	line	152
 10341                           	
 10342                           l2784:
 10343  00186A                     	
 10344                           	btfss	((c:___fldiv@b+3)),c,(24)&7
 10345  00186A  A012               	goto	u3261
 10346  00186C  EF3A  F00C         	goto	u3260
 10347  001870  EF3C  F00C         u3261:
 10348  001874                     	goto	l2790
 10349  001874  EF57  F00C         u3260:
 10350  001878                     	line	153
 10351                           	
 10352                           l2786:
 10353  001878                     	movff	(c:___fldiv@b),??___fldiv+0+0
 10354  001878  C00F  F017         	movff	(c:___fldiv@b+1),??___fldiv+0+0+1
 10355  00187C  C010  F018         	movff	(c:___fldiv@b+2),??___fldiv+0+0+2
 10356  001880  C011  F019         	movff	(c:___fldiv@b+3),??___fldiv+0+0+3
 10357  001884  C012  F01A         	rlcf	(??___fldiv+0+3),c,w
 10358  001888  341A               	rrcf	(??___fldiv+0+3),c
 10359  00188A  321A               	rrcf	(??___fldiv+0+2),c
 10360  00188C  3219               	rrcf	(??___fldiv+0+1),c
 10361  00188E  3218               	rrcf	(??___fldiv+0+0),c
 10362  001890  3217               	movff	??___fldiv+0+0,(c:___fldiv@b)
 10363  001892  C017  F00F         	movff	??___fldiv+0+1,(c:___fldiv@b+1)
 10364  001896  C018  F010         	movff	??___fldiv+0+2,(c:___fldiv@b+2)
 10365  00189A  C019  F011         	movff	??___fldiv+0+3,(c:___fldiv@b+3)
 10366  00189E  C01A  F012         	line	154
 10367                           	
 10368                           l2788:
 10369  0018A2                     	infsnz	((c:___fldiv@new_exp)),c
 10370  0018A2  4A20               	incf	((c:___fldiv@new_exp+1)),c
 10371  0018A4  2A21               	goto	l2790
 10372  0018A6  EF57  F00C         	line	155
 10373                           	
 10374                           l878:
 10375  0018AA                     	goto	l2790
 10376  0018AA  EF57  F00C         	line	156
 10377                           	
 10378                           l877:
 10379  0018AE                     	line	159
 10380                           	
 10381                           l2790:
 10382  0018AE                     	btfsc	((c:___fldiv@new_exp+1)),c,7
 10383  0018AE  BE21               	goto	u3271
 10384  0018B0  EF62  F00C         	movf	((c:___fldiv@new_exp+1)),c,w
 10385  0018B4  5021               	bnz	u3270
 10386  0018B6  E108               	incf	((c:___fldiv@new_exp)),c,w
 10387  0018B8  2820               	btfss	status,0
 10388  0018BA  A0D8               	goto	u3271
 10389  0018BC  EF62  F00C         	goto	u3270
 10390  0018C0  EF64  F00C         
 10391                           u3271:
 10392  0018C4                     	goto	l2794
 10393  0018C4  EF71  F00C         u3270:
 10394  0018C8                     	line	160
 10395                           	
 10396                           l2792:
 10397  0018C8                     	movlw	high(0FFh)
 10398  0018C8  0E00               	movwf	((c:___fldiv@new_exp+1)),c
 10399  0018CA  6E21               	setf	((c:___fldiv@new_exp)),c
 10400  0018CC  6820               	line	161
 10401                           	movlw	low(0)
 10402  0018CE  0E00               	movwf	((c:___fldiv@b)),c
 10403  0018D0  6E0F               	movlw	high(0)
 10404  0018D2  0E00               	movwf	((c:___fldiv@b+1)),c
 10405  0018D4  6E10               	movlw	low highword(0)
 10406  0018D6  0E00               	movwf	((c:___fldiv@b+2)),c
 10407  0018D8  6E11               	movlw	high highword(0)
 10408  0018DA  0E00               	movwf	((c:___fldiv@b+3)),c
 10409  0018DC  6E12               	goto	l2794
 10410  0018DE  EF71  F00C         	line	162
 10411                           	
 10412                           l879:
 10413  0018E2                     	line	165
 10414                           	
 10415                           l2794:
 10416  0018E2                     	btfsc	((c:___fldiv@new_exp+1)),c,7
 10417  0018E2  BE21               	goto	u3280
 10418  0018E4  EF7E  F00C         	movf	((c:___fldiv@new_exp+1)),c,w
 10419  0018E8  5021               	bnz	u3281
 10420  0018EA  E106               	decf	((c:___fldiv@new_exp)),c,w
 10421  0018EC  0420               	btfsc	status,0
 10422  0018EE  B0D8               	goto	u3281
 10423  0018F0  EF7C  F00C         	goto	u3280
 10424  0018F4  EF7E  F00C         
 10425                           u3281:
 10426  0018F8                     	goto	l2798
 10427  0018F8  EF8E  F00C         u3280:
 10428  0018FC                     	line	166
 10429                           	
 10430                           l2796:
 10431  0018FC                     	movlw	high(0)
 10432  0018FC  0E00               	movwf	((c:___fldiv@new_exp+1)),c
 10433  0018FE  6E21               	movlw	low(0)
 10434  001900  0E00               	movwf	((c:___fldiv@new_exp)),c
 10435  001902  6E20               	line	167
 10436                           	movlw	low(0)
 10437  001904  0E00               	movwf	((c:___fldiv@b)),c
 10438  001906  6E0F               	movlw	high(0)
 10439  001908  0E00               	movwf	((c:___fldiv@b+1)),c
 10440  00190A  6E10               	movlw	low highword(0)
 10441  00190C  0E00               	movwf	((c:___fldiv@b+2)),c
 10442  00190E  6E11               	movlw	high highword(0)
 10443  001910  0E00               	movwf	((c:___fldiv@b+3)),c
 10444  001912  6E12               	line	169
 10445                           	movlw	low(0)
 10446  001914  0E00               	movwf	((c:___fldiv@sign)),c
 10447  001916  6E1F               	goto	l2798
 10448  001918  EF8E  F00C         	line	170
 10449                           	
 10450                           l880:
 10451  00191C                     	line	173
 10452                           	
 10453                           l2798:
 10454  00191C                     	movff	(c:___fldiv@new_exp),(c:___fldiv@bexp)
 10455  00191C  C020  F026         	line	175
 10456                           	
 10457                           l2800:
 10458  001920                     	
 10459                           	btfss	((c:___fldiv@bexp)),c,(0)&7
 10460  001920  A026               	goto	u3291
 10461  001922  EF95  F00C         	goto	u3290
 10462  001926  EF97  F00C         u3291:
 10463  00192A                     	goto	l2804
 10464  00192A  EF9A  F00C         u3290:
 10465  00192E                     	line	176
 10466                           	
 10467                           l2802:
 10468  00192E                     	bsf	(0+(7/8)+0+((c:___fldiv@b)+02h)),c,(7)&7
 10469  00192E  8E11               	line	177
 10470                           	goto	l2806
 10471  001930  EF9D  F00C         	line	179
 10472                           	
 10473                           l881:
 10474  001934                     	line	180
 10475                           	
 10476                           l2804:
 10477  001934                     	bcf	(0+(7/8)+0+((c:___fldiv@b)+02h)),c,(7)&7
 10478  001934  9E11               	goto	l2806
 10479  001936  EF9D  F00C         	line	181
 10480                           	
 10481                           l882:
 10482  00193A                     	line	182
 10483                           	
 10484                           l2806:
 10485  00193A                     	bcf	status,0
 10486  00193A  90D8               	rrcf	((c:___fldiv@bexp)),c,w
 10487  00193C  3026               	movwf	(0+((c:___fldiv@b)+03h)),c
 10488  00193E  6E12               	line	183
 10489                           	
 10490                           l2808:
 10491  001940                     	movf	((c:___fldiv@sign)),c,w
 10492  001940  501F               	iorwf	(0+((c:___fldiv@b)+03h)),c
 10493  001942  1212               	line	184
 10494                           	
 10495                           l2810:
 10496  001944                     	movff	(c:___fldiv@b),(c:?___fldiv)
 10497  001944  C00F  F00F         	movff	(c:___fldiv@b+1),(c:?___fldiv+1)
 10498  001948  C010  F010         	movff	(c:___fldiv@b+2),(c:?___fldiv+2)
 10499  00194C  C011  F011         	movff	(c:___fldiv@b+3),(c:?___fldiv+3)
 10500  001950  C012  F012         	goto	l860
 10501  001954  EFAC  F00C         	
 10502                           l2812:
 10503  001958                     	line	185
 10504                           	
 10505                           l860:
 10506  001958                     	return	;funcret
 10507  001958  0012               	opt stack 0
 10508                           GLOBAL	__end_of___fldiv
 10509                           	__end_of___fldiv:
 10510  00195A                     	signat	___fldiv,8316
 10511                           	global	_Frequency_Count
 10512                           
 10513 ;; *************** function _Frequency_Count *****************
 10514 ;; Defined at:
 10515 ;;		line 90 in file "main.c"
 10516 ;; Parameters:    Size  Location     Type
 10517 ;;		None
 10518 ;; Auto vars:     Size  Location     Type
 10519 ;;  count           4   20[COMRAM] unsigned long 
 10520 ;; Return value:  Size  Location     Type
 10521 ;;                  4   12[COMRAM] unsigned long 
 10522 ;; Registers used:
 10523 ;;		wreg, status,2, status,0, cstack
 10524 ;; Tracked objects:
 10525 ;;		On entry : 0/0
 10526 ;;		On exit  : 0/0
 10527 ;;		Unchanged: 0/0
 10528 ;; Data sizes:     COMRAM   BANK0   BANK1   BANK2   BANK3   BANK4   BANK5
 10529 ;;      Params:         4       0       0       0       0       0       0
 10530 ;;      Locals:         4       0       0       0       0       0       0
 10531 ;;      Temps:          4       0       0       0       0       0       0
 10532 ;;      Totals:        12       0       0       0       0       0       0
 10533 ;;Total ram usage:       12 bytes
 10534 ;; Hardware stack levels used:    1
 10535 ;; Hardware stack levels required when called:    2
 10536 ;; This function calls:
 10537 ;;		_MSdelay
 10538 ;;		___lmul
 10539 ;; This function is called by:
 10540 ;;		_main
 10541 ;; This function uses a non-reentrant model
 10542 ;;
 10543                           psect	text27,class=CODE,space=0,reloc=2,group=0
 10544                           	file	"main.c"
 10545                           	line	90
 10546                           global __ptext27
 10547                           __ptext27:
 10548  002B52                     psect	text27
 10549                           	file	"main.c"
 10550                           	line	90
 10551                           	global	__size_of_Frequency_Count
 10552                           	__size_of_Frequency_Count	equ	__end_of_Frequency_Count-_Frequency_Count
 10553  0000                     	
 10554                           _Frequency_Count:
 10555  002B52                     ;incstack = 0
 10556                           	opt	stack 28
 10557                           	line	93
 10558                           	
 10559                           l3180:
 10560  002B52                     ;main.c: 92:     unsigned long count;;main.c: 93:     TMR0 = 0;
 10561                           	movlw	high(0)
 10562  002B52  0E00               	movwf	((c:4054+1)),c	;volatile
 10563  002B54  6ED7               	movlw	low(0)
 10564  002B56  0E00               	movwf	((c:4054)),c	;volatile
 10565  002B58  6ED6               	line	94
 10566                           	
 10567                           l3182:
 10568  002B5A                     ;main.c: 94:     T0CONbits.TMR0ON=1;
 10569                           	bsf	((c:4053)),c,7	;volatile
 10570  002B5A  8ED5               	line	95
 10571                           	
 10572                           l3184:
 10573  002B5C                     ;main.c: 95:     MSdelay(100);
 10574                           	movlw	high(064h)
 10575  002B5C  0E00               	movwf	((c:MSdelay@val+1)),c
 10576  002B5E  6E02               	movlw	low(064h)
 10577  002B60  0E64               	movwf	((c:MSdelay@val)),c
 10578  002B62  6E01               	call	_MSdelay	;wreg free
 10579  002B64  EC40  F016         	line	96
 10580                           	
 10581                           l3186:
 10582  002B68                     ;main.c: 96:     T0CONbits.TMR0ON=0;
 10583                           	bcf	((c:4053)),c,7	;volatile
 10584  002B68  9ED5               	line	97
 10585                           	
 10586                           l3188:
 10587  002B6A                     ;main.c: 97:     count = TMR0;
 10588                           	movff	(c:4054),(c:Frequency_Count@count)	;volatile
 10589  002B6A  CFD6 F015          	movff	(c:4054+1),(c:Frequency_Count@count+1)	;volatile
 10590  002B6E  CFD7 F016          	clrf	((c:Frequency_Count@count+2)),c
 10591  002B72  6A17               	clrf	((c:Frequency_Count@count+3)),c
 10592  002B74  6A18               
 10593                           	line	98
 10594                           	
 10595                           l3190:
 10596  002B76                     ;main.c: 98:     count = 10*(count + ((65536*overflow_count)));
 10597                           	movlb	0	; () banked
 10598  002B76  0100               	movf	((_overflow_count))&0ffh,w
 10599  002B78  518C               	movwf	(??_Frequency_Count+0+0)&0ffh,c
 10600  002B7A  6E11               	movf	((_overflow_count+1))&0ffh,w
 10601  002B7C  518D               	movwf	1+(??_Frequency_Count+0+0)&0ffh,c
 10602  002B7E  6E12               	
 10603                           	clrf	2+(??_Frequency_Count+0+0)&0ffh,c
 10604  002B80  6A13               	
 10605                           	clrf	3+(??_Frequency_Count+0+0)&0ffh,c
 10606  002B82  6A14               	movff	??_Frequency_Count+0+1,??_Frequency_Count+0+3
 10607  002B84  C012  F014         	movff	??_Frequency_Count+0+0,??_Frequency_Count+0+2
 10608  002B88  C011  F013         	clrf	(??_Frequency_Count+0+1),c
 10609  002B8C  6A12               	clrf	(??_Frequency_Count+0+0),c
 10610  002B8E  6A11               	movf	((c:Frequency_Count@count)),c,w
 10611  002B90  5015               	addwf	(??_Frequency_Count+0+0),c,w
 10612  002B92  2411               	movwf	((c:___lmul@multiplier)),c
 10613  002B94  6E01               	movf	((c:Frequency_Count@count+1)),c,w
 10614  002B96  5016               	addwfc	(??_Frequency_Count+0+1),c,w
 10615  002B98  2012               	movwf	1+((c:___lmul@multiplier)),c
 10616  002B9A  6E02               	
 10617                           	movf	((c:Frequency_Count@count+2)),c,w
 10618  002B9C  5017               	addwfc	(??_Frequency_Count+0+2),c,w
 10619  002B9E  2013               	movwf	2+((c:___lmul@multiplier)),c
 10620  002BA0  6E03               	
 10621                           	movf	((c:Frequency_Count@count+3)),c,w
 10622  002BA2  5018               	addwfc	(??_Frequency_Count+0+3),c,w
 10623  002BA4  2014               	movwf	3+((c:___lmul@multiplier)),c
 10624  002BA6  6E04               	movlw	low(0Ah)
 10625  002BA8  0E0A               	movwf	((c:___lmul@multiplicand)),c
 10626  002BAA  6E05               	movlw	high(0Ah)
 10627  002BAC  0E00               	movwf	((c:___lmul@multiplicand+1)),c
 10628  002BAE  6E06               	movlw	low highword(0Ah)
 10629  002BB0  0E00               	movwf	((c:___lmul@multiplicand+2)),c
 10630  002BB2  6E07               	movlw	high highword(0Ah)
 10631  002BB4  0E00               	movwf	((c:___lmul@multiplicand+3)),c
 10632  002BB6  6E08               	call	___lmul	;wreg free
 10633  002BB8  EC7A  F016         	movff	0+?___lmul,(c:Frequency_Count@count)
 10634  002BBC  C001  F015         	movff	1+?___lmul,(c:Frequency_Count@count+1)
 10635  002BC0  C002  F016         	movff	2+?___lmul,(c:Frequency_Count@count+2)
 10636  002BC4  C003  F017         	movff	3+?___lmul,(c:Frequency_Count@count+3)
 10637  002BC8  C004  F018         	
 10638                           	line	99
 10639                           	
 10640                           l3192:
 10641  002BCC                     ;main.c: 99:     overflow_count=0;
 10642                           	movlw	high(0)
 10643  002BCC  0E00               	movlb	0	; () banked
 10644  002BCE  0100               	movwf	((_overflow_count+1))&0ffh
 10645  002BD0  6F8D               	movlw	low(0)
 10646  002BD2  0E00               	movwf	((_overflow_count))&0ffh
 10647  002BD4  6F8C               	line	100
 10648                           	
 10649                           l3194:; BSR set to: 0
 10650  002BD6                     
 10651                           ;main.c: 100:     return (count);
 10652                           	movff	(c:Frequency_Count@count),(c:?_Frequency_Count)
 10653  002BD6  C015  F00D         	movff	(c:Frequency_Count@count+1),(c:?_Frequency_Count+1)
 10654  002BDA  C016  F00E         	movff	(c:Frequency_Count@count+2),(c:?_Frequency_Count+2)
 10655  002BDE  C017  F00F         	movff	(c:Frequency_Count@count+3),(c:?_Frequency_Count+3)
 10656  002BE2  C018  F010         	goto	l144
 10657  002BE6  EFF5  F015         	
 10658                           l3196:; BSR set to: 0
 10659  002BEA                     
 10660                           	line	101
 10661                           	
 10662                           l144:; BSR set to: 0
 10663  002BEA                     
 10664                           	return	;funcret
 10665  002BEA  0012               	opt stack 0
 10666                           GLOBAL	__end_of_Frequency_Count
 10667                           	__end_of_Frequency_Count:
 10668  002BEC                     	signat	_Frequency_Count,92
 10669                           	global	___lmul
 10670                           
 10671 ;; *************** function ___lmul *****************
 10672 ;; Defined at:
 10673 ;;		line 15 in file "C:\Program Files (x86)\Microchip\xc8\v2.00\pic\sources\c99\common\Umul32.c"
 10674 ;; Parameters:    Size  Location     Type
 10675 ;;  multiplier      4    0[COMRAM] unsigned long 
 10676 ;;  multiplicand    4    4[COMRAM] unsigned long 
 10677 ;; Auto vars:     Size  Location     Type
 10678 ;;  product         4    8[COMRAM] unsigned long 
 10679 ;; Return value:  Size  Location     Type
 10680 ;;                  4    0[COMRAM] unsigned long 
 10681 ;; Registers used:
 10682 ;;		wreg, status,2, status,0
 10683 ;; Tracked objects:
 10684 ;;		On entry : 0/0
 10685 ;;		On exit  : 0/0
 10686 ;;		Unchanged: 0/0
 10687 ;; Data sizes:     COMRAM   BANK0   BANK1   BANK2   BANK3   BANK4   BANK5
 10688 ;;      Params:         8       0       0       0       0       0       0
 10689 ;;      Locals:         4       0       0       0       0       0       0
 10690 ;;      Temps:          0       0       0       0       0       0       0
 10691 ;;      Totals:        12       0       0       0       0       0       0
 10692 ;;Total ram usage:       12 bytes
 10693 ;; Hardware stack levels used:    1
 10694 ;; Hardware stack levels required when called:    1
 10695 ;; This function calls:
 10696 ;;		Nothing
 10697 ;; This function is called by:
 10698 ;;		_Frequency_Count
 10699 ;; This function uses a non-reentrant model
 10700 ;;
 10701                           psect	text28,class=CODE,space=0,reloc=2,group=1
 10702                           	file	"C:\Program Files (x86)\Microchip\xc8\v2.00\pic\sources\c99\common\Umul32.c"
 10703                           	line	15
 10704                           global __ptext28
 10705                           __ptext28:
 10706  002CF4                     psect	text28
 10707                           	file	"C:\Program Files (x86)\Microchip\xc8\v2.00\pic\sources\c99\common\Umul32.c"
 10708                           	line	15
 10709                           	global	__size_of___lmul
 10710                           	__size_of___lmul	equ	__end_of___lmul-___lmul
 10711  0000                     	
 10712                           ___lmul:; BSR set to: 0
 10713  002CF4                     
 10714                           ;incstack = 0
 10715                           	opt	stack 28
 10716                           	line	119
 10717                           	
 10718                           l2464:
 10719  002CF4                     	movlw	low(0)
 10720  002CF4  0E00               	movwf	((c:___lmul@product)),c
 10721  002CF6  6E09               	movlw	high(0)
 10722  002CF8  0E00               	movwf	((c:___lmul@product+1)),c
 10723  002CFA  6E0A               	movlw	low highword(0)
 10724  002CFC  0E00               	movwf	((c:___lmul@product+2)),c
 10725  002CFE  6E0B               	movlw	high highword(0)
 10726  002D00  0E00               	movwf	((c:___lmul@product+3)),c
 10727  002D02  6E0C               	goto	l2466
 10728  002D04  EF84  F016         	line	120
 10729                           	
 10730                           l287:
 10731  002D08                     	line	121
 10732                           	
 10733                           l2466:
 10734  002D08                     	
 10735                           	btfss	((c:___lmul@multiplier)),c,(0)&7
 10736  002D08  A001               	goto	u2661
 10737  002D0A  EF89  F016         	goto	u2660
 10738  002D0E  EF8B  F016         u2661:
 10739  002D12                     	goto	l2470
 10740  002D12  EF95  F016         u2660:
 10741  002D16                     	line	122
 10742                           	
 10743                           l2468:
 10744  002D16                     	movf	((c:___lmul@multiplicand)),c,w
 10745  002D16  5005               	addwf	((c:___lmul@product)),c
 10746  002D18  2609               	movf	((c:___lmul@multiplicand+1)),c,w
 10747  002D1A  5006               	addwfc	((c:___lmul@product+1)),c
 10748  002D1C  220A               	movf	((c:___lmul@multiplicand+2)),c,w
 10749  002D1E  5007               	addwfc	((c:___lmul@product+2)),c
 10750  002D20  220B               	movf	((c:___lmul@multiplicand+3)),c,w
 10751  002D22  5008               	addwfc	((c:___lmul@product+3)),c
 10752  002D24  220C               	goto	l2470
 10753  002D26  EF95  F016         	
 10754                           l288:
 10755  002D2A                     	line	123
 10756                           	
 10757                           l2470:
 10758  002D2A                     	bcf	status,0
 10759  002D2A  90D8               	rlcf	((c:___lmul@multiplicand)),c
 10760  002D2C  3605               	rlcf	((c:___lmul@multiplicand+1)),c
 10761  002D2E  3606               	rlcf	((c:___lmul@multiplicand+2)),c
 10762  002D30  3607               	rlcf	((c:___lmul@multiplicand+3)),c
 10763  002D32  3608               	line	124
 10764                           	
 10765                           l2472:
 10766  002D34                     	bcf	status,0
 10767  002D34  90D8               	rrcf	((c:___lmul@multiplier+3)),c
 10768  002D36  3204               	rrcf	((c:___lmul@multiplier+2)),c
 10769  002D38  3203               	rrcf	((c:___lmul@multiplier+1)),c
 10770  002D3A  3202               	rrcf	((c:___lmul@multiplier)),c
 10771  002D3C  3201               	line	125
 10772                           	movf	((c:___lmul@multiplier)),c,w
 10773  002D3E  5001               iorwf	((c:___lmul@multiplier+1)),c,w
 10774  002D40  1002               iorwf	((c:___lmul@multiplier+2)),c,w
 10775  002D42  1003               iorwf	((c:___lmul@multiplier+3)),c,w
 10776  002D44  1004               	btfss	status,2
 10777  002D46  A4D8               	goto	u2671
 10778  002D48  EFA8  F016         	goto	u2670
 10779  002D4C  EFAA  F016         
 10780                           u2671:
 10781  002D50                     	goto	l2466
 10782  002D50  EF84  F016         u2670:
 10783  002D54                     	
 10784                           l289:
 10785  002D54                     	line	128
 10786                           	movff	(c:___lmul@product),(c:?___lmul)
 10787  002D54  C009  F001         	movff	(c:___lmul@product+1),(c:?___lmul+1)
 10788  002D58  C00A  F002         	movff	(c:___lmul@product+2),(c:?___lmul+2)
 10789  002D5C  C00B  F003         	movff	(c:___lmul@product+3),(c:?___lmul+3)
 10790  002D60  C00C  F004         	line	129
 10791                           	
 10792                           l290:
 10793  002D64                     	return	;funcret
 10794  002D64  0012               	opt stack 0
 10795                           GLOBAL	__end_of___lmul
 10796                           	__end_of___lmul:
 10797  002D66                     	signat	___lmul,8316
 10798                           	global	_MSdelay
 10799                           
 10800 ;; *************** function _MSdelay *****************
 10801 ;; Defined at:
 10802 ;;		line 70 in file "buzzer.c"
 10803 ;; Parameters:    Size  Location     Type
 10804 ;;  val             2    0[COMRAM] unsigned int 
 10805 ;; Auto vars:     Size  Location     Type
 10806 ;;  j               2    4[COMRAM] unsigned int 
 10807 ;;  i               2    2[COMRAM] unsigned int 
 10808 ;; Return value:  Size  Location     Type
 10809 ;;                  1    wreg      void 
 10810 ;; Registers used:
 10811 ;;		wreg, status,2, status,0
 10812 ;; Tracked objects:
 10813 ;;		On entry : 0/0
 10814 ;;		On exit  : 0/0
 10815 ;;		Unchanged: 0/0
 10816 ;; Data sizes:     COMRAM   BANK0   BANK1   BANK2   BANK3   BANK4   BANK5
 10817 ;;      Params:         2       0       0       0       0       0       0
 10818 ;;      Locals:         4       0       0       0       0       0       0
 10819 ;;      Temps:          0       0       0       0       0       0       0
 10820 ;;      Totals:         6       0       0       0       0       0       0
 10821 ;;Total ram usage:        6 bytes
 10822 ;; Hardware stack levels used:    1
 10823 ;; Hardware stack levels required when called:    1
 10824 ;; This function calls:
 10825 ;;		Nothing
 10826 ;; This function is called by:
 10827 ;;		_buzz
 10828 ;;		_Frequency_Count
 10829 ;; This function uses a non-reentrant model
 10830 ;;
 10831                           psect	text29,class=CODE,space=0,reloc=2,group=0
 10832                           	file	"buzzer.c"
 10833                           	line	70
 10834                           global __ptext29
 10835                           __ptext29:
 10836  002C80                     psect	text29
 10837                           	file	"buzzer.c"
 10838                           	line	70
 10839                           	global	__size_of_MSdelay
 10840                           	__size_of_MSdelay	equ	__end_of_MSdelay-_MSdelay
 10841  0000                     	
 10842                           _MSdelay:
 10843  002C80                     ;incstack = 0
 10844                           	opt	stack 28
 10845                           	line	73
 10846                           	
 10847                           l2436:
 10848  002C80                     ;buzzer.c: 70: void MSdelay(unsigned int val);buzzer.c: 71: {;buzzer.c: 72:      unsigne
                                 d int i,j;;buzzer.c: 73:         for(i=0;i<val;i++)
 10849                           	movlw	high(0)
 10850  002C80  0E00               	movwf	((c:MSdelay@i+1)),c
 10851  002C82  6E04               	movlw	low(0)
 10852  002C84  0E00               	movwf	((c:MSdelay@i)),c
 10853  002C86  6E03               	goto	l2450
 10854  002C88  EF6C  F016         	
 10855                           l46:
 10856  002C8C                     	line	74
 10857                           	
 10858                           l2438:
 10859  002C8C                     ;buzzer.c: 74:             for(j=0;j<165;j++);
 10860                           	movlw	high(0)
 10861  002C8C  0E00               	movwf	((c:MSdelay@j+1)),c
 10862  002C8E  6E06               	movlw	low(0)
 10863  002C90  0E00               	movwf	((c:MSdelay@j)),c
 10864  002C92  6E05               	
 10865                           l2440:
 10866  002C94                     		movf	((c:MSdelay@j+1)),c,w
 10867  002C94  5006               	bnz	u2610
 10868  002C96  E109               	movlw	165
 10869  002C98  0EA5               	subwf	 ((c:MSdelay@j)),c,w
 10870  002C9A  5C05               	btfss	status,0
 10871  002C9C  A0D8               	goto	u2611
 10872  002C9E  EF53  F016         	goto	u2610
 10873  002CA2  EF55  F016         
 10874                           u2611:
 10875  002CA6                     	goto	l2444
 10876  002CA6  EF59  F016         u2610:
 10877  002CAA                     	goto	l2448
 10878  002CAA  EF68  F016         	
 10879                           l2442:
 10880  002CAE                     	goto	l2448
 10881  002CAE  EF68  F016         	
 10882                           l47:
 10883  002CB2                     	
 10884                           l2444:
 10885  002CB2                     	infsnz	((c:MSdelay@j)),c
 10886  002CB2  4A05               	incf	((c:MSdelay@j+1)),c
 10887  002CB4  2A06               	
 10888                           l2446:
 10889  002CB6                     		movf	((c:MSdelay@j+1)),c,w
 10890  002CB6  5006               	bnz	u2620
 10891  002CB8  E109               	movlw	165
 10892  002CBA  0EA5               	subwf	 ((c:MSdelay@j)),c,w
 10893  002CBC  5C05               	btfss	status,0
 10894  002CBE  A0D8               	goto	u2621
 10895  002CC0  EF64  F016         	goto	u2620
 10896  002CC4  EF66  F016         
 10897                           u2621:
 10898  002CC8                     	goto	l2444
 10899  002CC8  EF59  F016         u2620:
 10900  002CCC                     	goto	l2448
 10901  002CCC  EF68  F016         	
 10902                           l48:
 10903  002CD0                     	
 10904                           l2448:
 10905  002CD0                     	infsnz	((c:MSdelay@i)),c
 10906  002CD0  4A03               	incf	((c:MSdelay@i+1)),c
 10907  002CD2  2A04               	goto	l2450
 10908  002CD4  EF6C  F016         	
 10909                           l45:
 10910  002CD8                     	
 10911                           l2450:
 10912  002CD8                     		movf	((c:MSdelay@val)),c,w
 10913  002CD8  5001               	subwf	((c:MSdelay@i)),c,w
 10914  002CDA  5C03               	movf	((c:MSdelay@val+1)),c,w
 10915  002CDC  5002               	subwfb	((c:MSdelay@i+1)),c,w
 10916  002CDE  5804               	btfss	status,0
 10917  002CE0  A0D8               	goto	u2631
 10918  002CE2  EF75  F016         	goto	u2630
 10919  002CE6  EF77  F016         
 10920                           u2631:
 10921  002CEA                     	goto	l2438
 10922  002CEA  EF46  F016         u2630:
 10923  002CEE                     	goto	l50
 10924  002CEE  EF79  F016         	
 10925                           l49:
 10926  002CF2                     	line	75
 10927                           	
 10928                           l50:
 10929  002CF2                     	return	;funcret
 10930  002CF2  0012               	opt stack 0
 10931                           GLOBAL	__end_of_MSdelay
 10932                           	__end_of_MSdelay:
 10933  002CF4                     	signat	_MSdelay,4217
 10934                           	global	_Hi_ISR
 10935                           
 10936 ;; *************** function _Hi_ISR *****************
 10937 ;; Defined at:
 10938 ;;		line 63 in file "main.c"
 10939 ;; Parameters:    Size  Location     Type
 10940 ;;		None
 10941 ;; Auto vars:     Size  Location     Type
 10942 ;;		None
 10943 ;; Return value:  Size  Location     Type
 10944 ;;                  1    wreg      void 
 10945 ;; Registers used:
 10946 ;;		wreg, status,2, status,0
 10947 ;; Tracked objects:
 10948 ;;		On entry : 0/0
 10949 ;;		On exit  : 0/0
 10950 ;;		Unchanged: 0/0
 10951 ;; Data sizes:     COMRAM   BANK0   BANK1   BANK2   BANK3   BANK4   BANK5
 10952 ;;      Params:         0       0       0       0       0       0       0
 10953 ;;      Locals:         0       0       0       0       0       0       0
 10954 ;;      Temps:          0       0       0       0       0       0       0
 10955 ;;      Totals:         0       0       0       0       0       0       0
 10956 ;;Total ram usage:        0 bytes
 10957 ;; Hardware stack levels used:    1
 10958 ;; This function calls:
 10959 ;;		Nothing
 10960 ;; This function is called by:
 10961 ;;		Interrupt level 2
 10962 ;; This function uses a non-reentrant model
 10963 ;;
 10964                           psect	intcode,class=CODE,space=0,reloc=2
 10965                           global __pintcode
 10966                           __pintcode:
 10967  000008                     psect	intcode
 10968                           	file	"main.c"
 10969                           	line	63
 10970                           	global	__size_of_Hi_ISR
 10971                           	__size_of_Hi_ISR	equ	__end_of_Hi_ISR-_Hi_ISR
 10972  0000                     	
 10973                           _Hi_ISR:
 10974  000008                     ;incstack = 0
 10975                           	opt	stack 22
 10976                           	bsf int$flags,1,c ;set compiler interrupt flag (level 2)
 10977  000008  827E               	global	int_func
 10978                           	call	int_func,f	;refresh shadow registers
 10979  00000A  EDB7  F017         psect	intcode_body,class=CODE,space=0,reloc=2
 10980                           global __pintcode_body
 10981                           __pintcode_body:
 10982  002F6E                     int_func:
 10983  002F6E                     
 10984                           	pop	; remove dummy address from shadow register refresh
 10985  002F6E  0006               	line	64
 10986                           	
 10987                           i2l3316:
 10988  002F70                     ;main.c: 64:     if(PIR2bits.CCP2IF == 1) {
 10989                           	btfss	((c:4001)),c,0	;volatile
 10990  002F70  A0A1               	goto	i2u425_41
 10991  002F72  EFBD  F017         	goto	i2u425_40
 10992  002F76  EFBF  F017         i2u425_41:
 10993  002F7A                     	goto	i2l3322
 10994  002F7A  EFC7  F017         i2u425_40:
 10995  002F7E                     	line	65
 10996                           	
 10997                           i2l3318:
 10998  002F7E                     ;main.c: 65:         PIR2bits.CCP2IF = 0;
 10999                           	bcf	((c:4001)),c,0	;volatile
 11000  002F7E  90A1               	line	66
 11001                           	
 11002                           i2l3320:
 11003  002F80                     ;main.c: 66:         CCPR2 += half_cyc;
 11004                           	movlb	0	; () banked
 11005  002F80  0100               	movf	((_half_cyc))&0ffh,w	;volatile
 11006  002F82  518E               	addwf	((c:4027)),c	;volatile
 11007  002F84  26BB               	movf	((_half_cyc+1))&0ffh,w	;volatile
 11008  002F86  518F               	addwfc	((c:4027+1)),c	;volatile
 11009  002F88  22BC               
 11010                           	goto	i2l3322
 11011  002F8A  EFC7  F017         	line	67
 11012                           ;main.c: 67:     }
 11013                           	
 11014                           i2l133:; BSR set to: 0
 11015  002F8E                     
 11016                           	line	68
 11017                           	
 11018                           i2l3322:
 11019  002F8E                     ;main.c: 68:     if(INTCONbits.TMR0IF){
 11020                           	btfss	((c:4082)),c,2	;volatile
 11021  002F8E  A4F2               	goto	i2u426_41
 11022  002F90  EFCC  F017         	goto	i2u426_40
 11023  002F94  EFCE  F017         i2u426_41:
 11024  002F98                     	goto	i2l135
 11025  002F98  EFD4  F017         i2u426_40:
 11026  002F9C                     	line	69
 11027                           	
 11028                           i2l3324:
 11029  002F9C                     ;main.c: 69:         overflow_count++;
 11030                           	movlb	0	; () banked
 11031  002F9C  0100               	infsnz	((_overflow_count))&0ffh
 11032  002F9E  4B8C               	incf	((_overflow_count+1))&0ffh
 11033  002FA0  2B8D               	line	70
 11034                           	
 11035                           i2l3326:; BSR set to: 0
 11036  002FA2                     
 11037                           ;main.c: 70:         TMR0IF=0;
 11038                           	bcf	c:(32658/8),(32658)&7	;volatile
 11039  002FA2  94F2               	goto	i2l135
 11040  002FA4  EFD4  F017         	line	71
 11041                           ;main.c: 71:     }
 11042                           	
 11043                           i2l134:; BSR set to: 0
 11044  002FA8                     
 11045                           	line	72
 11046                           	
 11047                           i2l135:
 11048  002FA8                     	bcf int$flags,1,c ;clear compiler interrupt flag (level 2)
 11049  002FA8  927E               	retfie f
 11050  002FAA  0011               	opt stack 0
 11051                           GLOBAL	__end_of_Hi_ISR
 11052                           	__end_of_Hi_ISR:
 11053  002FAC                     	signat	_Hi_ISR,89
 11054                           psect	smallconst
 11055                           	db 0	; dummy byte at the end
 11056  00063C  00                 	global	__smallconst
 11057                           	global	__mediumconst
 11058                           	GLOBAL	__activetblptr
 11059                           __activetblptr	EQU	2
 11060  0000                     	psect	intsave_regs,class=BIGRAM,space=1,noexec
 11061                           	PSECT	rparam,class=COMRAM,space=1,noexec
 11062                           	GLOBAL	__Lrparam
 11063                           	FNCONF	rparam,??,?
 11064                           	GLOBAL	___rparam_used
 11065                           	___rparam_used EQU 1
 11066  0000                     	GLOBAL	___param_bank
 11067                           	___param_bank EQU 0
 11068  0000                     GLOBAL	__Lparam, __Hparam
 11069                           GLOBAL	__Lrparam, __Hrparam
 11070                           __Lparam	EQU	__Lrparam
 11071  0000                     __Hparam	EQU	__Hrparam
 11072  0000                            psect   temp,common,ovrld,class=COMRAM,space=1
 11073                           	global	btemp
 11074                           btemp:
 11075  00007E                     	ds	1
 11076  00007E                     	global	int$flags
 11077                           	int$flags	set btemp
 11078  0000                     	global	wtemp8
 11079                           	wtemp8 set btemp+1
 11080  0000                     	global	ttemp5
 11081                           	ttemp5 set btemp+1
 11082  0000                     	global	ttemp6
 11083                           	ttemp6 set btemp+4
 11084  0000                     	global	ttemp7
 11085                           	ttemp7 set btemp+8
 11086  0000                     	end


Data Sizes:
    Strings     59
    Constant    0
    Data        0
    BSS         48
    Persistent  2
    Stack       0

Auto Spaces:
    Space          Size  Autos    Used
    COMRAM          126    125     125
    BANK0           128      0      50
    BANK1           256      0       0
    BANK2           256      0       0
    BANK3           256      0       0
    BANK4           256      0       0
    BANK5           256      0       0

Pointer List with Targets:

    strlen@s	PTR const unsigned char  size(2) Largest target is 32
		 -> dbuf(BANK0[32]), 

    strlen@a	PTR const unsigned char  size(2) Largest target is 32
		 -> dbuf(BANK0[32]), 

    sprintf@fmt	PTR const unsigned char  size(2) Largest target is 7
		 -> STR_3(CODE[6]), STR_2(CODE[6]), STR_1(CODE[7]), 

    sprintf@s	PTR unsigned char  size(2) Largest target is 10
		 -> main@value(COMRAM[10]), 

    sprintf@ap	PTR void [1] size(2) Largest target is 2
		 -> ?_sprintf(COMRAM[2]), 

    f.buffer	PTR unsigned char  size(2) Largest target is 10
		 -> main@value(COMRAM[10]), 

    fputs@s	PTR const unsigned char  size(2) Largest target is 32
		 -> dbuf(BANK0[32]), 

    fputs@fp	PTR struct _IO_FILE size(2) Largest target is 7
		 -> sprintf@f(COMRAM[6]), 

    S1056_IO_FILE$buffer	PTR unsigned char  size(2) Largest target is 10
		 -> main@value(COMRAM[10]), 

    fputc@fp.buffer	PTR unsigned char  size(2) Largest target is 10
		 -> main@value(COMRAM[10]), 

    fputc@fp	PTR struct _IO_FILE size(2) Largest target is 7
		 -> sprintf@f(COMRAM[6]), 

    memset@dest	PTR void  size(2) Largest target is 10
		 -> main@value(COMRAM[10]), 

    memset@s	PTR unsigned char  size(2) Largest target is 10
		 -> main@value(COMRAM[10]), 

    vfprintf@ap	PTR PTR void  size(2) Largest target is 2
		 -> sprintf@ap(COMRAM[2]), 

    vfprintf@fp	PTR struct _IO_FILE size(2) Largest target is 7
		 -> sprintf@f(COMRAM[6]), 

    vfprintf@fmt	PTR const unsigned char  size(2) Largest target is 7
		 -> STR_3(CODE[6]), STR_2(CODE[6]), STR_1(CODE[7]), 

    vfprintf@cfmt	PTR unsigned char  size(2) Largest target is 7
		 -> STR_3(CODE[6]), STR_2(CODE[6]), STR_1(CODE[7]), 

    vfpfcnvrt@fp	PTR struct _IO_FILE size(2) Largest target is 7
		 -> sprintf@f(COMRAM[6]), 

    vfpfcnvrt@ap	PTR PTR void  size(2) Largest target is 2
		 -> sprintf@ap(COMRAM[2]), 

    vfpfcnvrt@fmt	PTR PTR unsigned char  size(2) Largest target is 2
		 -> vfprintf@cfmt(COMRAM[2]), 

    dtoa@fp	PTR struct _IO_FILE size(2) Largest target is 7
		 -> sprintf@f(COMRAM[6]), 

    pad@fp	PTR struct _IO_FILE size(2) Largest target is 7
		 -> sprintf@f(COMRAM[6]), 

    pad@buf	PTR unsigned char  size(2) Largest target is 32
		 -> dbuf(BANK0[32]), 

    USART_SendString@out	PTR const unsigned char  size(2) Largest target is 10
		 -> STR_11(CODE[6]), STR_10(CODE[7]), STR_9(CODE[8]), STR_8(CODE[4]), 
		 -> STR_7(CODE[5]), STR_6(CODE[5]), STR_5(CODE[5]), STR_4(CODE[6]), 
		 -> main@value(COMRAM[10]), 

    sp__memset	PTR void  size(2) Largest target is 10
		 -> main@value(COMRAM[10]), 


Critical Paths under _main in COMRAM

    _main->_sprintf
    _sprintf->_vfprintf
    _vfprintf->_vfpfcnvrt
    _vfpfcnvrt->_dtoa
    _dtoa->_pad
    _pad->_fputs
    _fputs->_fputc
    _abs->___aomod
    _buzz->_MSdelay
    _USART_SendString->_USART_TxChar
    _USART_Init->___fltol
    ___fladd->___fldiv
    _MapRGB->___fltol
    ___fltol->___flmul
    ___flmul->___fldiv
    ___fldiv->___xxtofl
    _Frequency_Count->___lmul

Critical Paths under _Hi_ISR in COMRAM

    None.

Critical Paths under _main in BANK0

    None.

Critical Paths under _Hi_ISR in BANK0

    None.

Critical Paths under _main in BANK1

    None.

Critical Paths under _Hi_ISR in BANK1

    None.

Critical Paths under _main in BANK2

    None.

Critical Paths under _Hi_ISR in BANK2

    None.

Critical Paths under _main in BANK3

    None.

Critical Paths under _Hi_ISR in BANK3

    None.

Critical Paths under _main in BANK4

    None.

Critical Paths under _Hi_ISR in BANK4

    None.

Critical Paths under _main in BANK5

    None.

Critical Paths under _Hi_ISR in BANK5

    None.

Call Graph Tables:

 ---------------------------------------------------------------------------------
 (Depth) Function   	        Calls       Base Space   Used Autos Params    Refs
 ---------------------------------------------------------------------------------
 (0) _main                                                26    26      0   21231
                                            103 COMRAM    22    22      0
                    _Frequency_Count
                             _MapRGB
              _OSCILLATOR_Initialize
                         _Timer_Init
                         _USART_Init
                   _USART_SendString
                       _USART_TxChar
                               _buzz
                             _memset
                            _sprintf
 ---------------------------------------------------------------------------------
 (1) _sprintf                                             16    10      6    6760
                                             87 COMRAM    16    10      6
                           _vfprintf
 ---------------------------------------------------------------------------------
 (2) _vfprintf                                             8     2      6    6105
                                             79 COMRAM     8     2      6
                          _vfpfcnvrt
 ---------------------------------------------------------------------------------
 (3) _vfpfcnvrt                                           42    36      6    5751
                                             63 COMRAM    16    10      6
                               _dtoa
                              _fputc
 ---------------------------------------------------------------------------------
 (4) _dtoa                                                36    26     10    4358
                                             27 COMRAM    36    26     10
                            ___aodiv
                            ___aomod
                                _abs
                                _pad
 ---------------------------------------------------------------------------------
 (5) _pad                                                 11     5      6    2709
                                             16 COMRAM    11     5      6
                              _fputc
                              _fputs
                             _strlen
 ---------------------------------------------------------------------------------
 (6) _strlen                                               6     4      2     166
                                              0 COMRAM     6     4      2
 ---------------------------------------------------------------------------------
 (6) _fputs                                                7     3      4    1235
                                              9 COMRAM     7     3      4
                              _fputc
 ---------------------------------------------------------------------------------
 (4) _fputc                                                9     5      4     834
                                              0 COMRAM     9     5      4
                              _putch
 ---------------------------------------------------------------------------------
 (5) _putch                                                1     1      0       0
 ---------------------------------------------------------------------------------
 (5) _abs                                                  4     2      2     142
                                             18 COMRAM     4     2      2
                            ___aomod (ARG)
 ---------------------------------------------------------------------------------
 (5) ___aomod                                             18     2     16     448
                                              0 COMRAM    18     2     16
 ---------------------------------------------------------------------------------
 (5) ___aodiv                                             26    10     16     452
                                              0 COMRAM    26    10     16
 ---------------------------------------------------------------------------------
 (1) _memset                                              14     8      6     947
                                              0 COMRAM    14     8      6
 ---------------------------------------------------------------------------------
 (1) _buzz                                                 6     0      6    1604
                                              6 COMRAM     6     0      6
                            _MSdelay
                        _init_buzzer
 ---------------------------------------------------------------------------------
 (2) _init_buzzer                                          0     0      0       0
 ---------------------------------------------------------------------------------
 (1) _USART_SendString                                     2     0      2     903
                                              1 COMRAM     2     0      2
                       _USART_TxChar
 ---------------------------------------------------------------------------------
 (1) _USART_TxChar                                         1     1      0      22
                                              0 COMRAM     1     1      0
 ---------------------------------------------------------------------------------
 (1) _USART_Init                                           8     4      4    4991
                                             74 COMRAM     8     4      4
                            ___fladd
                            ___fldiv
                            ___fltol
                           ___xxtofl
 ---------------------------------------------------------------------------------
 (2) ___fladd                                             20    12      8    2388
                                             39 COMRAM    20    12      8
                            ___fldiv (ARG)
                           ___xxtofl (ARG)
 ---------------------------------------------------------------------------------
 (1) _Timer_Init                                           0     0      0       0
 ---------------------------------------------------------------------------------
 (1) _OSCILLATOR_Initialize                                0     0      0       0
 ---------------------------------------------------------------------------------
 (1) _MapRGB                                              22    10     12    5021
                                             74 COMRAM    22    10     12
                            ___fldiv
                            ___flmul
                            ___fltol
                           ___xxtofl
 ---------------------------------------------------------------------------------
 (2) ___xxtofl                                            14    10      4     550
                                              0 COMRAM    14    10      4
 ---------------------------------------------------------------------------------
 (2) ___fltol                                             10     6      4     381
                                             64 COMRAM    10     6      4
                            ___fldiv (ARG)
                            ___flmul (ARG)
                           ___xxtofl (ARG)
 ---------------------------------------------------------------------------------
 (2) ___flmul                                             25    17      8    1744
                                             39 COMRAM    25    17      8
                            ___fldiv (ARG)
                           ___xxtofl (ARG)
 ---------------------------------------------------------------------------------
 (2) ___fldiv                                             25    17      8    1551
                                             14 COMRAM    25    17      8
                           ___xxtofl (ARG)
 ---------------------------------------------------------------------------------
 (1) _Frequency_Count                                     12     8      4     736
                                             12 COMRAM    12     8      4
                            _MSdelay
                             ___lmul
 ---------------------------------------------------------------------------------
 (2) ___lmul                                              12     4      8     370
                                              0 COMRAM    12     4      8
 ---------------------------------------------------------------------------------
 (2) _MSdelay                                              6     4      2     320
                                              0 COMRAM     6     4      2
 ---------------------------------------------------------------------------------
 Estimated maximum stack depth 6
 ---------------------------------------------------------------------------------
 (Depth) Function   	        Calls       Base Space   Used Autos Params    Refs
 ---------------------------------------------------------------------------------
 (9) _Hi_ISR                                               0     0      0       0
 ---------------------------------------------------------------------------------
 Estimated maximum stack depth 9
 ---------------------------------------------------------------------------------

 Call Graph Graphs:

 _main (ROOT)
   _Frequency_Count
     _MSdelay
     ___lmul
   _MapRGB
     ___fldiv
       ___xxtofl (ARG)
     ___flmul
       ___fldiv (ARG)
         ___xxtofl (ARG)
       ___xxtofl (ARG)
     ___fltol
       ___fldiv (ARG)
         ___xxtofl (ARG)
       ___flmul (ARG)
         ___fldiv (ARG)
           ___xxtofl (ARG)
         ___xxtofl (ARG)
       ___xxtofl (ARG)
     ___xxtofl
   _OSCILLATOR_Initialize
   _Timer_Init
   _USART_Init
     ___fladd
       ___fldiv (ARG)
         ___xxtofl (ARG)
       ___xxtofl (ARG)
     ___fldiv
       ___xxtofl (ARG)
     ___fltol
       ___fldiv (ARG)
         ___xxtofl (ARG)
       ___flmul (ARG)
         ___fldiv (ARG)
           ___xxtofl (ARG)
         ___xxtofl (ARG)
       ___xxtofl (ARG)
     ___xxtofl
   _USART_SendString
     _USART_TxChar
   _USART_TxChar
   _buzz
     _MSdelay
     _init_buzzer
   _memset
   _sprintf
     _vfprintf
       _vfpfcnvrt
         _dtoa
           ___aodiv
           ___aomod
           _abs
             ___aomod (ARG)
           _pad
             _fputc
               _putch
             _fputs
               _fputc
                 _putch
             _strlen
         _fputc
           _putch

 _Hi_ISR (ROOT)

 Address spaces:
Name               Size   Autos  Total    Cost      Usage
BIGRAM             5FF      0       0      17        0.0%
EEDATA             100      0       0       0        0.0%
BITBANK5           100      0       0      16        0.0%
BANK5              100      0       0      14        0.0%
BITBANK4           100      0       0      12        0.0%
BANK4              100      0       0      13        0.0%
BITBANK3           100      0       0      10        0.0%
BANK3              100      0       0      11        0.0%
BITBANK2           100      0       0       8        0.0%
BANK2              100      0       0       9        0.0%
BITBANK1           100      0       0       6        0.0%
BANK1              100      0       0       7        0.0%
BITBANK0            80      0       0       4        0.0%
BANK0               80      0      32       5       39.1%
BITCOMRAM           7E      0       0       0        0.0%
COMRAM              7E     7D      7D       1       99.2%
BITSFR               0      0       0     200        0.0%
SFR                  0      0       0     200        0.0%
STACK                0      0       0       2        0.0%
NULL                 0      0       0       0        0.0%
ABS                  0      0      AF      15        0.0%
DATA                 0      0      AF       3        0.0%
CODE                 0      0       0       0        0.0%


Microchip Technology PIC18 Macro Assembler V2.00 build -1524193055 
Symbol Table                                                                                   Sat Jan 19 14:59:17 2019

          Frequency_Count@count 0015                               _B 0088                               _G 008A  
                             _R 00B0                    ___fldiv@aexp 0027                    ___fldiv@bexp 0026  
                  ___fldiv@sign 001F                              l30 109E                              l31 0D7A  
                            l32 109A                              l40 108A                              l41 1086  
                            l33 0E0E                              l50 2CF2                              l42 10CA  
                            l34 1096                              l35 0EAA                              l27 0C52  
                            l28 10A2                              l36 1092                              l45 2CD8  
                            l53 2FD2                              l37 0F46                              l29 0CE6  
                            l46 2C8C                              l38 108E                              l47 2CB2  
                            l39 0FE2                              l48 2CD0                              l49 2CF2  
             ??_Frequency_Count 0011                     __CFG_BORV$3 000000                    __CFG_CP0$OFF 000000  
                  __CFG_CP1$OFF 000000                    __CFG_CP2$OFF 000000                    __CFG_CP3$OFF 000000  
                           l122 1CA0                             l123 1D10                             l124 1DA8  
                           l141 3026                             l125 1E40                             l230 2AC6  
                           l126 1EB0                             l231 2AEE                             l127 1EB4  
                           l144 2BEA                             l400 268A                             l232 2AD2  
                           l128 1EB4                             l401 268E                             l233 2B0C  
                           l241 1A02                             l138 301A                             l402 26E0  
                           l234 2B34                             l226 2AA4                             l250 1BDC  
                           l147 299C                             l171 2FDA                             l403 26FC  
                           l235 2B50                             l243 1A0A                             l172 2FDA  
                           l404 2734                             l228 2ABE                             l260 1C36  
                           l252 1BD8                             l244 1A40                             l173 2FEC  
                           l405 2758                             l261 1C76                             l253 1BE0  
                           l174 2FF0                             l254 1C4A                             l246 1A36  
                           l238 19C6                             l183 2DFC                             l247 1B58  
                           l239 19DC                             l168 2C7E                             l184 2DD0  
                           l256 1C06                             l248 1A5C                             l264 2220  
                           l272 2DA6                             l185 2E30                             l265 21AC  
                           l273 2D7C                             l290 2D64                             l186 2E30  
                           l258 1C2A                             l274 2DC2                             l267 2128  
                           l275 2DCA                             l268 225E                             l269 2202  
                           l390 2570                             l382 2458                             l287 2D08  
                           l391 25A8                             l383 248E                             l288 2D2A  
                           l800 0726                             l392 25CC                             l384 2574  
                           l289 2D54                             l801 071C                             l385 24D8  
                           l810 0838                             l802 073A                             l386 24C0  
                           l811 084C                             l803 07A2                             l387 24EA  
                           l395 2608                             l900 13C8                             l580 2872  
                           l820 0A6C                             l812 086E                             l804 0762  
                           l388 24EE                             l396 263A                             l901 142A  
                           l581 2846                             l821 09AE                             l813 090C  
                           l805 0812                             l389 2554                             l397 2700  
                           l910 151C                             l902 1410                             l582 285A  
                           l574 2788                             l830 0A52                             l822 09AA  
                           l814 08A4                             l806 086E                             l398 2678  
                           l911 1512                             l903 142A                             l583 284A  
                           l575 28AA                             l831 0A68                             l823 09BE  
                           l815 0BC0                             l807 0858                             l399 2660  
                           l904 1426                             l584 286E                             l576 281E  
                           l832 0AB6                             l824 09FC                             l816 0908  
                           l808 0816                             l905 148A                             l585 2896  
                           l577 2802                             l841 0B4C                             l833 0A9C  
                           l825 0A56                             l817 08DC                             l809 0830  
                           l906 1486                             l578 2806                             l842 0B74  
                           l834 0AB6                             l826 0A00                             l818 08E4  
                           l851 155A                             l907 14B8                             l579 281A  
                           l843 0B8C                             l835 0AB2                             l827 0A1E  
                           l819 08F8                             l860 1958                             l852 1598  
                           l908 1520                             l940 1FB6                             l844 0B92  
                           l836 0B28                             l828 0A34                             l861 16A0  
                           l853 158E                             l909 14EA                             l941 1F9E  
                           l933 1F0E                             l845 0BAC                             l837 0B24  
                           l829 0A3C                             l870 17AC                             l862 1778  
                           l854 15AC                             l942 1FE8                             l934 1F22  
                           l838 0B20                             l871 17C6                             l863 1700  
                           l855 15CC                             l943 1FFC                             l935 1F50  
                           l839 0B78                             l880 191C                             l872 17EC  
                           l864 1742                             l856 160A                             l944 1FEC  
                           l936 2092                             l960 241C                             l881 1934  
                           l873 184E                             l865 1734                             l857 1600  
                           l937 1F68                             l961 22D4                             l953 2F60  
                           l882 193A                             l874 1834                             l866 1776  
                           l858 161E                             l890 1194                             l946 201E  
                           l938 1F58                             l794 065E                             l962 2362  
                           l875 184E                             l867 178C                             l859 1668  
                           l891 118E                             l947 201E                             l939 1F9A  
                           l795 069C                             l963 23B8                             l955 2F6C  
                           l971 29D0                             l876 184A                             l868 17A8  
                           l892 11A4                             l948 2032                             l796 0692  
                           l964 2406                             l956 2F6C                             l877 18AE  
                           l869 17DA                             l893 11E0                             l885 10EC  
                           l949 207E                             l797 06B0                             l965 23EC  
                           l973 29C6                             l878 18AA                             l886 1126  
                           l798 06CE                             l966 241C                             l974 2A76  
                           l879 18E2                             l895 11C8                             l887 1120  
                           l799 06E8                             l959 2282                             l975 2A72  
                           l983 2F04                             l896 1538                             l888 113A  
                           l984 2EEA                             l897 13B6                             l889 115A  
                           l977 2A28                             l985 2F28                             l993 2E8A  
                           l898 1388                             l978 2A7A                             l986 2F28  
                           l899 13A2                             l996 3028                             l999 2EA0  
                  __CFG_CPB$OFF 000000                    __CFG_CPD$OFF 000000                             _abs 2F2A  
                           _pad 2A7C                             wreg 000FE8                    ___flmul@aexp 0039  
                  ___flmul@bexp 003A                    ___flmul@sign 0034                    ___flmul@temp 003F  
                  ___flmul@prod 003B                    __CFG_LVP$OFF 000000                    ___fltol@exp1 004A  
                  __CFG_WDT$OFF 000000                            l1000 2E98                            l1001 2EBC  
                          l1002 2EDC                            ?_abs 0013                            l3000 1F50  
                          l2200 2EEA                            l3010 1FAC                            l3002 1F58  
                          l2202 2EFC                            l2210 2EA0                            l3020 2032  
                          l3012 1FEC                            l3004 1F68                            l3100 0E72  
                          l2300 2658                            l2204 2F04                            l2212 2EBC  
                          l2220 2AA4                            l3030 207E                            l3022 2036  
                          l3014 1FFC                            l3006 1F9E                            l3110 0EDC  
                          l3102 0E80                            l2310 26E0                            l2302 2660  
                          l2214 2EDC                            l2206 2E8C                            l2230 2AEE  
                          l2222 2AB2                            l3032 2092                            l3024 205A  
                          l3016 200A                            l3008 1FA0                            l3200 2990  
                          l3112 0EEA                            l3120 0F46                            l3104 0E9C  
                          l3040 0BF0                            l2320 2758                            l2312 26F2  
                          l2304 2678                            l2240 2F44                            l2208 2E98  
                          l2232 2B1C                            l2224 2ABE                            l2216 2A7C  
                          l2400 21A8                            l3026 206A                            l3018 202C  
                          l3202 299C                            l3130 0FBE                            l3122 0F54  
                          l3114 0F06                            l3106 0EAA                            l3042 0BFE  
                          l3050 0C52                            l3034 0BC2                            l2250 2458  
                          l2242 241E                            l2306 268E                            l2314 2700  
                          l2234 2B34                            l2226 2AD2                            l2218 2A8C  
                          l2330 19D6                            l2322 195A                            l2410 21FE  
                          l2402 21AC                            l3210 2E52                            l3028 2078  
                          l2500 06D4                            l3220 2DF4                            l3140 1030  
                          l3132 0FD4                            l3124 0F70                            l3116 0F22  
                          l3108 0EC6                            l3060 0CBC                            l3052 0C6E  
                          l3044 0C1A                            l3036 0BC6                            l2260 24B8  
                          l2252 2466                            l2244 2422                            l2316 2710  
                          l2308 26BC                            l2236 2B50                            l2228 2AE6  
                          l2340 1A36                            l2332 19DC                            l2324 197A  
                          l2420 2244                            l2404 21D0                            l2412 2202  
                          l3212 2E76                            l3204 2E32                            l3300 1E24  
                          l2510 071C                            l2502 06E2                            l3222 2DFC  
                          l2430 2FCC                            l3150 10B0                            l3142 1046  
                          l3126 0F8C                            l3134 0FE2                            l3118 0F38  
                          l3070 0D2C                            l3062 0CD8                            l3054 0C84  
                          l3046 0C28                            l3038 0BD4                            l3230 228E  
                          l2270 252E                            l2262 24C0                            l2254 2486  
                          l2246 2430                            l2318 2734                            l2238 2F2A  
                          l2190 29D0                            l2350 1AE4                            l2342 1A40  
                          l2334 19F6                            l2326 19A2                            l2422 2252  
                          l2414 2210                            l2406 21DE                            l3214 2E8A  
                          l3206 2E42                            l3310 1E6E                            l3302 1E36  
                          l2440 2C94                            l3160 3012                            l2600 0932  
                          l2520 075A                            l2512 071E                            l2504 06E8  
                          l3216 2DCC                            l2432 2FCE                            l3152 10BC  
                          l3144 1062                            l3136 0FFE                            l3128 0FA2  
                          l3080 0D88                            l3072 0D42                            l3056 0C92  
                          l3064 0CE6                            l3048 0C44                            l3240 2362  
                          l3232 22D0                            l3224 2260                            l2280 2584  
                          l2272 254E                            l2264 24D8                            l2256 248E  
                          l2248 2450                            l2192 29EE                            l2184 299E  
                          l2360 1B90                            l2352 1AEA                            l2344 1A48  
                          l2336 1A12                            l2328 19C6                            l2424 225E  
                          l2416 221C                            l2408 21F2                            l3208 2E4A  
                          l3312 1E74                            l3304 1E40                            l2442 2CAE  
                          l2450 2CD8                            l3170 3022                            l3162 3014  
                          l2610 09D4                            l2602 0988                            l2530 0772  
                          l2522 0762                            l2506 06F8                            l2514 0726  
                          l3218 2DD0                            l2434 2FD0                            l2426 2FAC  
                          l3154 10BE                            l3146 1078                            l3138 1014  
                          l3090 0E00                            l3082 0DA4                            l3074 0D50  
                          l3066 0CF4                            l3058 0CAE                            l3250 23F8  
                          l3242 239A                            l3234 22D4                            l3226 227E  
                          l2282 25A8                            l2274 2554                            l2266 24EE  
                          l2258 249A                            l2290 25E0                            l2194 2A28  
                          l2186 29B0                            l2370 1C06                            l2362 1BAA  
                          l2354 1AF0                            l2346 1A5C                            l2338 1A24  
                          l2418 2220                            l3314 1E90                            l3306 1E5C  
                          l2444 2CB2                            l2436 2C80                            l3180 2B52  
                          l2700 15C6                            l3164 3016                            l3156 300C  
                          l2620 0A18                            l2612 09E4                            l2604 098A  
                          l2540 0786                            l2532 0776                            l2524 0766  
                          l2516 073A                            l2508 0708                            l3172 2BEC  
                          l2452 2FD6                            l2428 2FBE                            l3084 0DB2  
                          l3092 0E0E                            l3076 0D6C                            l3068 0D10  
                          l3148 10A2                            l3252 23FE                            l3244 23B4  
                          l3236 2344                            l3228 2282                            l2284 25CC  
                          l2276 2566                            l2268 2500                            l2292 2600  
                          l2196 2A7A                            l2188 29C6                            l2372 1C0C  
                          l2380 1C4A                            l2364 1BC4                            l2348 1A62  
                          l2356 1B58                            l2460 2D7C                            l3308 1E68  
                          l3260 1C80                            l2446 2CB6                            l2438 2C8C  
                          l2470 2D2A                            l3190 2B76                            l3182 2B5A  
                          l2710 1602                            l2702 15CC                            l3166 3018  
                          l3158 300E                            l2630 0A4C                            l2622 0A1E  
                          l2614 09F8                            l2606 099A                            l2550 079A  
                          l2542 078A                            l2534 077A                            l2526 076A  
                          l2518 074C                            l3174 2BF0                            l2454 2FEC  
                          l3094 0E2A                            l3086 0DCE                            l3078 0D7A  
                          l3254 2406                            l3246 23B8                            l3238 235E  
                          l2278 2574                            l2294 2608                            l2286 25CE  
                          l2198 2EDE                            l2382 1C76                            l2374 1C1E  
                          l2358 1B72                            l2366 1BE0                            l2390 20D8  
                          l2462 2DA6                            l3270 1CB8                            l3262 1C84  
                          l2448 2CD0                            l2472 2D34                            l2464 2CF4  
                          l3192 2BCC                            l3184 2B5C                            l2800 1920  
                          l2720 164C                            l2704 15DC                            l2712 160A  
                          l3168 301C                            l2640 0A94                            l2624 0A2C  
                          l2616 0A00                            l2632 0A56                            l2608 09AE  
                          l2560 080A                            l2544 078E                            l2536 077E  
                          l2528 076E                            l2552 07A2                            l2480 065E  
                          l3176 2C76                            l3096 0E40                            l3088 0DEA  
                          l3248 23EC                            l2296 2616                            l2288 25D2  
                          l2376 1C2A                            l2368 1BF2                            l2392 20DC  
                          l2384 2094                            l2456 2D66                            l3280 1D38  
                          l3272 1CF4                            l3264 1C86                            l3256 1C78  
                          l2466 2D08                            l3194 2BD6                            l3186 2B68  
                          l2810 1944                            l2802 192E                            l2730 1688  
                          l2722 1650                            l2714 161E                            l2706 15EC  
                          l2650 0B1A                            l2642 0AAA                            l2626 0A34  
                          l2618 0A0A                            l2634 0A6C                            l2570 084C  
                          l2562 0824                            l2554 07A6                            l2546 0792  
                          l2538 0782                            l2482 066E                            l2490 069C  
                          l2474 063E                            l3178 2C7A                            l3098 0E5C  
                          l2298 263A                            l2378 1C36                            l2394 2100  
                          l2386 20B8                            l2458 2D6E                            l3290 1DA8  
                          l3282 1D3C                            l3274 1D06                            l3266 1C88  
                          l3258 1C7C                            l2468 2D16                            l3196 2BEA  
                          l3188 2B6A                            l2812 1958                            l2804 1934  
                          l2740 16E8                            l2732 169C                            l2724 1664  
                          l2716 1634                            l2708 1600                            l2900 13A0  
                          l2820 10EC                            l2660 0B78                            l2644 0AC6  
                          l2652 0B28                            l2636 0A70                            l2628 0A3C  
                          l2580 08A4                            l2572 0856                            l2564 0830  
                          l2556 07DE                            l2548 0796                            l2492 06B0  
                          l2484 067E                            l2476 064A                            l2396 2128  
                          l2388 20C6                            l3292 1DC4                            l3284 1D50  
                          l3276 1D10                            l3268 1CA0                            l2806 193A  
                          l2750 1732                            l2742 16F8                            l2734 16A0  
                          l2718 1644                            l2726 1668                            l2910 1408  
                          l2902 13B6                            l2830 113A                            l2822 10FC  
                          l2814 10CC                            l3198 28AC                            l2670 0BA6  
                          l2662 0B86                            l2654 0B38                            l2646 0AD2  
                          l2638 0A7E                            l2590 08E4                            l2582 08B4  
                          l2574 087C                            l2566 0838                            l2558 07FA  
                          l2494 06B6                            l2486 0692                            l2478 0658  
                          l2398 2170                            l3294 1DD0                            l3286 1D8C  
                          l3278 1D2C                            l2808 1940                            l2760 178C  
                          l2752 1742                            l2744 1700                            l2736 16C8  
                          l2728 1678                            l2680 1554                            l2920 147E  
                          l2912 141E                            l2904 13C8                            l2840 116A  
                          l2832 1140                            l2824 110C                            l2816 10D8  
                          l2672 0BAC                            l2664 0B8C                            l2656 0B4C  
                          l2648 0AE0                            l2592 08F2                            l2584 08C2  
                          l2576 088C                            l2568 0846                            l2496 06C8  
                          l2488 0694                            l3296 1DD4                            l3288 1D9E  
                          l2762 17A2                            l2770 17DA                            l2754 1760  
                          l2746 1710                            l2738 16D8                            l2690 1590  
                          l2682 155A                            l2930 14EE                            l2914 143A  
                          l2922 148A                            l2906 13CC                            l2850 11C8  
                          l2842 117A                            l2834 1146                            l2826 1120  
                          l2818 10E6                            l2674 0BC0                            l2666 0B92  
                          l2658 0B6C                            l2594 08F8                            l2586 08D0  
                          l2578 08A0                            l2498 06CE                            l3298 1DE8  
                          l2780 1842                            l2772 17EC                            l2764 17AC  
                          l2756 1762                            l2748 1724                            l2684 156A  
                          l2692 1598                            l2676 153A                            l2940 1524  
                          l2932 14FE                            l2924 14A4                            l2916 1446  
                          l2908 13DA                            l2860 120C                            l2852 11DC  
                          l2844 118E                            l2836 1154                            l2828 1126  
                          l2668 0B98                            l2596 0902                            l2588 08DC  
                          l2782 185E                            l2790 18AE                            l2774 17F0  
                          l2766 17B6                            l2758 1776                            l2694 15AC  
                          l2686 157A                            l2678 1546                            l2942 1538  
                          l2934 150C                            l2926 14B8                            l2918 1454  
                          l2870 1256                            l2862 1218                            l2854 11E0  
                          l2846 1194                            l2838 115A                            l2950 2788  
                          l2598 090C                            ?_pad 0011                            l2792 18C8  
                          l2784 186A                            l2776 17FE                            l2768 17C4  
                          l2696 15B2                            l2688 158E                            l2936 1512  
                          l2928 14D2                            l2880 12A8                            l2872 1262  
                          l2864 1230                            l2856 11EC                            l2848 11B4  
                          l2960 27D6                            l2952 27B2                            l2944 275A  
                          l2794 18E2                            l2786 1878                            l2778 182C  
                          l2698 15B8                            l2938 1520                            l2890 1326  
                          l2882 12B8                            l2874 1272                            l2866 123C  
                          l2858 11F6                            l2962 27EA                            l2970 281E  
                          l2954 27B4                            l2946 2770                            l2796 18FC  
                          l2788 18A2                            l2892 135C                            l2884 12D4  
                          l2876 127E                            l2868 1248                            l2972 282E  
                          l2980 2872                            l2964 27FE                            l2956 27C4  
                          l2948 2784                            l2798 191C                            l2894 136A  
                          l2886 12E0                            l2878 128E                            l2982 2882  
                          l2974 2842                            l2966 2806                            l2958 27C8  
                          l2990 1ECA                            l2896 1388                            l2888 12FC  
                          l2984 2896                            l2976 284A                            l2968 2810  
                          l2992 1ED8                            l2898 1392                            l2986 28AA  
                          l2978 285A                            l2994 1F22                            l2996 1F38  
                          l2988 1EBA                            l2998 1F4C                            STR_1 0610  
                          STR_2 0623                            STR_3 0611                            STR_4 061D  
                          STR_5 062E                            STR_6 0629                            STR_7 0633  
                          STR_8 0638                            STR_9 0601                            u3000 0AE0  
                          u2200 29EE                            u3001 0ADC                            u2201 29EA  
                          u3010 0B1A                            u2210 2A24                            u3011 0B16  
                          u2211 2A20                            u3100 15C6                            u3020 0B38  
                          u2300 2466                            u2220 2F24                            u3101 15C2  
                          u3021 0B34                            u2301 2462                            u2221 2F20  
                          u3110 15DC                            u3030 0B48                            u2230 2EB8  
                          u3111 15D8                            u3031 0B44                            u2311 2494  
                          u2231 2EB4                            u3200 17C4                            u3120 15EC  
                          u3040 0B6C                            u4000 0F22                            u2320 24B8  
                          u2400 26BC                            u2240 2A8C                            _LATD 000F8C  
                          u3201 17C0                            u3121 15E8                            u3041 0B68  
                          u4001 0F1E                            u2321 24B4                            u2401 26B8  
                          u2241 2A88                            u3210 17E8                            u3130 1634  
                          u3050 0B86                            u4010 0F38                            u2330 24E6  
                          u2410 2710                            u2250 2AB2                            u3211 17E4  
                          u3131 1630                            u3051 0B82                            u4011 0F34  
                          u2331 24E2                            u2411 270C                            u2251 2AAE  
                          u3220 17FE                            u3140 1678                            u3300 10E6  
                          u3060 0BA6                            u4100 1030                            u4020 0F54  
                          u2340 252E                            u2180 29B0                            u2260 2B0C  
                          u2500 1B90                            u2420 198A                            u3221 17FA  
                          u3141 1674                            u3301 10E2                            u3061 0BA2  
                          u4101 102C                            u4021 0F50                            u2341 252A  
                          u2181 29AC                            u2261 2B08                            u2501 1B8C  
                          u2421 1984                            u3230 182C                            u3150 1710  
                          u3070 1554                            u3310 10FC                            u4110 1046  
                          u4030 0F70                            u2350 2584                            u2190 29C2  
                          u2270 2B1C                            u2510 1BAA                            u2430 198C  
                          u3231 1828                            u3151 170C                            u3071 1550  
                          u3311 10F8                            u4111 1042                            u4031 0F6C  
                          u2351 2580                            u2191 29BE                            u2271 2B18  
                          u2511 1BA6                            u3240 1842                            u3160 1732  
                          u3080 156A                            u3400 13C4                            u3320 110C  
                          u4120 1062                            u4040 0F8C                            u4200 23B0  
                          u2360 25E0                            u2280 2F44                            u2520 1BC4  
                          u2440 19A2                            u2600 21D0                            u3241 183E  
                          u3161 172E                            u3081 1566                            u3401 13C0  
                          u3321 1108                            u4121 105E                            u4041 0F88  
                          u4201 23AC                            u2361 25DC                            u2281 2F40  
                          u2521 1BC0                            u2441 199E                            u2601 21CC  
                          u2610 2CAA                            u3250 185E                            u3170 1760  
                          u3090 157A                            u3410 13DA                            u3330 1154  
                          u4130 1078                            u4050 0FA2                            u4210 2418  
                          u2290 2430                            u2370 2616                            u2530 1BD4  
                          u2450 19D6                            u2611 2CA6                            u3251 185A  
                          u3171 175C                            u3091 1576                            u3411 13D6  
                          u3331 1150                            u4131 1074                            u4051 0F9E  
                          u4211 2414                            u2291 242C                            u2371 2612  
                          u2531 1BD0                            u2451 19D2                            u2620 2CCC  
                          u3260 1878                            u3180 1788                            u3420 1408  
                          u3340 116A                            u3500 27A8                            u2700 067E  
                          u4140 2DF0                            u4060 0FBE                            u2380 2658  
                          u2540 1BF2                            u2460 19F6                            u4220 1D06  
                          u2621 2CC8                            u3261 1874                            u3181 1784  
                          u3421 1404                            u3341 1166                            u2701 067A  
                          u4061 0FBA                            u2381 2654                            u2541 1BEE  
                          u2461 19F2                            u4221 1D02                            u2630 2CEE  
                          u3270 18C8                            u3190 17A2                            u3430 141E  
                          u3350 117A                            u3510 27D6                            u2710 06C8  
                          u4150 2E1C                            u4070 0FD4                            u2390 2686  
                          u2550 1C02                            u2470 1A24                            u4230 1D9E  
                          u2631 2CEA                            u3271 18C4                            u3191 179E  
                          u3431 141A                            u3351 1176                            u3511 27D2  
                          u2711 06C4                            u4071 0FD0                            u2391 2682  
                          u2551 1BFE                            u2471 1A20                            u4231 1D9A  
                          u3280 18FC                            u3440 143A                            u3360 11B4  
                          u3520 27EA                            u3600 1FE4                            u2800 0824  
                          u2720 06E2                            u2640 2FE8                            u4160 2E2C  
                          u4080 0FFE                            u2560 1C1E                            u2480 1A32  
                          u4240 1E36                            u3281 18F8                            u3441 1436  
                          u3361 11B0                            u3521 27E6                            u3505 279E  
                          u3601 1FE0                            u2801 0820                            u2721 06DE  
                          u2641 2FE4                            u4161 2E28                            u4081 0FFA  
                          u2561 1C1A                            u2481 1A2E                            u4241 1E32  
                          u3290 192E                            u3450 1454                            u3370 11C4  
                          u3530 282E                            u3610 200A                            u2810 0846  
                          u2730 06F8                            u4090 1014                            u4170 227A  
                          u2490 1B72                            u2570 20B8                            u2650 2DC2  
                          u3291 192A                            u3451 1450                            u3371 11C0  
                          u3531 282A                            u3611 2006                            u2811 0842  
                          u2731 06F4                            u4147 2DE6                            u4091 1010  
                          u4171 2276                            u2491 1B6E                            u2571 20B4  
                          u2651 2DBE                            u2660 2D16                            u3460 14A4  
                          u3380 1346                            u3540 286A                            u3620 201A  
                          u2900 09D4                            u2820 086A                            u2740 0708  
                          u3700 0C28                            u4180 22CC                            u2580 2100  
                          u2661 2D12                            u3461 14A0                            u3541 2866  
                          u3621 2016                            u2901 09D0                            u2821 0866  
                          u2741 0704                            u4157 2E12                            u3701 0C24  
                          u4181 22C8                            u2581 20FC                            u2670 2D54  
                          u3470 14D2                            u3390 13A0                            u3550 2882  
                          u3630 202C                            u2910 09E4                            u2830 087C  
                          u2750 074C                            u3710 0C44                            u4190 235A  
                          u2590 2124                            u2671 2D50                            u3471 14CE  
                          u3391 139C                            u3551 287E                            u3631 2028  
                          u2911 09E0                            u2831 0878                            u2751 0748  
                          u3711 0C40                            u4191 2356                            u2591 2120  
                          u3480 150C                            u3640 206A                            u3560 1ECA  
                          u2920 0A18                            u2840 088C                            u2760 075A  
                          u2680 0658                            u3800 0D2C                            u3720 0C6E  
                          u3481 1508                            u3385 133C                            u3641 2066  
                          u3561 1EC6                            u2921 0A14                            u2841 0888  
                          u2761 0756                            u2681 0654                            u3801 0D28  
                          u3721 0C6A                            u3490 2770                            u3650 2078  
                          u3570 1ED8                            u2930 0A2C                            u2850 08C2  
                          u2770 07DE                            u2690 066E                            u3810 0D42  
                          u3730 0C84                            u3491 276C                            u3651 2074  
                          u3571 1ED4                            u2931 0A28                            u2851 08BE  
                          u2771 07DA                            u2691 066A                            u3811 0D3E  
                          u3731 0C80                            u3580 1F38                            u2940 0A4C  
                          u2860 08D0                            u2780 07F6                            u3900 0E2A  
                          u3820 0D50                            u3740 0C92                            u3660 0BD4  
                          u3581 1F34                            u2941 0A48                            u2861 08CC  
                          u2781 07F0                            u3901 0E26                            u3821 0D4C  
                          u3741 0C8E                            u3661 0BD0                            u3590 1F96  
                          u2950 0A64                            u2870 08F2                            u2790 07F8  
                          u3910 0E40                            u3830 0D6C                            u3750 0CAE  
                          u3670 0BF0                            u3591 1F92                            u2951 0A60  
                          u2871 08EE                            u3911 0E3C                            u3831 0D68  
                          u3751 0CAA                            u3671 0BEC                            u2960 0A7E  
                          u2880 0932                            u3920 0E5C                            u3840 0D88  
                          u3760 0CBC                            u3680 0BFE                            u2961 0A7A  
                          u2881 092E                            u3921 0E58                            u3841 0D84  
                          u3761 0CB8                            u3681 0BFA                            u2970 0A94  
                          u2890 099A                            u3930 0E72                            u3850 0DA4  
                          u3770 0CD8                            u3690 0C1A                            u2971 0A90  
                          u2891 0996                            u3931 0E6E                            u3851 0DA0  
                          u3771 0CD4                            u3691 0C16                            u2980 0AAA  
                          u3940 0E80                            u3860 0DB2                            u3780 0CF4  
                          _RCIF 007CF5                            u2981 0AA6                            u3941 0E7C  
                          u3861 0DAE                            u3781 0CF0                            u2990 0AC6  
                          u3950 0E9C                            u3870 0DCE                            u3790 0D10  
                          u2991 0AC2                            u3951 0E98                            u3871 0DCA  
                          u3791 0D0C                            u3960 0EC6                            u3880 0DEA  
                          u3961 0EC2                            u3881 0DE6                            u3970 0EDC  
                          u3890 0E00                            u3971 0ED8                            u3891 0DFC  
                          u3980 0EEA                            u3981 0EE6                            u3990 0F06  
                          u3991 0F02                            _RCON 000FD0                            _TMR0 000FD6  
                          _TMR1 000FCE                            _TXIF 007CF4                            abs@a 0013  
                          _dbuf 0090                            _main 1C78                            _dtoa 195A  
                          _buzz 0BC2                            _prec 0084                            _nout 0080  
                          pad@i 0018                            pad@p 0015                            fsr1h 000FE2  
                          fsr2h 000FDA                            indf1 000FE7                            indf2 000FDF  
                          fsr1l 000FE1                            pad@w 001A                            fsr2l 000FD9  
                          btemp 007E        __end_of_USART_SendString 2E32                            prodh 000FF4  
                          prodl 000FF3                            start 000E                 __end_of_MSdelay 2CF4  
                 __CFG_IESO$OFF 000000                 ___fldiv@new_exp 0020                   __CFG_MCLRE$ON 000000  
                  ___param_bank 000000                           ??_abs 0015                           ??_pad 0017  
__size_of_OSCILLATOR_Initialize 000C   __end_of_OSCILLATOR_Initialize 3028                   ___fltol@sign1 0049  
               __end_of___aodiv 25CE                 __end_of___fladd 0BC2                           ?_main 0001  
                         ?_dtoa 001C                 __end_of___aomod 275A                           ?_buzz 0007  
               __end_of___fldiv 195A                           STR_10 0609                           _CCPR2 000FBB  
                         STR_11 0617                 __end_of___flmul 153A                 __end_of___fltol 28AC  
                         _T0CON 000FD5                           _T1CON 000FCD                           _T3CON 000FB1  
                         _IRCF0 007E9C                           _IRCF1 007E9D                           _IRCF2 007E9E  
                         i2l133 2F8E                           i2l134 2FA8                           i2l135 2FA8  
                         _RCREG 000FAE                           _RCSTA 000FAB                    vfpfcnvrt@fmt 0042  
                         _SPBRG 000FAF                    ?_init_buzzer 0001                           _TXREG 000FAD  
                         _TXSTA 000FAC                   __CFG_PWRT$OFF 000000                   __CFG_WRT0$OFF 000000  
                 __CFG_WRT1$OFF 000000                   __CFG_WRT2$OFF 000000             ___lmul@multiplicand 0005  
                 __CFG_WRT3$OFF 000000                  __CFG_EBTR0$OFF 000000                  __CFG_FCMEN$OFF 000000  
                __CFG_EBTR1$OFF 000000                  __CFG_EBTR2$OFF 000000                  __CFG_EBTR3$OFF 000000  
                 __CFG_WRTB$OFF 000000                   __CFG_WRTC$OFF 000000                   __CFG_WRTD$OFF 000000  
                __CFG_EBTRB$OFF 000000                           _flags 0086                           _fputc 299E  
                         _fputs 2EDE                           pad@fp 0011                           _width 0082  
                         _putch 3028                           main@b 007A                           main@g 0076  
                         dtoa@d 001E                           main@r 0072                           dtoa@i 003E  
                         dtoa@n 0036                           dtoa@p 0030                           dtoa@s 0034  
                         dtoa@w 0032                           tablat 000FF5                           ttemp5 007F  
                         ttemp6 0082                           ttemp7 0086                           status 000FD8  
                         wtemp8 007F                 __end_of_sprintf 2E8C                  __CFG_PBADEN$ON 000000  
                   ?_USART_Init 004B                 __initialization 2FF2                    __end_of_main 1EB8  
                  __end_of_dtoa 1C78                    __end_of_buzz 10CC                          ??_main 0068  
                        ??_dtoa 0026                          ??_buzz 000D                   __activetblptr 000002  
                        ?_fputc 0001                          ?_fputs 000A                          ?_putch 0001  
                     ??_MSdelay 0003                          i2l3320 2F80                          i2l3322 2F8E  
                        i2l3324 2F9C                          i2l3316 2F70                          i2l3326 2FA2  
                        i2l3318 2F7E                          _OSCCON 000FD3                          _TMR0IE 007F95  
                        _TMR0IF 007F92                          _TRISC6 007CA6                          _TRISC7 007CA7  
              __end_of___xxtofl 2094                          _Hi_ISR 0008                          _MapRGB 28AC  
                __CFG_XINST$OFF 000000                    vfprintf@cfmt 0056                          ___lmul 2CF4  
                     ??___aodiv 0011                       ??___fladd 0030                       ??___aomod 0011  
                     ??___fldiv 0017                  __CFG_STVREN$ON 000000                       ??___flmul 0030  
                     ??___fltol 0045                      _Timer_Init 300C                          _memset 2260  
                        clear_0 2FF8                          pad@buf 0013                          dtoa@fp 001C  
                        _strlen 2E8C                          fputc@c 0001                          fputs@c 000E  
                        fputs@i 000F                          fputs@s 000A                    __mediumconst 0000  
                        tblptrh 000FF7                          tblptrl 000FF6                          tblptru 000FF8  
           __size_of_USART_Init 0094                          putch@c 0001                __end_of_vfprintf 2DCC  
                     ??_sprintf 005E                    ___xxtofl@arg 000B                    ___xxtofl@exp 000A  
                  ___xxtofl@val 0001                      __accesstop 0080         __end_of__initialization 2FFE  
               _Frequency_Count 2B52                   ___rparam_used 000001                      ___fltol@f1 0041  
                __pcstackCOMRAM 0001                   __end_of_fputc 2A7C                   __end_of_fputs 2F2A  
                 __end_of_putch 302A            __size_of_init_buzzer 0028                         ??_fputc 0005  
                       ??_fputs 000E                         ??_putch 0001                      __pbssBANK0 0080  
                       ?_Hi_ISR 0001               ?_USART_SendString 0002                         ?_MapRGB 004B  
            ??_USART_SendString 0004                         ?___lmul 0001                     ?_Timer_Init 0001  
                       _CCP2CON 000FBA                         ?_memset 0001                  ___lmul@product 0009  
                       ?_strlen 0001                       ?___xxtofl 0001              __size_of_vfpfcnvrt 01CC  
       __end_of_Frequency_Count 2BEC                         _MSdelay 2C80                 __size_of_Hi_ISR 2FA4  
               __size_of_MapRGB 00F2                    ??_USART_Init 004F                         __Hparam 0000  
                       __Lparam 0000                         ___aodiv 241E                         ___fladd 063E  
                       ___aomod 25CE                         ___fldiv 153A                 __size_of___lmul 0072  
                       ___flmul 10CC                         ___fltol 275A                       ?_vfprintf 0050  
                  __psmallconst 0600                         __pcinit 2FF2                 __size_of_memset 01BE  
                       __ramtop 0600                         __ptext0 1C78                         __ptext1 2E32  
                       __ptext2 2D66                         __ptext3 2094                         __ptext4 195A  
                       __ptext5 2A7C                         __ptext6 2E8C                         __ptext7 2EDE  
                       __ptext8 299E                         __ptext9 3028             USART_SendString@out 0002  
                     _T0CONbits 000FD5                 __size_of_strlen 0052                  USART_Init@temp 004F  
         _OSCILLATOR_Initialize 301C                    __size_of_abs 0044                    __size_of_pad 00D6  
                    ??___xxtofl 0005              __end_of_USART_Init 2C80                         _sprintf 2E32  
                __pintcode_body 2F6E            end_of_initialization 2FFE             __size_of_Timer_Init 0010  
                       buzz@red 0007                         fputc@fp 0003                         memset@c 0003  
                       memset@k 000B                         memset@n 0005                         memset@s 000D  
                 __Lmediumconst 0000                         int_func 2F6E                         fputs@fp 000C  
                     MapRGB@max 004F                       MapRGB@min 004B                       MapRGB@val 005F  
             __end_of_vfpfcnvrt 2260                         postdec2 000FDD                         postinc0 000FEE  
                       postinc1 000FE6                         postinc2 000FDE                      ??_vfprintf 0056  
                       strlen@a 0005                         strlen@s 0001                     ___fladd@grs 003B  
                 ___xxtofl@sign 0009                       _TRISAbits 000F92                       _TRISCbits 000F94  
                     _TRISDbits 000F95                     ___fldiv@grs 0022                     ___fldiv@rem 001B  
              ?_Frequency_Count 000D             USART_Init@baud_rate 004B                     ___flmul@grs 0035  
                 ?_USART_TxChar 0001                  __end_of_Hi_ISR 2FAC                  __end_of_MapRGB 299E  
                __end_of___lmul 2D66                     vfpfcnvrt@ap 0044                     vfpfcnvrt@fp 0040  
                   vfpfcnvrt@ll 0048          ?_OSCILLATOR_Initialize 0001                  __end_of_memset 241E  
                __end_of_strlen 2EDE             start_initialization 2FF2                     __end_of_abs 2F6E  
                   __end_of_pad 2B52                  ??_USART_TxChar 0001                __CFG_OSC$INTIO67 000000  
                      ??_Hi_ISR 0001                        ??_MapRGB 0057                     vfprintf@fmt 0052  
                      ??___lmul 0009                    ??_Timer_Init 0001                __CFG_LPT1OSC$OFF 000000  
                      ??_memset 0007                      memset@dest 0001                        ??_strlen 0003  
     __size_of_USART_SendString 0066                       ___fladd@a 002C                       ___fladd@b 0028  
                     ___fldiv@a 0013                       ___fldiv@b 000F                   ??_init_buzzer 0001  
                     ___flmul@a 002C                       ___flmul@b 0028                ___aodiv@dividend 0001  
             __size_of___xxtofl 01DC                        ?_MSdelay 0001              __end_of_Timer_Init 301C  
                     __pnvBANK0 00B0               __CFG_CCP2MX$PORTC 000000                       __pintcode 0008  
                      ?___aodiv 0001                        ?___fladd 0028                        ?___aomod 0001  
                      ?___fldiv 000F                ___aodiv@quotient 0013                        ?___flmul 0028  
                      ?___fltol 0041               __size_of_vfprintf 0066                     __smallconst 0600  
                      ?_sprintf 0058                  __size_of_fputc 00DE                  __size_of_fputs 004C  
                __size_of_putch 0002             __end_of_init_buzzer 2FD4                        MSdelay@i 0003  
                      MSdelay@j 0005                        _IPR2bits 000FA2                        _PIE2bits 000FA0  
                      i2u425_40 2F7E                        i2u425_41 2F7A                        i2u426_40 2F9C  
                      i2u426_41 2F98                        _PIR2bits 000FA1                __CFG_WDTPS$32768 000000  
                     _vfpfcnvrt 2094            __end_of_USART_TxChar 2FF2                       main@value 0068  
             ___lmul@multiplier 0001                __size_of_MSdelay 0074                        __Hrparam 0000  
                    vfprintf@ap 0054                        __Lrparam 0000                      vfprintf@fp 0050  
                     buzz@green 0009              __CFG_BOREN$SBORDIS 000000         ??_OSCILLATOR_Initialize 0001  
              __size_of___aodiv 01B0                __size_of___fladd 0584                __size_of___aomod 018C  
              __size_of___fldiv 0420                __size_of___flmul 046E                __size_of___fltol 0152  
                    ?_vfpfcnvrt 0040                 ___aodiv@divisor 0009                 ___aodiv@counter 0011  
              _USART_SendString 2DCC                      sprintf@fmt 005A                      sprintf@ret 005E  
                      ___xxtofl 1EB8                     _init_buzzer 2FAC                        _dtoa$588 002E  
                      _half_cyc 008E                        __ptext10 2F2A                        __ptext11 25CE  
                      __ptext20 300C                        __ptext12 241E                        __ptext21 301C  
                      __ptext13 2260                        __ptext22 28AC                        __ptext14 0BC2  
                      __ptext23 1EB8                        __ptext15 2FAC                        __ptext24 275A  
                      __ptext16 2DCC                        __ptext25 10CC                        __ptext17 2FD4  
                      __ptext26 153A                        __ptext18 2BEC                        __ptext27 2B52  
                      __ptext19 063E                        __ptext28 2CF4                        __ptext29 2C80  
              __size_of_sprintf 005A                   __size_of_main 0240                     MapRGB@count 0053  
                 __size_of_dtoa 031E                   __size_of_buzz 050A        __size_of_Frequency_Count 009A  
                    MSdelay@val 0001                        int$flags 007E                        _vfprintf 2D66  
              ___aomod@dividend 0001                  _overflow_count 008C                      _INTCONbits 000FF2  
                      buzz@blue 000B                 USART_TxChar@out 0001                        intlevel2 0000  
                     sprintf@ap 0060           __size_of_USART_TxChar 001E                 ___aomod@divisor 0009  
                   ??_vfpfcnvrt 0046                 ___aomod@counter 0011                        sprintf@f 0062  
                      sprintf@s 0058                   ___fladd@signs 0038                    ___aodiv@sign 0012  
                  ___fladd@aexp 0039                    ___fladd@bexp 003A                    _USART_TxChar 2FD4  
                  ___aomod@sign 0012                      _USART_Init 2BEC  
